
Zepplin-FC.elf:     file format elf32-littlearm

Sections:
Idx Name          Size      VMA       LMA       File off  Algn
  0 .text         0000a894  00400000  00400000  00008000  2**2
                  CONTENTS, ALLOC, LOAD, READONLY, CODE
  1 .ARM.exidx    000000d8  0040a894  0040a894  00012894  2**2
                  CONTENTS, ALLOC, LOAD, READONLY, DATA
  2 .relocate     000009d0  20000000  0040a96c  00018000  2**3
                  CONTENTS, ALLOC, LOAD, CODE
  3 .bss          00000d78  200009d0  0040b33c  000189d0  2**2
                  ALLOC
  4 .stack        00002000  20001748  0040c0b4  000189d0  2**0
                  ALLOC
  5 .ARM.attributes 00000029  00000000  00000000  000189d0  2**0
                  CONTENTS, READONLY
  6 .comment      00000033  00000000  00000000  000189f9  2**0
                  CONTENTS, READONLY
  7 .debug_info   0001a9c3  00000000  00000000  00018a2c  2**0
                  CONTENTS, READONLY, DEBUGGING
  8 .debug_abbrev 00005518  00000000  00000000  000333ef  2**0
                  CONTENTS, READONLY, DEBUGGING
  9 .debug_loc    00007110  00000000  00000000  00038907  2**0
                  CONTENTS, READONLY, DEBUGGING
 10 .debug_aranges 00000620  00000000  00000000  0003fa18  2**3
                  CONTENTS, READONLY, DEBUGGING
 11 .debug_line   00006dc4  00000000  00000000  00040038  2**0
                  CONTENTS, READONLY, DEBUGGING
 12 .debug_str    00002481  00000000  00000000  00046dfc  2**0
                  CONTENTS, READONLY, DEBUGGING
 13 .debug_frame  00000bb8  00000000  00000000  00049280  2**2
                  CONTENTS, READONLY, DEBUGGING
 14 .debug_ranges 00000350  00000000  00000000  00049e38  2**0
                  CONTENTS, READONLY, DEBUGGING

Disassembly of section .text:

00400000 <_sfixed>:
  400000:	20003748 	.word	0x20003748
  400004:	004002ed 	.word	0x004002ed
  400008:	004002eb 	.word	0x004002eb
  40000c:	004002eb 	.word	0x004002eb
  400010:	004002eb 	.word	0x004002eb
  400014:	004002eb 	.word	0x004002eb
  400018:	004002eb 	.word	0x004002eb
	...
  40002c:	004002eb 	.word	0x004002eb
  400030:	004002eb 	.word	0x004002eb
  400034:	00000000 	.word	0x00000000
  400038:	004002eb 	.word	0x004002eb
  40003c:	00400779 	.word	0x00400779
  400040:	004002eb 	.word	0x004002eb
  400044:	004002eb 	.word	0x004002eb
  400048:	004002eb 	.word	0x004002eb
  40004c:	004002eb 	.word	0x004002eb
  400050:	004002eb 	.word	0x004002eb
  400054:	004002eb 	.word	0x004002eb
  400058:	004002eb 	.word	0x004002eb
  40005c:	004002eb 	.word	0x004002eb
  400060:	004002eb 	.word	0x004002eb
  400064:	004002eb 	.word	0x004002eb
  400068:	004002eb 	.word	0x004002eb
  40006c:	004028dd 	.word	0x004028dd
  400070:	004028f1 	.word	0x004028f1
  400074:	004002eb 	.word	0x004002eb
  400078:	004002eb 	.word	0x004002eb
  40007c:	004002eb 	.word	0x004002eb
  400080:	004002eb 	.word	0x004002eb
  400084:	004002eb 	.word	0x004002eb
  400088:	004002eb 	.word	0x004002eb
  40008c:	004002eb 	.word	0x004002eb
  400090:	004002eb 	.word	0x004002eb
  400094:	004002eb 	.word	0x004002eb
  400098:	004002eb 	.word	0x004002eb
  40009c:	004002eb 	.word	0x004002eb
  4000a0:	004002eb 	.word	0x004002eb
  4000a4:	004002eb 	.word	0x004002eb
  4000a8:	004002eb 	.word	0x004002eb
  4000ac:	004002eb 	.word	0x004002eb
  4000b0:	004002eb 	.word	0x004002eb
  4000b4:	004002eb 	.word	0x004002eb
  4000b8:	004002eb 	.word	0x004002eb
  4000bc:	004002eb 	.word	0x004002eb
  4000c0:	004002eb 	.word	0x004002eb
  4000c4:	004002eb 	.word	0x004002eb
  4000c8:	004030cd 	.word	0x004030cd
  4000cc:	004002eb 	.word	0x004002eb

004000d0 <deregister_tm_clones>:
  4000d0:	b508      	push	{r3, lr}
  4000d2:	4805      	ldr	r0, [pc, #20]	; (4000e8 <deregister_tm_clones+0x18>)
  4000d4:	4b05      	ldr	r3, [pc, #20]	; (4000ec <deregister_tm_clones+0x1c>)
  4000d6:	1a1b      	subs	r3, r3, r0
  4000d8:	2b06      	cmp	r3, #6
  4000da:	d800      	bhi.n	4000de <deregister_tm_clones+0xe>
  4000dc:	bd08      	pop	{r3, pc}
  4000de:	4b04      	ldr	r3, [pc, #16]	; (4000f0 <deregister_tm_clones+0x20>)
  4000e0:	2b00      	cmp	r3, #0
  4000e2:	d0fb      	beq.n	4000dc <deregister_tm_clones+0xc>
  4000e4:	4798      	blx	r3
  4000e6:	e7f9      	b.n	4000dc <deregister_tm_clones+0xc>
  4000e8:	0040a96c 	.word	0x0040a96c
  4000ec:	0040a96f 	.word	0x0040a96f
  4000f0:	00000000 	.word	0x00000000

004000f4 <register_tm_clones>:
  4000f4:	b508      	push	{r3, lr}
  4000f6:	4807      	ldr	r0, [pc, #28]	; (400114 <register_tm_clones+0x20>)
  4000f8:	4b07      	ldr	r3, [pc, #28]	; (400118 <register_tm_clones+0x24>)
  4000fa:	1a1b      	subs	r3, r3, r0
  4000fc:	109b      	asrs	r3, r3, #2
  4000fe:	eb03 73d3 	add.w	r3, r3, r3, lsr #31
  400102:	1059      	asrs	r1, r3, #1
  400104:	d100      	bne.n	400108 <register_tm_clones+0x14>
  400106:	bd08      	pop	{r3, pc}
  400108:	4a04      	ldr	r2, [pc, #16]	; (40011c <register_tm_clones+0x28>)
  40010a:	2a00      	cmp	r2, #0
  40010c:	d0fb      	beq.n	400106 <register_tm_clones+0x12>
  40010e:	4790      	blx	r2
  400110:	e7f9      	b.n	400106 <register_tm_clones+0x12>
  400112:	bf00      	nop
  400114:	0040a96c 	.word	0x0040a96c
  400118:	0040a96c 	.word	0x0040a96c
  40011c:	00000000 	.word	0x00000000

00400120 <__do_global_dtors_aux>:
  400120:	b510      	push	{r4, lr}
  400122:	4c06      	ldr	r4, [pc, #24]	; (40013c <__do_global_dtors_aux+0x1c>)
  400124:	7823      	ldrb	r3, [r4, #0]
  400126:	b943      	cbnz	r3, 40013a <__do_global_dtors_aux+0x1a>
  400128:	f7ff ffd2 	bl	4000d0 <deregister_tm_clones>
  40012c:	4b04      	ldr	r3, [pc, #16]	; (400140 <__do_global_dtors_aux+0x20>)
  40012e:	b113      	cbz	r3, 400136 <__do_global_dtors_aux+0x16>
  400130:	4804      	ldr	r0, [pc, #16]	; (400144 <__do_global_dtors_aux+0x24>)
  400132:	f3af 8000 	nop.w
  400136:	2301      	movs	r3, #1
  400138:	7023      	strb	r3, [r4, #0]
  40013a:	bd10      	pop	{r4, pc}
  40013c:	200009d0 	.word	0x200009d0
  400140:	00000000 	.word	0x00000000
  400144:	0040a96c 	.word	0x0040a96c

00400148 <frame_dummy>:
  400148:	b508      	push	{r3, lr}
  40014a:	4b08      	ldr	r3, [pc, #32]	; (40016c <frame_dummy+0x24>)
  40014c:	b11b      	cbz	r3, 400156 <frame_dummy+0xe>
  40014e:	4808      	ldr	r0, [pc, #32]	; (400170 <frame_dummy+0x28>)
  400150:	4908      	ldr	r1, [pc, #32]	; (400174 <frame_dummy+0x2c>)
  400152:	f3af 8000 	nop.w
  400156:	4808      	ldr	r0, [pc, #32]	; (400178 <frame_dummy+0x30>)
  400158:	6803      	ldr	r3, [r0, #0]
  40015a:	b113      	cbz	r3, 400162 <frame_dummy+0x1a>
  40015c:	4b07      	ldr	r3, [pc, #28]	; (40017c <frame_dummy+0x34>)
  40015e:	b103      	cbz	r3, 400162 <frame_dummy+0x1a>
  400160:	4798      	blx	r3
  400162:	e8bd 4008 	ldmia.w	sp!, {r3, lr}
  400166:	f7ff bfc5 	b.w	4000f4 <register_tm_clones>
  40016a:	bf00      	nop
  40016c:	00000000 	.word	0x00000000
  400170:	0040a96c 	.word	0x0040a96c
  400174:	200009d4 	.word	0x200009d4
  400178:	0040a96c 	.word	0x0040a96c
  40017c:	00000000 	.word	0x00000000

00400180 <twi_set_speed>:
  400180:	4b0d      	ldr	r3, [pc, #52]	; (4001b8 <twi_set_speed+0x38>)
  400182:	4299      	cmp	r1, r3
  400184:	d816      	bhi.n	4001b4 <twi_set_speed+0x34>
  400186:	0049      	lsls	r1, r1, #1
  400188:	fbb2 f2f1 	udiv	r2, r2, r1
  40018c:	3a04      	subs	r2, #4
  40018e:	2300      	movs	r3, #0
  400190:	e001      	b.n	400196 <twi_set_speed+0x16>
  400192:	3301      	adds	r3, #1
  400194:	0852      	lsrs	r2, r2, #1
  400196:	2aff      	cmp	r2, #255	; 0xff
  400198:	d901      	bls.n	40019e <twi_set_speed+0x1e>
  40019a:	2b07      	cmp	r3, #7
  40019c:	d1f9      	bne.n	400192 <twi_set_speed+0x12>
  40019e:	041b      	lsls	r3, r3, #16
  4001a0:	0611      	lsls	r1, r2, #24
  4001a2:	f403 23e0 	and.w	r3, r3, #458752	; 0x70000
  4001a6:	ea43 4311 	orr.w	r3, r3, r1, lsr #16
  4001aa:	b2d2      	uxtb	r2, r2
  4001ac:	431a      	orrs	r2, r3
  4001ae:	6102      	str	r2, [r0, #16]
  4001b0:	2000      	movs	r0, #0
  4001b2:	4770      	bx	lr
  4001b4:	2001      	movs	r0, #1
  4001b6:	4770      	bx	lr
  4001b8:	00061a80 	.word	0x00061a80

004001bc <twi_master_init>:
  4001bc:	b538      	push	{r3, r4, r5, lr}
  4001be:	f04f 33ff 	mov.w	r3, #4294967295
  4001c2:	6283      	str	r3, [r0, #40]	; 0x28
  4001c4:	6a03      	ldr	r3, [r0, #32]
  4001c6:	2380      	movs	r3, #128	; 0x80
  4001c8:	6003      	str	r3, [r0, #0]
  4001ca:	6b03      	ldr	r3, [r0, #48]	; 0x30
  4001cc:	2308      	movs	r3, #8
  4001ce:	6003      	str	r3, [r0, #0]
  4001d0:	2320      	movs	r3, #32
  4001d2:	460d      	mov	r5, r1
  4001d4:	6003      	str	r3, [r0, #0]
  4001d6:	2304      	movs	r3, #4
  4001d8:	6003      	str	r3, [r0, #0]
  4001da:	6849      	ldr	r1, [r1, #4]
  4001dc:	4b06      	ldr	r3, [pc, #24]	; (4001f8 <twi_master_init+0x3c>)
  4001de:	682a      	ldr	r2, [r5, #0]
  4001e0:	4604      	mov	r4, r0
  4001e2:	4798      	blx	r3
  4001e4:	1e43      	subs	r3, r0, #1
  4001e6:	4258      	negs	r0, r3
  4001e8:	4158      	adcs	r0, r3
  4001ea:	7a6b      	ldrb	r3, [r5, #9]
  4001ec:	2b01      	cmp	r3, #1
  4001ee:	d101      	bne.n	4001f4 <twi_master_init+0x38>
  4001f0:	2340      	movs	r3, #64	; 0x40
  4001f2:	6023      	str	r3, [r4, #0]
  4001f4:	bd38      	pop	{r3, r4, r5, pc}
  4001f6:	bf00      	nop
  4001f8:	00400181 	.word	0x00400181

004001fc <twi_master_read>:
  4001fc:	68ca      	ldr	r2, [r1, #12]
  4001fe:	b5f0      	push	{r4, r5, r6, r7, lr}
  400200:	688d      	ldr	r5, [r1, #8]
  400202:	2a00      	cmp	r2, #0
  400204:	d034      	beq.n	400270 <twi_master_read+0x74>
  400206:	2300      	movs	r3, #0
  400208:	6043      	str	r3, [r0, #4]
  40020a:	684c      	ldr	r4, [r1, #4]
  40020c:	7c0e      	ldrb	r6, [r1, #16]
  40020e:	0227      	lsls	r7, r4, #8
  400210:	f407 7740 	and.w	r7, r7, #768	; 0x300
  400214:	0436      	lsls	r6, r6, #16
  400216:	f447 5780 	orr.w	r7, r7, #4096	; 0x1000
  40021a:	f406 06fe 	and.w	r6, r6, #8323072	; 0x7f0000
  40021e:	433e      	orrs	r6, r7
  400220:	6046      	str	r6, [r0, #4]
  400222:	60c3      	str	r3, [r0, #12]
  400224:	b15c      	cbz	r4, 40023e <twi_master_read+0x42>
  400226:	2c01      	cmp	r4, #1
  400228:	780b      	ldrb	r3, [r1, #0]
  40022a:	dd09      	ble.n	400240 <twi_master_read+0x44>
  40022c:	784e      	ldrb	r6, [r1, #1]
  40022e:	2c02      	cmp	r4, #2
  400230:	ea46 2303 	orr.w	r3, r6, r3, lsl #8
  400234:	d004      	beq.n	400240 <twi_master_read+0x44>
  400236:	7889      	ldrb	r1, [r1, #2]
  400238:	ea41 2303 	orr.w	r3, r1, r3, lsl #8
  40023c:	e000      	b.n	400240 <twi_master_read+0x44>
  40023e:	4623      	mov	r3, r4
  400240:	60c3      	str	r3, [r0, #12]
  400242:	2301      	movs	r3, #1
  400244:	6003      	str	r3, [r0, #0]
  400246:	2102      	movs	r1, #2
  400248:	6a03      	ldr	r3, [r0, #32]
  40024a:	f413 7f80 	tst.w	r3, #256	; 0x100
  40024e:	d111      	bne.n	400274 <twi_master_read+0x78>
  400250:	2a01      	cmp	r2, #1
  400252:	bf08      	it	eq
  400254:	6001      	streq	r1, [r0, #0]
  400256:	079b      	lsls	r3, r3, #30
  400258:	d5f6      	bpl.n	400248 <twi_master_read+0x4c>
  40025a:	6b03      	ldr	r3, [r0, #48]	; 0x30
  40025c:	3a01      	subs	r2, #1
  40025e:	f805 3b01 	strb.w	r3, [r5], #1
  400262:	d1f1      	bne.n	400248 <twi_master_read+0x4c>
  400264:	6a03      	ldr	r3, [r0, #32]
  400266:	07da      	lsls	r2, r3, #31
  400268:	d5fc      	bpl.n	400264 <twi_master_read+0x68>
  40026a:	6a03      	ldr	r3, [r0, #32]
  40026c:	2000      	movs	r0, #0
  40026e:	bdf0      	pop	{r4, r5, r6, r7, pc}
  400270:	2001      	movs	r0, #1
  400272:	bdf0      	pop	{r4, r5, r6, r7, pc}
  400274:	2005      	movs	r0, #5
  400276:	bdf0      	pop	{r4, r5, r6, r7, pc}

00400278 <twi_master_write>:
  400278:	b5f0      	push	{r4, r5, r6, r7, lr}
  40027a:	68cd      	ldr	r5, [r1, #12]
  40027c:	688c      	ldr	r4, [r1, #8]
  40027e:	2d00      	cmp	r5, #0
  400280:	d02f      	beq.n	4002e2 <twi_master_write+0x6a>
  400282:	2300      	movs	r3, #0
  400284:	6043      	str	r3, [r0, #4]
  400286:	684a      	ldr	r2, [r1, #4]
  400288:	7c0e      	ldrb	r6, [r1, #16]
  40028a:	0217      	lsls	r7, r2, #8
  40028c:	0436      	lsls	r6, r6, #16
  40028e:	f406 06fe 	and.w	r6, r6, #8323072	; 0x7f0000
  400292:	f407 7740 	and.w	r7, r7, #768	; 0x300
  400296:	433e      	orrs	r6, r7
  400298:	6046      	str	r6, [r0, #4]
  40029a:	60c3      	str	r3, [r0, #12]
  40029c:	b15a      	cbz	r2, 4002b6 <twi_master_write+0x3e>
  40029e:	2a01      	cmp	r2, #1
  4002a0:	780b      	ldrb	r3, [r1, #0]
  4002a2:	dd09      	ble.n	4002b8 <twi_master_write+0x40>
  4002a4:	784e      	ldrb	r6, [r1, #1]
  4002a6:	2a02      	cmp	r2, #2
  4002a8:	ea46 2303 	orr.w	r3, r6, r3, lsl #8
  4002ac:	d004      	beq.n	4002b8 <twi_master_write+0x40>
  4002ae:	788a      	ldrb	r2, [r1, #2]
  4002b0:	ea42 2303 	orr.w	r3, r2, r3, lsl #8
  4002b4:	e000      	b.n	4002b8 <twi_master_write+0x40>
  4002b6:	4613      	mov	r3, r2
  4002b8:	60c3      	str	r3, [r0, #12]
  4002ba:	1965      	adds	r5, r4, r5
  4002bc:	e007      	b.n	4002ce <twi_master_write+0x56>
  4002be:	6a03      	ldr	r3, [r0, #32]
  4002c0:	05d9      	lsls	r1, r3, #23
  4002c2:	d410      	bmi.n	4002e6 <twi_master_write+0x6e>
  4002c4:	075a      	lsls	r2, r3, #29
  4002c6:	d5fa      	bpl.n	4002be <twi_master_write+0x46>
  4002c8:	f814 3b01 	ldrb.w	r3, [r4], #1
  4002cc:	6343      	str	r3, [r0, #52]	; 0x34
  4002ce:	42ac      	cmp	r4, r5
  4002d0:	d1f5      	bne.n	4002be <twi_master_write+0x46>
  4002d2:	2302      	movs	r3, #2
  4002d4:	6003      	str	r3, [r0, #0]
  4002d6:	6a03      	ldr	r3, [r0, #32]
  4002d8:	07db      	lsls	r3, r3, #31
  4002da:	d5fc      	bpl.n	4002d6 <twi_master_write+0x5e>
  4002dc:	6a03      	ldr	r3, [r0, #32]
  4002de:	2000      	movs	r0, #0
  4002e0:	bdf0      	pop	{r4, r5, r6, r7, pc}
  4002e2:	2001      	movs	r0, #1
  4002e4:	bdf0      	pop	{r4, r5, r6, r7, pc}
  4002e6:	2005      	movs	r0, #5
  4002e8:	bdf0      	pop	{r4, r5, r6, r7, pc}

004002ea <Dummy_Handler>:
  4002ea:	e7fe      	b.n	4002ea <Dummy_Handler>

004002ec <Reset_Handler>:
  4002ec:	4915      	ldr	r1, [pc, #84]	; (400344 <Reset_Handler+0x58>)
  4002ee:	4a16      	ldr	r2, [pc, #88]	; (400348 <Reset_Handler+0x5c>)
  4002f0:	b510      	push	{r4, lr}
  4002f2:	4291      	cmp	r1, r2
  4002f4:	d107      	bne.n	400306 <Reset_Handler+0x1a>
  4002f6:	4b15      	ldr	r3, [pc, #84]	; (40034c <Reset_Handler+0x60>)
  4002f8:	4a15      	ldr	r2, [pc, #84]	; (400350 <Reset_Handler+0x64>)
  4002fa:	2100      	movs	r1, #0
  4002fc:	e00b      	b.n	400316 <Reset_Handler+0x2a>
  4002fe:	5858      	ldr	r0, [r3, r1]
  400300:	5098      	str	r0, [r3, r2]
  400302:	3304      	adds	r3, #4
  400304:	e001      	b.n	40030a <Reset_Handler+0x1e>
  400306:	4c13      	ldr	r4, [pc, #76]	; (400354 <Reset_Handler+0x68>)
  400308:	2300      	movs	r3, #0
  40030a:	1898      	adds	r0, r3, r2
  40030c:	42a0      	cmp	r0, r4
  40030e:	d3f6      	bcc.n	4002fe <Reset_Handler+0x12>
  400310:	e7f1      	b.n	4002f6 <Reset_Handler+0xa>
  400312:	f843 1b04 	str.w	r1, [r3], #4
  400316:	4293      	cmp	r3, r2
  400318:	d3fb      	bcc.n	400312 <Reset_Handler+0x26>
  40031a:	4a0f      	ldr	r2, [pc, #60]	; (400358 <Reset_Handler+0x6c>)
  40031c:	4b0f      	ldr	r3, [pc, #60]	; (40035c <Reset_Handler+0x70>)
  40031e:	f022 4160 	bic.w	r1, r2, #3758096384	; 0xe0000000
  400322:	f102 4260 	add.w	r2, r2, #3758096384	; 0xe0000000
  400326:	f021 017f 	bic.w	r1, r1, #127	; 0x7f
  40032a:	f5b2 3f80 	cmp.w	r2, #65536	; 0x10000
  40032e:	6099      	str	r1, [r3, #8]
  400330:	d203      	bcs.n	40033a <Reset_Handler+0x4e>
  400332:	689a      	ldr	r2, [r3, #8]
  400334:	f042 5200 	orr.w	r2, r2, #536870912	; 0x20000000
  400338:	609a      	str	r2, [r3, #8]
  40033a:	4b09      	ldr	r3, [pc, #36]	; (400360 <Reset_Handler+0x74>)
  40033c:	4798      	blx	r3
  40033e:	4b09      	ldr	r3, [pc, #36]	; (400364 <Reset_Handler+0x78>)
  400340:	4798      	blx	r3
  400342:	e7fe      	b.n	400342 <Reset_Handler+0x56>
  400344:	0040a96c 	.word	0x0040a96c
  400348:	20000000 	.word	0x20000000
  40034c:	200009d0 	.word	0x200009d0
  400350:	20001748 	.word	0x20001748
  400354:	200009d0 	.word	0x200009d0
  400358:	00400000 	.word	0x00400000
  40035c:	e000ed00 	.word	0xe000ed00
  400360:	00405ac9 	.word	0x00405ac9
  400364:	004059d1 	.word	0x004059d1

00400368 <SystemCoreClockUpdate>:
  400368:	4a2f      	ldr	r2, [pc, #188]	; (400428 <SystemCoreClockUpdate+0xc0>)
  40036a:	6b13      	ldr	r3, [r2, #48]	; 0x30
  40036c:	f003 0303 	and.w	r3, r3, #3
  400370:	2b01      	cmp	r3, #1
  400372:	4b2e      	ldr	r3, [pc, #184]	; (40042c <SystemCoreClockUpdate+0xc4>)
  400374:	d00d      	beq.n	400392 <SystemCoreClockUpdate+0x2a>
  400376:	d303      	bcc.n	400380 <SystemCoreClockUpdate+0x18>
  400378:	6a11      	ldr	r1, [r2, #32]
  40037a:	01c9      	lsls	r1, r1, #7
  40037c:	d51c      	bpl.n	4003b8 <SystemCoreClockUpdate+0x50>
  40037e:	e027      	b.n	4003d0 <SystemCoreClockUpdate+0x68>
  400380:	4a2b      	ldr	r2, [pc, #172]	; (400430 <SystemCoreClockUpdate+0xc8>)
  400382:	6952      	ldr	r2, [r2, #20]
  400384:	0612      	lsls	r2, r2, #24
  400386:	bf4c      	ite	mi
  400388:	f44f 4200 	movmi.w	r2, #32768	; 0x8000
  40038c:	f44f 42fa 	movpl.w	r2, #32000	; 0x7d00
  400390:	e010      	b.n	4003b4 <SystemCoreClockUpdate+0x4c>
  400392:	6a11      	ldr	r1, [r2, #32]
  400394:	01c8      	lsls	r0, r1, #7
  400396:	d500      	bpl.n	40039a <SystemCoreClockUpdate+0x32>
  400398:	e00b      	b.n	4003b2 <SystemCoreClockUpdate+0x4a>
  40039a:	4926      	ldr	r1, [pc, #152]	; (400434 <SystemCoreClockUpdate+0xcc>)
  40039c:	6019      	str	r1, [r3, #0]
  40039e:	6a12      	ldr	r2, [r2, #32]
  4003a0:	f002 0270 	and.w	r2, r2, #112	; 0x70
  4003a4:	2a10      	cmp	r2, #16
  4003a6:	d002      	beq.n	4003ae <SystemCoreClockUpdate+0x46>
  4003a8:	2a20      	cmp	r2, #32
  4003aa:	d128      	bne.n	4003fe <SystemCoreClockUpdate+0x96>
  4003ac:	e001      	b.n	4003b2 <SystemCoreClockUpdate+0x4a>
  4003ae:	4a22      	ldr	r2, [pc, #136]	; (400438 <SystemCoreClockUpdate+0xd0>)
  4003b0:	e000      	b.n	4003b4 <SystemCoreClockUpdate+0x4c>
  4003b2:	4a22      	ldr	r2, [pc, #136]	; (40043c <SystemCoreClockUpdate+0xd4>)
  4003b4:	601a      	str	r2, [r3, #0]
  4003b6:	e022      	b.n	4003fe <SystemCoreClockUpdate+0x96>
  4003b8:	491e      	ldr	r1, [pc, #120]	; (400434 <SystemCoreClockUpdate+0xcc>)
  4003ba:	6019      	str	r1, [r3, #0]
  4003bc:	6a12      	ldr	r2, [r2, #32]
  4003be:	f002 0270 	and.w	r2, r2, #112	; 0x70
  4003c2:	2a10      	cmp	r2, #16
  4003c4:	d002      	beq.n	4003cc <SystemCoreClockUpdate+0x64>
  4003c6:	2a20      	cmp	r2, #32
  4003c8:	d104      	bne.n	4003d4 <SystemCoreClockUpdate+0x6c>
  4003ca:	e001      	b.n	4003d0 <SystemCoreClockUpdate+0x68>
  4003cc:	4a1a      	ldr	r2, [pc, #104]	; (400438 <SystemCoreClockUpdate+0xd0>)
  4003ce:	e000      	b.n	4003d2 <SystemCoreClockUpdate+0x6a>
  4003d0:	4a1a      	ldr	r2, [pc, #104]	; (40043c <SystemCoreClockUpdate+0xd4>)
  4003d2:	601a      	str	r2, [r3, #0]
  4003d4:	4b14      	ldr	r3, [pc, #80]	; (400428 <SystemCoreClockUpdate+0xc0>)
  4003d6:	6b1a      	ldr	r2, [r3, #48]	; 0x30
  4003d8:	f002 0203 	and.w	r2, r2, #3
  4003dc:	2a02      	cmp	r2, #2
  4003de:	bf0c      	ite	eq
  4003e0:	6a98      	ldreq	r0, [r3, #40]	; 0x28
  4003e2:	6ad8      	ldrne	r0, [r3, #44]	; 0x2c
  4003e4:	4a11      	ldr	r2, [pc, #68]	; (40042c <SystemCoreClockUpdate+0xc4>)
  4003e6:	bf0c      	ite	eq
  4003e8:	6a99      	ldreq	r1, [r3, #40]	; 0x28
  4003ea:	6ad9      	ldrne	r1, [r3, #44]	; 0x2c
  4003ec:	f3c0 400a 	ubfx	r0, r0, #16, #11
  4003f0:	6813      	ldr	r3, [r2, #0]
  4003f2:	3001      	adds	r0, #1
  4003f4:	4343      	muls	r3, r0
  4003f6:	b2c9      	uxtb	r1, r1
  4003f8:	fbb3 f3f1 	udiv	r3, r3, r1
  4003fc:	6013      	str	r3, [r2, #0]
  4003fe:	4a0a      	ldr	r2, [pc, #40]	; (400428 <SystemCoreClockUpdate+0xc0>)
  400400:	6b13      	ldr	r3, [r2, #48]	; 0x30
  400402:	f003 0370 	and.w	r3, r3, #112	; 0x70
  400406:	2b70      	cmp	r3, #112	; 0x70
  400408:	4b08      	ldr	r3, [pc, #32]	; (40042c <SystemCoreClockUpdate+0xc4>)
  40040a:	d104      	bne.n	400416 <SystemCoreClockUpdate+0xae>
  40040c:	681a      	ldr	r2, [r3, #0]
  40040e:	2103      	movs	r1, #3
  400410:	fbb2 f2f1 	udiv	r2, r2, r1
  400414:	e005      	b.n	400422 <SystemCoreClockUpdate+0xba>
  400416:	6b11      	ldr	r1, [r2, #48]	; 0x30
  400418:	681a      	ldr	r2, [r3, #0]
  40041a:	f3c1 1102 	ubfx	r1, r1, #4, #3
  40041e:	fa22 f201 	lsr.w	r2, r2, r1
  400422:	601a      	str	r2, [r3, #0]
  400424:	4770      	bx	lr
  400426:	bf00      	nop
  400428:	400e0400 	.word	0x400e0400
  40042c:	2000000c 	.word	0x2000000c
  400430:	400e1410 	.word	0x400e1410
  400434:	003d0900 	.word	0x003d0900
  400438:	007a1200 	.word	0x007a1200
  40043c:	00b71b00 	.word	0x00b71b00

00400440 <system_init_flash>:
  400440:	4b0a      	ldr	r3, [pc, #40]	; (40046c <system_init_flash+0x2c>)
  400442:	4298      	cmp	r0, r3
  400444:	4b0a      	ldr	r3, [pc, #40]	; (400470 <system_init_flash+0x30>)
  400446:	d801      	bhi.n	40044c <system_init_flash+0xc>
  400448:	2200      	movs	r2, #0
  40044a:	e00c      	b.n	400466 <system_init_flash+0x26>
  40044c:	4a09      	ldr	r2, [pc, #36]	; (400474 <system_init_flash+0x34>)
  40044e:	4290      	cmp	r0, r2
  400450:	d802      	bhi.n	400458 <system_init_flash+0x18>
  400452:	f44f 7280 	mov.w	r2, #256	; 0x100
  400456:	e006      	b.n	400466 <system_init_flash+0x26>
  400458:	4a07      	ldr	r2, [pc, #28]	; (400478 <system_init_flash+0x38>)
  40045a:	4290      	cmp	r0, r2
  40045c:	bf94      	ite	ls
  40045e:	f44f 7200 	movls.w	r2, #512	; 0x200
  400462:	f44f 7240 	movhi.w	r2, #768	; 0x300
  400466:	601a      	str	r2, [r3, #0]
  400468:	4770      	bx	lr
  40046a:	bf00      	nop
  40046c:	01406f3f 	.word	0x01406f3f
  400470:	400e0a00 	.word	0x400e0a00
  400474:	02160ebf 	.word	0x02160ebf
  400478:	039386ff 	.word	0x039386ff

0040047c <I2Cdev_readBytes>:
  40047c:	e92d 43f0 	stmdb	sp!, {r4, r5, r6, r7, r8, r9, lr}
  400480:	b089      	sub	sp, #36	; 0x24
  400482:	4605      	mov	r5, r0
  400484:	4689      	mov	r9, r1
  400486:	4614      	mov	r4, r2
  400488:	2100      	movs	r1, #0
  40048a:	220c      	movs	r2, #12
  40048c:	4f14      	ldr	r7, [pc, #80]	; (4004e0 <I2Cdev_readBytes+0x64>)
  40048e:	4668      	mov	r0, sp
  400490:	4698      	mov	r8, r3
  400492:	47b8      	blx	r7
  400494:	4b13      	ldr	r3, [pc, #76]	; (4004e4 <I2Cdev_readBytes+0x68>)
  400496:	2013      	movs	r0, #19
  400498:	9301      	str	r3, [sp, #4]
  40049a:	4b13      	ldr	r3, [pc, #76]	; (4004e8 <I2Cdev_readBytes+0x6c>)
  40049c:	f88d 5008 	strb.w	r5, [sp, #8]
  4004a0:	9300      	str	r3, [sp, #0]
  4004a2:	4b12      	ldr	r3, [pc, #72]	; (4004ec <I2Cdev_readBytes+0x70>)
  4004a4:	4798      	blx	r3
  4004a6:	ae03      	add	r6, sp, #12
  4004a8:	4b11      	ldr	r3, [pc, #68]	; (4004f0 <I2Cdev_readBytes+0x74>)
  4004aa:	4669      	mov	r1, sp
  4004ac:	4811      	ldr	r0, [pc, #68]	; (4004f4 <I2Cdev_readBytes+0x78>)
  4004ae:	4798      	blx	r3
  4004b0:	4630      	mov	r0, r6
  4004b2:	2100      	movs	r1, #0
  4004b4:	2214      	movs	r2, #20
  4004b6:	47b8      	blx	r7
  4004b8:	2301      	movs	r3, #1
  4004ba:	f88d 501c 	strb.w	r5, [sp, #28]
  4004be:	4d0e      	ldr	r5, [pc, #56]	; (4004f8 <I2Cdev_readBytes+0x7c>)
  4004c0:	f88d 900c 	strb.w	r9, [sp, #12]
  4004c4:	9304      	str	r3, [sp, #16]
  4004c6:	f8cd 8014 	str.w	r8, [sp, #20]
  4004ca:	9406      	str	r4, [sp, #24]
  4004cc:	4809      	ldr	r0, [pc, #36]	; (4004f4 <I2Cdev_readBytes+0x78>)
  4004ce:	4631      	mov	r1, r6
  4004d0:	47a8      	blx	r5
  4004d2:	2800      	cmp	r0, #0
  4004d4:	d1fa      	bne.n	4004cc <I2Cdev_readBytes+0x50>
  4004d6:	b260      	sxtb	r0, r4
  4004d8:	b009      	add	sp, #36	; 0x24
  4004da:	e8bd 83f0 	ldmia.w	sp!, {r4, r5, r6, r7, r8, r9, pc}
  4004de:	bf00      	nop
  4004e0:	00405b27 	.word	0x00405b27
  4004e4:	00061a80 	.word	0x00061a80
  4004e8:	03d09000 	.word	0x03d09000
  4004ec:	00402a75 	.word	0x00402a75
  4004f0:	004001bd 	.word	0x004001bd
  4004f4:	40018000 	.word	0x40018000
  4004f8:	004001fd 	.word	0x004001fd

004004fc <I2Cdev_readByte>:
  4004fc:	b510      	push	{r4, lr}
  4004fe:	4613      	mov	r3, r2
  400500:	4c01      	ldr	r4, [pc, #4]	; (400508 <I2Cdev_readByte+0xc>)
  400502:	2201      	movs	r2, #1
  400504:	47a0      	blx	r4
  400506:	bd10      	pop	{r4, pc}
  400508:	0040047d 	.word	0x0040047d

0040050c <I2Cdev_writeBytes>:
  40050c:	e92d 43f0 	stmdb	sp!, {r4, r5, r6, r7, r8, r9, lr}
  400510:	b089      	sub	sp, #36	; 0x24
  400512:	4604      	mov	r4, r0
  400514:	4689      	mov	r9, r1
  400516:	4617      	mov	r7, r2
  400518:	2100      	movs	r1, #0
  40051a:	220c      	movs	r2, #12
  40051c:	4e14      	ldr	r6, [pc, #80]	; (400570 <I2Cdev_writeBytes+0x64>)
  40051e:	4668      	mov	r0, sp
  400520:	4698      	mov	r8, r3
  400522:	47b0      	blx	r6
  400524:	4b13      	ldr	r3, [pc, #76]	; (400574 <I2Cdev_writeBytes+0x68>)
  400526:	2013      	movs	r0, #19
  400528:	9301      	str	r3, [sp, #4]
  40052a:	4b13      	ldr	r3, [pc, #76]	; (400578 <I2Cdev_writeBytes+0x6c>)
  40052c:	f88d 4008 	strb.w	r4, [sp, #8]
  400530:	9300      	str	r3, [sp, #0]
  400532:	4b12      	ldr	r3, [pc, #72]	; (40057c <I2Cdev_writeBytes+0x70>)
  400534:	4798      	blx	r3
  400536:	ad03      	add	r5, sp, #12
  400538:	4b11      	ldr	r3, [pc, #68]	; (400580 <I2Cdev_writeBytes+0x74>)
  40053a:	4669      	mov	r1, sp
  40053c:	4811      	ldr	r0, [pc, #68]	; (400584 <I2Cdev_writeBytes+0x78>)
  40053e:	4798      	blx	r3
  400540:	4628      	mov	r0, r5
  400542:	2100      	movs	r1, #0
  400544:	2214      	movs	r2, #20
  400546:	47b0      	blx	r6
  400548:	2301      	movs	r3, #1
  40054a:	f88d 401c 	strb.w	r4, [sp, #28]
  40054e:	4c0e      	ldr	r4, [pc, #56]	; (400588 <I2Cdev_writeBytes+0x7c>)
  400550:	f88d 900c 	strb.w	r9, [sp, #12]
  400554:	9304      	str	r3, [sp, #16]
  400556:	f8cd 8014 	str.w	r8, [sp, #20]
  40055a:	9706      	str	r7, [sp, #24]
  40055c:	4809      	ldr	r0, [pc, #36]	; (400584 <I2Cdev_writeBytes+0x78>)
  40055e:	4629      	mov	r1, r5
  400560:	47a0      	blx	r4
  400562:	2800      	cmp	r0, #0
  400564:	d1fa      	bne.n	40055c <I2Cdev_writeBytes+0x50>
  400566:	2001      	movs	r0, #1
  400568:	b009      	add	sp, #36	; 0x24
  40056a:	e8bd 83f0 	ldmia.w	sp!, {r4, r5, r6, r7, r8, r9, pc}
  40056e:	bf00      	nop
  400570:	00405b27 	.word	0x00405b27
  400574:	00061a80 	.word	0x00061a80
  400578:	03d09000 	.word	0x03d09000
  40057c:	00402a75 	.word	0x00402a75
  400580:	004001bd 	.word	0x004001bd
  400584:	40018000 	.word	0x40018000
  400588:	00400279 	.word	0x00400279

0040058c <I2Cdev_writeByte>:
  40058c:	b513      	push	{r0, r1, r4, lr}
  40058e:	ab02      	add	r3, sp, #8
  400590:	f803 2d01 	strb.w	r2, [r3, #-1]!
  400594:	4c01      	ldr	r4, [pc, #4]	; (40059c <I2Cdev_writeByte+0x10>)
  400596:	2201      	movs	r2, #1
  400598:	47a0      	blx	r4
  40059a:	bd1c      	pop	{r2, r3, r4, pc}
  40059c:	0040050d 	.word	0x0040050d

004005a0 <I2Cdev_writeBits>:
  4005a0:	b5f7      	push	{r0, r1, r2, r4, r5, r6, r7, lr}
  4005a2:	4617      	mov	r7, r2
  4005a4:	461c      	mov	r4, r3
  4005a6:	f10d 0207 	add.w	r2, sp, #7
  4005aa:	4b0f      	ldr	r3, [pc, #60]	; (4005e8 <I2Cdev_writeBits+0x48>)
  4005ac:	4606      	mov	r6, r0
  4005ae:	460d      	mov	r5, r1
  4005b0:	4798      	blx	r3
  4005b2:	b1c0      	cbz	r0, 4005e6 <I2Cdev_writeBits+0x46>
  4005b4:	2201      	movs	r2, #1
  4005b6:	1b3b      	subs	r3, r7, r4
  4005b8:	fa02 f404 	lsl.w	r4, r2, r4
  4005bc:	f89d 2020 	ldrb.w	r2, [sp, #32]
  4005c0:	3301      	adds	r3, #1
  4005c2:	3c01      	subs	r4, #1
  4005c4:	fa04 f403 	lsl.w	r4, r4, r3
  4005c8:	fa02 f303 	lsl.w	r3, r2, r3
  4005cc:	f89d 2007 	ldrb.w	r2, [sp, #7]
  4005d0:	b2db      	uxtb	r3, r3
  4005d2:	ea22 0204 	bic.w	r2, r2, r4
  4005d6:	401c      	ands	r4, r3
  4005d8:	4322      	orrs	r2, r4
  4005da:	4630      	mov	r0, r6
  4005dc:	4629      	mov	r1, r5
  4005de:	4b03      	ldr	r3, [pc, #12]	; (4005ec <I2Cdev_writeBits+0x4c>)
  4005e0:	f88d 2007 	strb.w	r2, [sp, #7]
  4005e4:	4798      	blx	r3
  4005e6:	bdfe      	pop	{r1, r2, r3, r4, r5, r6, r7, pc}
  4005e8:	004004fd 	.word	0x004004fd
  4005ec:	0040058d 	.word	0x0040058d

004005f0 <I2Cdev_writeBit>:
  4005f0:	e92d 41f3 	stmdb	sp!, {r0, r1, r4, r5, r6, r7, r8, lr}
  4005f4:	4614      	mov	r4, r2
  4005f6:	4698      	mov	r8, r3
  4005f8:	f10d 0207 	add.w	r2, sp, #7
  4005fc:	4b0c      	ldr	r3, [pc, #48]	; (400630 <I2Cdev_writeBit+0x40>)
  4005fe:	4607      	mov	r7, r0
  400600:	460e      	mov	r6, r1
  400602:	4798      	blx	r3
  400604:	2201      	movs	r2, #1
  400606:	f89d 5007 	ldrb.w	r5, [sp, #7]
  40060a:	fa02 f204 	lsl.w	r2, r2, r4
  40060e:	f1b8 0f00 	cmp.w	r8, #0
  400612:	d002      	beq.n	40061a <I2Cdev_writeBit+0x2a>
  400614:	432a      	orrs	r2, r5
  400616:	b2d2      	uxtb	r2, r2
  400618:	e001      	b.n	40061e <I2Cdev_writeBit+0x2e>
  40061a:	ea25 0202 	bic.w	r2, r5, r2
  40061e:	4638      	mov	r0, r7
  400620:	4631      	mov	r1, r6
  400622:	4b04      	ldr	r3, [pc, #16]	; (400634 <I2Cdev_writeBit+0x44>)
  400624:	f88d 2007 	strb.w	r2, [sp, #7]
  400628:	4798      	blx	r3
  40062a:	e8bd 81fc 	ldmia.w	sp!, {r2, r3, r4, r5, r6, r7, r8, pc}
  40062e:	bf00      	nop
  400630:	004004fd 	.word	0x004004fd
  400634:	0040058d 	.word	0x0040058d

00400638 <MPU9150_setFullScaleGyroRange>:
  400638:	b513      	push	{r0, r1, r4, lr}
  40063a:	4b05      	ldr	r3, [pc, #20]	; (400650 <MPU9150_setFullScaleGyroRange+0x18>)
  40063c:	211b      	movs	r1, #27
  40063e:	781b      	ldrb	r3, [r3, #0]
  400640:	2204      	movs	r2, #4
  400642:	9000      	str	r0, [sp, #0]
  400644:	4c03      	ldr	r4, [pc, #12]	; (400654 <MPU9150_setFullScaleGyroRange+0x1c>)
  400646:	4618      	mov	r0, r3
  400648:	2302      	movs	r3, #2
  40064a:	47a0      	blx	r4
  40064c:	bd1c      	pop	{r2, r3, r4, pc}
  40064e:	bf00      	nop
  400650:	20001056 	.word	0x20001056
  400654:	004005a1 	.word	0x004005a1

00400658 <MPU9150_setFullScaleAccelRange>:
  400658:	b513      	push	{r0, r1, r4, lr}
  40065a:	4b05      	ldr	r3, [pc, #20]	; (400670 <MPU9150_setFullScaleAccelRange+0x18>)
  40065c:	211c      	movs	r1, #28
  40065e:	781b      	ldrb	r3, [r3, #0]
  400660:	2204      	movs	r2, #4
  400662:	9000      	str	r0, [sp, #0]
  400664:	4c03      	ldr	r4, [pc, #12]	; (400674 <MPU9150_setFullScaleAccelRange+0x1c>)
  400666:	4618      	mov	r0, r3
  400668:	2302      	movs	r3, #2
  40066a:	47a0      	blx	r4
  40066c:	bd1c      	pop	{r2, r3, r4, pc}
  40066e:	bf00      	nop
  400670:	20001056 	.word	0x20001056
  400674:	004005a1 	.word	0x004005a1

00400678 <MPU9150_setSleepEnabled>:
  400678:	b510      	push	{r4, lr}
  40067a:	4a04      	ldr	r2, [pc, #16]	; (40068c <MPU9150_setSleepEnabled+0x14>)
  40067c:	4603      	mov	r3, r0
  40067e:	216b      	movs	r1, #107	; 0x6b
  400680:	7810      	ldrb	r0, [r2, #0]
  400682:	4c03      	ldr	r4, [pc, #12]	; (400690 <MPU9150_setSleepEnabled+0x18>)
  400684:	2206      	movs	r2, #6
  400686:	47a0      	blx	r4
  400688:	bd10      	pop	{r4, pc}
  40068a:	bf00      	nop
  40068c:	20001056 	.word	0x20001056
  400690:	004005f1 	.word	0x004005f1

00400694 <MPU9150_setClockSource>:
  400694:	b513      	push	{r0, r1, r4, lr}
  400696:	4b05      	ldr	r3, [pc, #20]	; (4006ac <MPU9150_setClockSource+0x18>)
  400698:	216b      	movs	r1, #107	; 0x6b
  40069a:	781b      	ldrb	r3, [r3, #0]
  40069c:	2202      	movs	r2, #2
  40069e:	9000      	str	r0, [sp, #0]
  4006a0:	4c03      	ldr	r4, [pc, #12]	; (4006b0 <MPU9150_setClockSource+0x1c>)
  4006a2:	4618      	mov	r0, r3
  4006a4:	2303      	movs	r3, #3
  4006a6:	47a0      	blx	r4
  4006a8:	bd1c      	pop	{r2, r3, r4, pc}
  4006aa:	bf00      	nop
  4006ac:	20001056 	.word	0x20001056
  4006b0:	004005a1 	.word	0x004005a1

004006b4 <MPU9150_initialize>:
  4006b4:	b508      	push	{r3, lr}
  4006b6:	4b08      	ldr	r3, [pc, #32]	; (4006d8 <MPU9150_initialize+0x24>)
  4006b8:	2268      	movs	r2, #104	; 0x68
  4006ba:	701a      	strb	r2, [r3, #0]
  4006bc:	2001      	movs	r0, #1
  4006be:	4b07      	ldr	r3, [pc, #28]	; (4006dc <MPU9150_initialize+0x28>)
  4006c0:	4798      	blx	r3
  4006c2:	2000      	movs	r0, #0
  4006c4:	4b06      	ldr	r3, [pc, #24]	; (4006e0 <MPU9150_initialize+0x2c>)
  4006c6:	4798      	blx	r3
  4006c8:	2000      	movs	r0, #0
  4006ca:	4b06      	ldr	r3, [pc, #24]	; (4006e4 <MPU9150_initialize+0x30>)
  4006cc:	4798      	blx	r3
  4006ce:	2000      	movs	r0, #0
  4006d0:	4b05      	ldr	r3, [pc, #20]	; (4006e8 <MPU9150_initialize+0x34>)
  4006d2:	4798      	blx	r3
  4006d4:	bd08      	pop	{r3, pc}
  4006d6:	bf00      	nop
  4006d8:	20001056 	.word	0x20001056
  4006dc:	00400695 	.word	0x00400695
  4006e0:	00400639 	.word	0x00400639
  4006e4:	00400659 	.word	0x00400659
  4006e8:	00400679 	.word	0x00400679

004006ec <die>:
  4006ec:	b508      	push	{r3, lr}
  4006ee:	4601      	mov	r1, r0
  4006f0:	4b01      	ldr	r3, [pc, #4]	; (4006f8 <die+0xc>)
  4006f2:	4802      	ldr	r0, [pc, #8]	; (4006fc <die+0x10>)
  4006f4:	4798      	blx	r3
  4006f6:	e7fe      	b.n	4006f6 <die+0xa>
  4006f8:	00405b53 	.word	0x00405b53
  4006fc:	00409d64 	.word	0x00409d64

00400700 <ZP_CreateFile>:
  400700:	b573      	push	{r0, r1, r4, r5, r6, lr}
  400702:	220a      	movs	r2, #10
  400704:	480e      	ldr	r0, [pc, #56]	; (400740 <ZP_CreateFile+0x40>)
  400706:	490f      	ldr	r1, [pc, #60]	; (400744 <ZP_CreateFile+0x44>)
  400708:	4b0f      	ldr	r3, [pc, #60]	; (400748 <ZP_CreateFile+0x48>)
  40070a:	4798      	blx	r3
  40070c:	4a0f      	ldr	r2, [pc, #60]	; (40074c <ZP_CreateFile+0x4c>)
  40070e:	7010      	strb	r0, [r2, #0]
  400710:	b108      	cbz	r0, 400716 <ZP_CreateFile+0x16>
  400712:	4b0f      	ldr	r3, [pc, #60]	; (400750 <ZP_CreateFile+0x50>)
  400714:	4798      	blx	r3
  400716:	ac02      	add	r4, sp, #8
  400718:	4e0e      	ldr	r6, [pc, #56]	; (400754 <ZP_CreateFile+0x54>)
  40071a:	f824 0d02 	strh.w	r0, [r4, #-2]!
  40071e:	2508      	movs	r5, #8
  400720:	2202      	movs	r2, #2
  400722:	4b0d      	ldr	r3, [pc, #52]	; (400758 <ZP_CreateFile+0x58>)
  400724:	4806      	ldr	r0, [pc, #24]	; (400740 <ZP_CreateFile+0x40>)
  400726:	4621      	mov	r1, r4
  400728:	47b0      	blx	r6
  40072a:	f8bd 3006 	ldrh.w	r3, [sp, #6]
  40072e:	3d01      	subs	r5, #1
  400730:	3301      	adds	r3, #1
  400732:	f015 05ff 	ands.w	r5, r5, #255	; 0xff
  400736:	f8ad 3006 	strh.w	r3, [sp, #6]
  40073a:	d1f1      	bne.n	400720 <ZP_CreateFile+0x20>
  40073c:	bd7c      	pop	{r2, r3, r4, r5, r6, pc}
  40073e:	bf00      	nop
  400740:	20001058 	.word	0x20001058
  400744:	00409d78 	.word	0x00409d78
  400748:	004051b9 	.word	0x004051b9
  40074c:	20001718 	.word	0x20001718
  400750:	004006ed 	.word	0x004006ed
  400754:	00405329 	.word	0x00405329
  400758:	200016f0 	.word	0x200016f0

0040075c <ZP_Close>:
  40075c:	b508      	push	{r3, lr}
  40075e:	4803      	ldr	r0, [pc, #12]	; (40076c <ZP_Close+0x10>)
  400760:	4b03      	ldr	r3, [pc, #12]	; (400770 <ZP_Close+0x14>)
  400762:	4798      	blx	r3
  400764:	4b03      	ldr	r3, [pc, #12]	; (400774 <ZP_Close+0x18>)
  400766:	7018      	strb	r0, [r3, #0]
  400768:	bd08      	pop	{r3, pc}
  40076a:	bf00      	nop
  40076c:	20001058 	.word	0x20001058
  400770:	004055b1 	.word	0x004055b1
  400774:	20001718 	.word	0x20001718

00400778 <SysTick_Handler>:
  400778:	4b02      	ldr	r3, [pc, #8]	; (400784 <SysTick_Handler+0xc>)
  40077a:	681a      	ldr	r2, [r3, #0]
  40077c:	3201      	adds	r2, #1
  40077e:	601a      	str	r2, [r3, #0]
  400780:	4770      	bx	lr
  400782:	bf00      	nop
  400784:	200009f0 	.word	0x200009f0

00400788 <Zepplin_Init>:
  400788:	b5f0      	push	{r4, r5, r6, r7, lr}
  40078a:	483a      	ldr	r0, [pc, #232]	; (400874 <Zepplin_Init+0xec>)
  40078c:	b08b      	sub	sp, #44	; 0x2c
  40078e:	4d3a      	ldr	r5, [pc, #232]	; (400878 <Zepplin_Init+0xf0>)
  400790:	47a8      	blx	r5
  400792:	4b3a      	ldr	r3, [pc, #232]	; (40087c <Zepplin_Init+0xf4>)
  400794:	f64f 12ff 	movw	r2, #63999	; 0xf9ff
  400798:	605a      	str	r2, [r3, #4]
  40079a:	4a39      	ldr	r2, [pc, #228]	; (400880 <Zepplin_Init+0xf8>)
  40079c:	21f0      	movs	r1, #240	; 0xf0
  40079e:	f882 1023 	strb.w	r1, [r2, #35]	; 0x23
  4007a2:	2400      	movs	r4, #0
  4007a4:	2207      	movs	r2, #7
  4007a6:	609c      	str	r4, [r3, #8]
  4007a8:	4836      	ldr	r0, [pc, #216]	; (400884 <Zepplin_Init+0xfc>)
  4007aa:	601a      	str	r2, [r3, #0]
  4007ac:	47a8      	blx	r5
  4007ae:	4836      	ldr	r0, [pc, #216]	; (400888 <Zepplin_Init+0x100>)
  4007b0:	47a8      	blx	r5
  4007b2:	4836      	ldr	r0, [pc, #216]	; (40088c <Zepplin_Init+0x104>)
  4007b4:	47a8      	blx	r5
  4007b6:	4b36      	ldr	r3, [pc, #216]	; (400890 <Zepplin_Init+0x108>)
  4007b8:	4798      	blx	r3
  4007ba:	4e36      	ldr	r6, [pc, #216]	; (400894 <Zepplin_Init+0x10c>)
  4007bc:	4f36      	ldr	r7, [pc, #216]	; (400898 <Zepplin_Init+0x110>)
  4007be:	e005      	b.n	4007cc <Zepplin_Init+0x44>
  4007c0:	2c01      	cmp	r4, #1
  4007c2:	d102      	bne.n	4007ca <Zepplin_Init+0x42>
  4007c4:	4835      	ldr	r0, [pc, #212]	; (40089c <Zepplin_Init+0x114>)
  4007c6:	4b2c      	ldr	r3, [pc, #176]	; (400878 <Zepplin_Init+0xf0>)
  4007c8:	4798      	blx	r3
  4007ca:	2402      	movs	r4, #2
  4007cc:	2000      	movs	r0, #0
  4007ce:	47b0      	blx	r6
  4007d0:	4b33      	ldr	r3, [pc, #204]	; (4008a0 <Zepplin_Init+0x118>)
  4007d2:	2801      	cmp	r0, #1
  4007d4:	7018      	strb	r0, [r3, #0]
  4007d6:	d007      	beq.n	4007e8 <Zepplin_Init+0x60>
  4007d8:	4b31      	ldr	r3, [pc, #196]	; (4008a0 <Zepplin_Init+0x118>)
  4007da:	2c00      	cmp	r4, #0
  4007dc:	bf08      	it	eq
  4007de:	2401      	moveq	r4, #1
  4007e0:	781d      	ldrb	r5, [r3, #0]
  4007e2:	2d00      	cmp	r5, #0
  4007e4:	d1ec      	bne.n	4007c0 <Zepplin_Init+0x38>
  4007e6:	e009      	b.n	4007fc <Zepplin_Init+0x74>
  4007e8:	482e      	ldr	r0, [pc, #184]	; (4008a4 <Zepplin_Init+0x11c>)
  4007ea:	4d2f      	ldr	r5, [pc, #188]	; (4008a8 <Zepplin_Init+0x120>)
  4007ec:	47a8      	blx	r5
  4007ee:	482f      	ldr	r0, [pc, #188]	; (4008ac <Zepplin_Init+0x124>)
  4007f0:	47a8      	blx	r5
  4007f2:	2000      	movs	r0, #0
  4007f4:	47b8      	blx	r7
  4007f6:	2802      	cmp	r0, #2
  4007f8:	d1fb      	bne.n	4007f2 <Zepplin_Init+0x6a>
  4007fa:	e7ed      	b.n	4007d8 <Zepplin_Init+0x50>
  4007fc:	482c      	ldr	r0, [pc, #176]	; (4008b0 <Zepplin_Init+0x128>)
  4007fe:	4e1e      	ldr	r6, [pc, #120]	; (400878 <Zepplin_Init+0xf0>)
  400800:	47b0      	blx	r6
  400802:	4c29      	ldr	r4, [pc, #164]	; (4008a8 <Zepplin_Init+0x120>)
  400804:	482b      	ldr	r0, [pc, #172]	; (4008b4 <Zepplin_Init+0x12c>)
  400806:	47a0      	blx	r4
  400808:	4629      	mov	r1, r5
  40080a:	f44f 720c 	mov.w	r2, #560	; 0x230
  40080e:	4b2a      	ldr	r3, [pc, #168]	; (4008b8 <Zepplin_Init+0x130>)
  400810:	482a      	ldr	r0, [pc, #168]	; (4008bc <Zepplin_Init+0x134>)
  400812:	4798      	blx	r3
  400814:	4929      	ldr	r1, [pc, #164]	; (4008bc <Zepplin_Init+0x134>)
  400816:	4b2a      	ldr	r3, [pc, #168]	; (4008c0 <Zepplin_Init+0x138>)
  400818:	4628      	mov	r0, r5
  40081a:	4798      	blx	r3
  40081c:	4b29      	ldr	r3, [pc, #164]	; (4008c4 <Zepplin_Init+0x13c>)
  40081e:	280b      	cmp	r0, #11
  400820:	4601      	mov	r1, r0
  400822:	7018      	strb	r0, [r3, #0]
  400824:	d101      	bne.n	40082a <Zepplin_Init+0xa2>
  400826:	4828      	ldr	r0, [pc, #160]	; (4008c8 <Zepplin_Init+0x140>)
  400828:	47a0      	blx	r4
  40082a:	4828      	ldr	r0, [pc, #160]	; (4008cc <Zepplin_Init+0x144>)
  40082c:	47b0      	blx	r6
  40082e:	4b28      	ldr	r3, [pc, #160]	; (4008d0 <Zepplin_Init+0x148>)
  400830:	4669      	mov	r1, sp
  400832:	881a      	ldrh	r2, [r3, #0]
  400834:	789b      	ldrb	r3, [r3, #2]
  400836:	f8ad 2000 	strh.w	r2, [sp]
  40083a:	f88d 3002 	strb.w	r3, [sp, #2]
  40083e:	4b25      	ldr	r3, [pc, #148]	; (4008d4 <Zepplin_Init+0x14c>)
  400840:	2230      	movs	r2, #48	; 0x30
  400842:	4d25      	ldr	r5, [pc, #148]	; (4008d8 <Zepplin_Init+0x150>)
  400844:	a801      	add	r0, sp, #4
  400846:	701a      	strb	r2, [r3, #0]
  400848:	47a8      	blx	r5
  40084a:	4c1e      	ldr	r4, [pc, #120]	; (4008c4 <Zepplin_Init+0x13c>)
  40084c:	4923      	ldr	r1, [pc, #140]	; (4008dc <Zepplin_Init+0x154>)
  40084e:	7020      	strb	r0, [r4, #0]
  400850:	4823      	ldr	r0, [pc, #140]	; (4008e0 <Zepplin_Init+0x158>)
  400852:	47a8      	blx	r5
  400854:	2805      	cmp	r0, #5
  400856:	d106      	bne.n	400866 <Zepplin_Init+0xde>
  400858:	4b22      	ldr	r3, [pc, #136]	; (4008e4 <Zepplin_Init+0x15c>)
  40085a:	4820      	ldr	r0, [pc, #128]	; (4008dc <Zepplin_Init+0x154>)
  40085c:	4798      	blx	r3
  40085e:	4b06      	ldr	r3, [pc, #24]	; (400878 <Zepplin_Init+0xf0>)
  400860:	7020      	strb	r0, [r4, #0]
  400862:	4821      	ldr	r0, [pc, #132]	; (4008e8 <Zepplin_Init+0x160>)
  400864:	4798      	blx	r3
  400866:	7821      	ldrb	r1, [r4, #0]
  400868:	4b0f      	ldr	r3, [pc, #60]	; (4008a8 <Zepplin_Init+0x120>)
  40086a:	4820      	ldr	r0, [pc, #128]	; (4008ec <Zepplin_Init+0x164>)
  40086c:	4798      	blx	r3
  40086e:	b00b      	add	sp, #44	; 0x2c
  400870:	bdf0      	pop	{r4, r5, r6, r7, pc}
  400872:	bf00      	nop
  400874:	00409da8 	.word	0x00409da8
  400878:	00405bd9 	.word	0x00405bd9
  40087c:	e000e010 	.word	0xe000e010
  400880:	e000ed00 	.word	0xe000ed00
  400884:	00409dc3 	.word	0x00409dc3
  400888:	00409dd1 	.word	0x00409dd1
  40088c:	00409de4 	.word	0x00409de4
  400890:	00400b65 	.word	0x00400b65
  400894:	004058a9 	.word	0x004058a9
  400898:	00400b91 	.word	0x00400b91
  40089c:	00409dfb 	.word	0x00409dfb
  4008a0:	20001719 	.word	0x20001719
  4008a4:	00409e1b 	.word	0x00409e1b
  4008a8:	00405b53 	.word	0x00405b53
  4008ac:	00409e2f 	.word	0x00409e2f
  4008b0:	00409e55 	.word	0x00409e55
  4008b4:	00409e63 	.word	0x00409e63
  4008b8:	00405b27 	.word	0x00405b27
  4008bc:	2000129c 	.word	0x2000129c
  4008c0:	00405199 	.word	0x00405199
  4008c4:	20001718 	.word	0x20001718
  4008c8:	00409e74 	.word	0x00409e74
  4008cc:	00409e84 	.word	0x00409e84
  4008d0:	00409ead 	.word	0x00409ead
  4008d4:	20000010 	.word	0x20000010
  4008d8:	004055c5 	.word	0x004055c5
  4008dc:	00409d9e 	.word	0x00409d9e
  4008e0:	200016f4 	.word	0x200016f4
  4008e4:	00405645 	.word	0x00405645
  4008e8:	00409e91 	.word	0x00409e91
  4008ec:	00409ea5 	.word	0x00409ea5

004008f0 <Zepplin_Button>:
  4008f0:	4b0f      	ldr	r3, [pc, #60]	; (400930 <Zepplin_Button+0x40>)
  4008f2:	b530      	push	{r4, r5, lr}
  4008f4:	6bd8      	ldr	r0, [r3, #60]	; 0x3c
  4008f6:	4b0f      	ldr	r3, [pc, #60]	; (400934 <Zepplin_Button+0x44>)
  4008f8:	f010 0001 	ands.w	r0, r0, #1
  4008fc:	781a      	ldrb	r2, [r3, #0]
  4008fe:	d10e      	bne.n	40091e <Zepplin_Button+0x2e>
  400900:	4d0d      	ldr	r5, [pc, #52]	; (400938 <Zepplin_Button+0x48>)
  400902:	4c0e      	ldr	r4, [pc, #56]	; (40093c <Zepplin_Button+0x4c>)
  400904:	490e      	ldr	r1, [pc, #56]	; (400940 <Zepplin_Button+0x50>)
  400906:	b122      	cbz	r2, 400912 <Zepplin_Button+0x22>
  400908:	682a      	ldr	r2, [r5, #0]
  40090a:	7018      	strb	r0, [r3, #0]
  40090c:	6022      	str	r2, [r4, #0]
  40090e:	6008      	str	r0, [r1, #0]
  400910:	bd30      	pop	{r4, r5, pc}
  400912:	6828      	ldr	r0, [r5, #0]
  400914:	6823      	ldr	r3, [r4, #0]
  400916:	1ac3      	subs	r3, r0, r3
  400918:	600b      	str	r3, [r1, #0]
  40091a:	4610      	mov	r0, r2
  40091c:	bd30      	pop	{r4, r5, pc}
  40091e:	b11a      	cbz	r2, 400928 <Zepplin_Button+0x38>
  400920:	4b07      	ldr	r3, [pc, #28]	; (400940 <Zepplin_Button+0x50>)
  400922:	2000      	movs	r0, #0
  400924:	6018      	str	r0, [r3, #0]
  400926:	bd30      	pop	{r4, r5, pc}
  400928:	2001      	movs	r0, #1
  40092a:	7018      	strb	r0, [r3, #0]
  40092c:	bd30      	pop	{r4, r5, pc}
  40092e:	bf00      	nop
  400930:	400e0e00 	.word	0x400e0e00
  400934:	20000021 	.word	0x20000021
  400938:	200009f0 	.word	0x200009f0
  40093c:	20000024 	.word	0x20000024
  400940:	200009ec 	.word	0x200009ec

00400944 <Zepplin_ButtonHandler>:
  400944:	b510      	push	{r4, lr}
  400946:	4b15      	ldr	r3, [pc, #84]	; (40099c <Zepplin_ButtonHandler+0x58>)
  400948:	4798      	blx	r3
  40094a:	4c15      	ldr	r4, [pc, #84]	; (4009a0 <Zepplin_ButtonHandler+0x5c>)
  40094c:	6823      	ldr	r3, [r4, #0]
  40094e:	b188      	cbz	r0, 400974 <Zepplin_ButtonHandler+0x30>
  400950:	3b33      	subs	r3, #51	; 0x33
  400952:	f240 729c 	movw	r2, #1948	; 0x79c
  400956:	4293      	cmp	r3, r2
  400958:	d802      	bhi.n	400960 <Zepplin_ButtonHandler+0x1c>
  40095a:	4812      	ldr	r0, [pc, #72]	; (4009a4 <Zepplin_ButtonHandler+0x60>)
  40095c:	4b12      	ldr	r3, [pc, #72]	; (4009a8 <Zepplin_ButtonHandler+0x64>)
  40095e:	4798      	blx	r3
  400960:	6822      	ldr	r2, [r4, #0]
  400962:	f46f 61fa 	mvn.w	r1, #2000	; 0x7d0
  400966:	1852      	adds	r2, r2, r1
  400968:	f640 33b6 	movw	r3, #2998	; 0xbb6
  40096c:	429a      	cmp	r2, r3
  40096e:	d813      	bhi.n	400998 <Zepplin_ButtonHandler+0x54>
  400970:	480e      	ldr	r0, [pc, #56]	; (4009ac <Zepplin_ButtonHandler+0x68>)
  400972:	e00f      	b.n	400994 <Zepplin_ButtonHandler+0x50>
  400974:	f46f 62fa 	mvn.w	r2, #2000	; 0x7d0
  400978:	189b      	adds	r3, r3, r2
  40097a:	f640 32b6 	movw	r2, #2998	; 0xbb6
  40097e:	4293      	cmp	r3, r2
  400980:	d802      	bhi.n	400988 <Zepplin_ButtonHandler+0x44>
  400982:	480b      	ldr	r0, [pc, #44]	; (4009b0 <Zepplin_ButtonHandler+0x6c>)
  400984:	4b08      	ldr	r3, [pc, #32]	; (4009a8 <Zepplin_ButtonHandler+0x64>)
  400986:	4798      	blx	r3
  400988:	6822      	ldr	r2, [r4, #0]
  40098a:	f241 3388 	movw	r3, #5000	; 0x1388
  40098e:	429a      	cmp	r2, r3
  400990:	d902      	bls.n	400998 <Zepplin_ButtonHandler+0x54>
  400992:	4808      	ldr	r0, [pc, #32]	; (4009b4 <Zepplin_ButtonHandler+0x70>)
  400994:	4b04      	ldr	r3, [pc, #16]	; (4009a8 <Zepplin_ButtonHandler+0x64>)
  400996:	4798      	blx	r3
  400998:	bd10      	pop	{r4, pc}
  40099a:	bf00      	nop
  40099c:	004008f1 	.word	0x004008f1
  4009a0:	200009ec 	.word	0x200009ec
  4009a4:	00409eb0 	.word	0x00409eb0
  4009a8:	00405bd9 	.word	0x00405bd9
  4009ac:	00409ebe 	.word	0x00409ebe
  4009b0:	00409ec9 	.word	0x00409ec9
  4009b4:	00409ed2 	.word	0x00409ed2

004009b8 <Zepplin_Loop>:
  4009b8:	b508      	push	{r3, lr}
  4009ba:	4b01      	ldr	r3, [pc, #4]	; (4009c0 <Zepplin_Loop+0x8>)
  4009bc:	4798      	blx	r3
  4009be:	bd08      	pop	{r3, pc}
  4009c0:	00400945 	.word	0x00400945

004009c4 <SDMMC_UNSTUFF_BITS>:
  4009c4:	b570      	push	{r4, r5, r6, lr}
  4009c6:	1a89      	subs	r1, r1, r2
  4009c8:	2408      	movs	r4, #8
  4009ca:	3107      	adds	r1, #7
  4009cc:	fb91 f1f4 	sdiv	r1, r1, r4
  4009d0:	f002 0207 	and.w	r2, r2, #7
  4009d4:	1840      	adds	r0, r0, r1
  4009d6:	f810 1c01 	ldrb.w	r1, [r0, #-1]
  4009da:	18d4      	adds	r4, r2, r3
  4009dc:	2c08      	cmp	r4, #8
  4009de:	fa41 f102 	asr.w	r1, r1, r2
  4009e2:	dd10      	ble.n	400a06 <SDMMC_UNSTUFF_BITS+0x42>
  4009e4:	f810 6c02 	ldrb.w	r6, [r0, #-2]
  4009e8:	f1c2 0508 	rsb	r5, r2, #8
  4009ec:	fa06 f505 	lsl.w	r5, r6, r5
  4009f0:	2c10      	cmp	r4, #16
  4009f2:	ea41 0105 	orr.w	r1, r1, r5
  4009f6:	dd06      	ble.n	400a06 <SDMMC_UNSTUFF_BITS+0x42>
  4009f8:	f810 0c03 	ldrb.w	r0, [r0, #-3]
  4009fc:	f1c2 0210 	rsb	r2, r2, #16
  400a00:	fa00 f202 	lsl.w	r2, r0, r2
  400a04:	4311      	orrs	r1, r2
  400a06:	2001      	movs	r0, #1
  400a08:	fa00 f303 	lsl.w	r3, r0, r3
  400a0c:	1e58      	subs	r0, r3, #1
  400a0e:	4008      	ands	r0, r1
  400a10:	bd70      	pop	{r4, r5, r6, pc}
	...

00400a14 <sd_mmc_deselect_slot>:
  400a14:	b508      	push	{r3, lr}
  400a16:	4b03      	ldr	r3, [pc, #12]	; (400a24 <sd_mmc_deselect_slot+0x10>)
  400a18:	7818      	ldrb	r0, [r3, #0]
  400a1a:	b908      	cbnz	r0, 400a20 <sd_mmc_deselect_slot+0xc>
  400a1c:	4b02      	ldr	r3, [pc, #8]	; (400a28 <sd_mmc_deselect_slot+0x14>)
  400a1e:	4798      	blx	r3
  400a20:	bd08      	pop	{r3, pc}
  400a22:	bf00      	nop
  400a24:	200009fe 	.word	0x200009fe
  400a28:	00402429 	.word	0x00402429

00400a2c <sd_mmc_configure_slot>:
  400a2c:	b510      	push	{r4, lr}
  400a2e:	4b07      	ldr	r3, [pc, #28]	; (400a4c <sd_mmc_configure_slot+0x20>)
  400a30:	4907      	ldr	r1, [pc, #28]	; (400a50 <sd_mmc_configure_slot+0x24>)
  400a32:	681a      	ldr	r2, [r3, #0]
  400a34:	7808      	ldrb	r0, [r1, #0]
  400a36:	f892 3022 	ldrb.w	r3, [r2, #34]	; 0x22
  400a3a:	6811      	ldr	r1, [r2, #0]
  400a3c:	3300      	adds	r3, #0
  400a3e:	7c52      	ldrb	r2, [r2, #17]
  400a40:	bf18      	it	ne
  400a42:	2301      	movne	r3, #1
  400a44:	4c03      	ldr	r4, [pc, #12]	; (400a54 <sd_mmc_configure_slot+0x28>)
  400a46:	47a0      	blx	r4
  400a48:	bd10      	pop	{r4, pc}
  400a4a:	bf00      	nop
  400a4c:	200009f8 	.word	0x200009f8
  400a50:	200009fe 	.word	0x200009fe
  400a54:	004023c5 	.word	0x004023c5

00400a58 <sd_mmc_select_slot>:
  400a58:	b538      	push	{r3, r4, r5, lr}
  400a5a:	2800      	cmp	r0, #0
  400a5c:	d149      	bne.n	400af2 <sd_mmc_select_slot+0x9a>
  400a5e:	492c      	ldr	r1, [pc, #176]	; (400b10 <sd_mmc_select_slot+0xb8>)
  400a60:	688c      	ldr	r4, [r1, #8]
  400a62:	460d      	mov	r5, r1
  400a64:	0963      	lsrs	r3, r4, #5
  400a66:	f503 1300 	add.w	r3, r3, #2097152	; 0x200000
  400a6a:	f203 7307 	addw	r3, r3, #1799	; 0x707
  400a6e:	025b      	lsls	r3, r3, #9
  400a70:	6bda      	ldr	r2, [r3, #60]	; 0x3c
  400a72:	f004 041f 	and.w	r4, r4, #31
  400a76:	2301      	movs	r3, #1
  400a78:	fa03 f404 	lsl.w	r4, r3, r4
  400a7c:	4014      	ands	r4, r2
  400a7e:	7b8a      	ldrb	r2, [r1, #14]
  400a80:	d009      	beq.n	400a96 <sd_mmc_select_slot+0x3e>
  400a82:	429a      	cmp	r2, r3
  400a84:	d104      	bne.n	400a90 <sd_mmc_select_slot+0x38>
  400a86:	4b23      	ldr	r3, [pc, #140]	; (400b14 <sd_mmc_select_slot+0xbc>)
  400a88:	781b      	ldrb	r3, [r3, #0]
  400a8a:	b10b      	cbz	r3, 400a90 <sd_mmc_select_slot+0x38>
  400a8c:	4b22      	ldr	r3, [pc, #136]	; (400b18 <sd_mmc_select_slot+0xc0>)
  400a8e:	6018      	str	r0, [r3, #0]
  400a90:	2304      	movs	r3, #4
  400a92:	73ab      	strb	r3, [r5, #14]
  400a94:	e02b      	b.n	400aee <sd_mmc_select_slot+0x96>
  400a96:	2a04      	cmp	r2, #4
  400a98:	d10e      	bne.n	400ab8 <sd_mmc_select_slot+0x60>
  400a9a:	4a1f      	ldr	r2, [pc, #124]	; (400b18 <sd_mmc_select_slot+0xc0>)
  400a9c:	738b      	strb	r3, [r1, #14]
  400a9e:	6810      	ldr	r0, [r2, #0]
  400aa0:	491c      	ldr	r1, [pc, #112]	; (400b14 <sd_mmc_select_slot+0xbc>)
  400aa2:	b920      	cbnz	r0, 400aae <sd_mmc_select_slot+0x56>
  400aa4:	700b      	strb	r3, [r1, #0]
  400aa6:	491d      	ldr	r1, [pc, #116]	; (400b1c <sd_mmc_select_slot+0xc4>)
  400aa8:	6051      	str	r1, [r2, #4]
  400aaa:	6013      	str	r3, [r2, #0]
  400aac:	e01f      	b.n	400aee <sd_mmc_select_slot+0x96>
  400aae:	481c      	ldr	r0, [pc, #112]	; (400b20 <sd_mmc_select_slot+0xc8>)
  400ab0:	4b1c      	ldr	r3, [pc, #112]	; (400b24 <sd_mmc_select_slot+0xcc>)
  400ab2:	700c      	strb	r4, [r1, #0]
  400ab4:	4798      	blx	r3
  400ab6:	e01a      	b.n	400aee <sd_mmc_select_slot+0x96>
  400ab8:	2a01      	cmp	r2, #1
  400aba:	d108      	bne.n	400ace <sd_mmc_select_slot+0x76>
  400abc:	4b15      	ldr	r3, [pc, #84]	; (400b14 <sd_mmc_select_slot+0xbc>)
  400abe:	781b      	ldrb	r3, [r3, #0]
  400ac0:	b1cb      	cbz	r3, 400af6 <sd_mmc_select_slot+0x9e>
  400ac2:	4b15      	ldr	r3, [pc, #84]	; (400b18 <sd_mmc_select_slot+0xc0>)
  400ac4:	681a      	ldr	r2, [r3, #0]
  400ac6:	03d2      	lsls	r2, r2, #15
  400ac8:	d511      	bpl.n	400aee <sd_mmc_select_slot+0x96>
  400aca:	601c      	str	r4, [r3, #0]
  400acc:	e013      	b.n	400af6 <sd_mmc_select_slot+0x9e>
  400ace:	4c10      	ldr	r4, [pc, #64]	; (400b10 <sd_mmc_select_slot+0xb8>)
  400ad0:	7ba0      	ldrb	r0, [r4, #14]
  400ad2:	2803      	cmp	r0, #3
  400ad4:	d01a      	beq.n	400b0c <sd_mmc_select_slot+0xb4>
  400ad6:	4b14      	ldr	r3, [pc, #80]	; (400b28 <sd_mmc_select_slot+0xd0>)
  400ad8:	2200      	movs	r2, #0
  400ada:	701a      	strb	r2, [r3, #0]
  400adc:	4b13      	ldr	r3, [pc, #76]	; (400b2c <sd_mmc_select_slot+0xd4>)
  400ade:	601c      	str	r4, [r3, #0]
  400ae0:	4b13      	ldr	r3, [pc, #76]	; (400b30 <sd_mmc_select_slot+0xd8>)
  400ae2:	4798      	blx	r3
  400ae4:	7ba0      	ldrb	r0, [r4, #14]
  400ae6:	1e83      	subs	r3, r0, #2
  400ae8:	4258      	negs	r0, r3
  400aea:	4158      	adcs	r0, r3
  400aec:	bd38      	pop	{r3, r4, r5, pc}
  400aee:	2002      	movs	r0, #2
  400af0:	bd38      	pop	{r3, r4, r5, pc}
  400af2:	2004      	movs	r0, #4
  400af4:	bd38      	pop	{r3, r4, r5, pc}
  400af6:	4b06      	ldr	r3, [pc, #24]	; (400b10 <sd_mmc_select_slot+0xb8>)
  400af8:	2202      	movs	r2, #2
  400afa:	739a      	strb	r2, [r3, #14]
  400afc:	4a0d      	ldr	r2, [pc, #52]	; (400b34 <sd_mmc_select_slot+0xdc>)
  400afe:	601a      	str	r2, [r3, #0]
  400b00:	2201      	movs	r2, #1
  400b02:	745a      	strb	r2, [r3, #17]
  400b04:	2200      	movs	r2, #0
  400b06:	f883 2022 	strb.w	r2, [r3, #34]	; 0x22
  400b0a:	e7e0      	b.n	400ace <sd_mmc_select_slot+0x76>
  400b0c:	bd38      	pop	{r3, r4, r5, pc}
  400b0e:	bf00      	nop
  400b10:	20000028 	.word	0x20000028
  400b14:	200009f6 	.word	0x200009f6
  400b18:	e000e010 	.word	0xe000e010
  400b1c:	007a1200 	.word	0x007a1200
  400b20:	0045c125 	.word	0x0045c125
  400b24:	20000001 	.word	0x20000001
  400b28:	200009fe 	.word	0x200009fe
  400b2c:	200009f8 	.word	0x200009f8
  400b30:	00400a2d 	.word	0x00400a2d
  400b34:	00061a80 	.word	0x00061a80

00400b38 <sd_mmc_cmd9_mci>:
  400b38:	b510      	push	{r4, lr}
  400b3a:	4c07      	ldr	r4, [pc, #28]	; (400b58 <sd_mmc_cmd9_mci+0x20>)
  400b3c:	f641 3009 	movw	r0, #6921	; 0x1b09
  400b40:	6823      	ldr	r3, [r4, #0]
  400b42:	8999      	ldrh	r1, [r3, #12]
  400b44:	4b05      	ldr	r3, [pc, #20]	; (400b5c <sd_mmc_cmd9_mci+0x24>)
  400b46:	0409      	lsls	r1, r1, #16
  400b48:	4798      	blx	r3
  400b4a:	b120      	cbz	r0, 400b56 <sd_mmc_cmd9_mci+0x1e>
  400b4c:	6820      	ldr	r0, [r4, #0]
  400b4e:	4b04      	ldr	r3, [pc, #16]	; (400b60 <sd_mmc_cmd9_mci+0x28>)
  400b50:	3012      	adds	r0, #18
  400b52:	4798      	blx	r3
  400b54:	2001      	movs	r0, #1
  400b56:	bd10      	pop	{r4, pc}
  400b58:	200009f8 	.word	0x200009f8
  400b5c:	00402449 	.word	0x00402449
  400b60:	0040247d 	.word	0x0040247d

00400b64 <sd_mmc_init>:
  400b64:	b508      	push	{r3, lr}
  400b66:	200b      	movs	r0, #11
  400b68:	4b05      	ldr	r3, [pc, #20]	; (400b80 <sd_mmc_init+0x1c>)
  400b6a:	4798      	blx	r3
  400b6c:	4b05      	ldr	r3, [pc, #20]	; (400b84 <sd_mmc_init+0x20>)
  400b6e:	2204      	movs	r2, #4
  400b70:	739a      	strb	r2, [r3, #14]
  400b72:	4b05      	ldr	r3, [pc, #20]	; (400b88 <sd_mmc_init+0x24>)
  400b74:	22ff      	movs	r2, #255	; 0xff
  400b76:	701a      	strb	r2, [r3, #0]
  400b78:	4b04      	ldr	r3, [pc, #16]	; (400b8c <sd_mmc_init+0x28>)
  400b7a:	4798      	blx	r3
  400b7c:	bd08      	pop	{r3, pc}
  400b7e:	bf00      	nop
  400b80:	00402a75 	.word	0x00402a75
  400b84:	20000028 	.word	0x20000028
  400b88:	200009fe 	.word	0x200009fe
  400b8c:	0040238d 	.word	0x0040238d

00400b90 <sd_mmc_check>:
  400b90:	e92d 43f0 	stmdb	sp!, {r4, r5, r6, r7, r8, r9, lr}
  400b94:	4b59      	ldr	r3, [pc, #356]	; (400cfc <sd_mmc_check+0x16c>)
  400b96:	b095      	sub	sp, #84	; 0x54
  400b98:	4798      	blx	r3
  400b9a:	2801      	cmp	r0, #1
  400b9c:	4606      	mov	r6, r0
  400b9e:	d000      	beq.n	400ba2 <sd_mmc_check+0x12>
  400ba0:	e333      	b.n	40120a <sd_mmc_check+0x67a>
  400ba2:	4b57      	ldr	r3, [pc, #348]	; (400d00 <sd_mmc_check+0x170>)
  400ba4:	2500      	movs	r5, #0
  400ba6:	681b      	ldr	r3, [r3, #0]
  400ba8:	4c56      	ldr	r4, [pc, #344]	; (400d04 <sd_mmc_check+0x174>)
  400baa:	73d8      	strb	r0, [r3, #15]
  400bac:	741d      	strb	r5, [r3, #16]
  400bae:	819d      	strh	r5, [r3, #12]
  400bb0:	4855      	ldr	r0, [pc, #340]	; (400d08 <sd_mmc_check+0x178>)
  400bb2:	47a0      	blx	r4
  400bb4:	4b55      	ldr	r3, [pc, #340]	; (400d0c <sd_mmc_check+0x17c>)
  400bb6:	4798      	blx	r3
  400bb8:	4629      	mov	r1, r5
  400bba:	f44f 4080 	mov.w	r0, #16384	; 0x4000
  400bbe:	4d54      	ldr	r5, [pc, #336]	; (400d10 <sd_mmc_check+0x180>)
  400bc0:	47a8      	blx	r5
  400bc2:	2800      	cmp	r0, #0
  400bc4:	f000 831a 	beq.w	4011fc <sd_mmc_check+0x66c>
  400bc8:	f245 5008 	movw	r0, #21768	; 0x5508
  400bcc:	f44f 71d5 	mov.w	r1, #426	; 0x1aa
  400bd0:	47a8      	blx	r5
  400bd2:	2800      	cmp	r0, #0
  400bd4:	f000 82f4 	beq.w	4011c0 <sd_mmc_check+0x630>
  400bd8:	4b4e      	ldr	r3, [pc, #312]	; (400d14 <sd_mmc_check+0x184>)
  400bda:	4798      	blx	r3
  400bdc:	1c43      	adds	r3, r0, #1
  400bde:	4602      	mov	r2, r0
  400be0:	f000 82ee 	beq.w	4011c0 <sd_mmc_check+0x630>
  400be4:	0503      	lsls	r3, r0, #20
  400be6:	f1b3 5fd5 	cmp.w	r3, #446693376	; 0x1aa00000
  400bea:	d003      	beq.n	400bf4 <sd_mmc_check+0x64>
  400bec:	494a      	ldr	r1, [pc, #296]	; (400d18 <sd_mmc_check+0x188>)
  400bee:	484b      	ldr	r0, [pc, #300]	; (400d1c <sd_mmc_check+0x18c>)
  400bf0:	47a0      	blx	r4
  400bf2:	e303      	b.n	4011fc <sd_mmc_check+0x66c>
  400bf4:	484a      	ldr	r0, [pc, #296]	; (400d20 <sd_mmc_check+0x190>)
  400bf6:	47a0      	blx	r4
  400bf8:	4635      	mov	r5, r6
  400bfa:	e2e2      	b.n	4011c2 <sd_mmc_check+0x632>
  400bfc:	4f44      	ldr	r7, [pc, #272]	; (400d10 <sd_mmc_check+0x180>)
  400bfe:	f8df 9134 	ldr.w	r9, [pc, #308]	; 400d34 <sd_mmc_check+0x1a4>
  400c02:	f640 0435 	movw	r4, #2101	; 0x835
  400c06:	46b8      	mov	r8, r7
  400c08:	f241 1037 	movw	r0, #4407	; 0x1137
  400c0c:	2100      	movs	r1, #0
  400c0e:	47b8      	blx	r7
  400c10:	b908      	cbnz	r0, 400c16 <sd_mmc_check+0x86>
  400c12:	4844      	ldr	r0, [pc, #272]	; (400d24 <sd_mmc_check+0x194>)
  400c14:	e009      	b.n	400c2a <sd_mmc_check+0x9a>
  400c16:	f244 5029 	movw	r0, #17705	; 0x4529
  400c1a:	2d00      	cmp	r5, #0
  400c1c:	bf14      	ite	ne
  400c1e:	4649      	movne	r1, r9
  400c20:	f44f 11fc 	moveq.w	r1, #2064384	; 0x1f8000
  400c24:	47c0      	blx	r8
  400c26:	b920      	cbnz	r0, 400c32 <sd_mmc_check+0xa2>
  400c28:	483f      	ldr	r0, [pc, #252]	; (400d28 <sd_mmc_check+0x198>)
  400c2a:	4940      	ldr	r1, [pc, #256]	; (400d2c <sd_mmc_check+0x19c>)
  400c2c:	4b35      	ldr	r3, [pc, #212]	; (400d04 <sd_mmc_check+0x174>)
  400c2e:	4798      	blx	r3
  400c30:	e2ce      	b.n	4011d0 <sd_mmc_check+0x640>
  400c32:	4b38      	ldr	r3, [pc, #224]	; (400d14 <sd_mmc_check+0x184>)
  400c34:	4798      	blx	r3
  400c36:	1e02      	subs	r2, r0, #0
  400c38:	da09      	bge.n	400c4e <sd_mmc_check+0xbe>
  400c3a:	0050      	lsls	r0, r2, #1
  400c3c:	f140 815f 	bpl.w	400efe <sd_mmc_check+0x36e>
  400c40:	4b2f      	ldr	r3, [pc, #188]	; (400d00 <sd_mmc_check+0x170>)
  400c42:	681b      	ldr	r3, [r3, #0]
  400c44:	7bda      	ldrb	r2, [r3, #15]
  400c46:	f042 0208 	orr.w	r2, r2, #8
  400c4a:	73da      	strb	r2, [r3, #15]
  400c4c:	e157      	b.n	400efe <sd_mmc_check+0x36e>
  400c4e:	3c01      	subs	r4, #1
  400c50:	d1da      	bne.n	400c08 <sd_mmc_check+0x78>
  400c52:	4936      	ldr	r1, [pc, #216]	; (400d2c <sd_mmc_check+0x19c>)
  400c54:	4b2b      	ldr	r3, [pc, #172]	; (400d04 <sd_mmc_check+0x174>)
  400c56:	4836      	ldr	r0, [pc, #216]	; (400d30 <sd_mmc_check+0x1a0>)
  400c58:	4798      	blx	r3
  400c5a:	e2b9      	b.n	4011d0 <sd_mmc_check+0x640>
  400c5c:	4f2d      	ldr	r7, [pc, #180]	; (400d14 <sd_mmc_check+0x184>)
  400c5e:	f241 0468 	movw	r4, #4200	; 0x1068
  400c62:	f244 5001 	movw	r0, #17665	; 0x4501
  400c66:	4933      	ldr	r1, [pc, #204]	; (400d34 <sd_mmc_check+0x1a4>)
  400c68:	47a8      	blx	r5
  400c6a:	b938      	cbnz	r0, 400c7c <sd_mmc_check+0xec>
  400c6c:	f5c4 5283 	rsb	r2, r4, #4192	; 0x1060
  400c70:	4931      	ldr	r1, [pc, #196]	; (400d38 <sd_mmc_check+0x1a8>)
  400c72:	3208      	adds	r2, #8
  400c74:	4b23      	ldr	r3, [pc, #140]	; (400d04 <sd_mmc_check+0x174>)
  400c76:	4831      	ldr	r0, [pc, #196]	; (400d3c <sd_mmc_check+0x1ac>)
  400c78:	4798      	blx	r3
  400c7a:	e2bf      	b.n	4011fc <sd_mmc_check+0x66c>
  400c7c:	47b8      	blx	r7
  400c7e:	2800      	cmp	r0, #0
  400c80:	da0c      	bge.n	400c9c <sd_mmc_check+0x10c>
  400c82:	f000 40c0 	and.w	r0, r0, #1610612736	; 0x60000000
  400c86:	f1b0 4f80 	cmp.w	r0, #1073741824	; 0x40000000
  400c8a:	f040 82af 	bne.w	4011ec <sd_mmc_check+0x65c>
  400c8e:	4b1c      	ldr	r3, [pc, #112]	; (400d00 <sd_mmc_check+0x170>)
  400c90:	681b      	ldr	r3, [r3, #0]
  400c92:	7bda      	ldrb	r2, [r3, #15]
  400c94:	f042 0208 	orr.w	r2, r2, #8
  400c98:	73da      	strb	r2, [r3, #15]
  400c9a:	e2a7      	b.n	4011ec <sd_mmc_check+0x65c>
  400c9c:	f114 34ff 	adds.w	r4, r4, #4294967295
  400ca0:	d2df      	bcs.n	400c62 <sd_mmc_check+0xd2>
  400ca2:	4827      	ldr	r0, [pc, #156]	; (400d40 <sd_mmc_check+0x1b0>)
  400ca4:	4924      	ldr	r1, [pc, #144]	; (400d38 <sd_mmc_check+0x1a8>)
  400ca6:	e26c      	b.n	401182 <sd_mmc_check+0x5f2>
  400ca8:	4c15      	ldr	r4, [pc, #84]	; (400d00 <sd_mmc_check+0x170>)
  400caa:	2201      	movs	r2, #1
  400cac:	6823      	ldr	r3, [r4, #0]
  400cae:	f241 1003 	movw	r0, #4355	; 0x1103
  400cb2:	819a      	strh	r2, [r3, #12]
  400cb4:	f44f 3180 	mov.w	r1, #65536	; 0x10000
  400cb8:	47a8      	blx	r5
  400cba:	2800      	cmp	r0, #0
  400cbc:	f000 829e 	beq.w	4011fc <sd_mmc_check+0x66c>
  400cc0:	4b20      	ldr	r3, [pc, #128]	; (400d44 <sd_mmc_check+0x1b4>)
  400cc2:	4798      	blx	r3
  400cc4:	2800      	cmp	r0, #0
  400cc6:	f000 8299 	beq.w	4011fc <sd_mmc_check+0x66c>
  400cca:	6824      	ldr	r4, [r4, #0]
  400ccc:	4f1e      	ldr	r7, [pc, #120]	; (400d48 <sd_mmc_check+0x1b8>)
  400cce:	f104 0512 	add.w	r5, r4, #18
  400cd2:	4628      	mov	r0, r5
  400cd4:	2180      	movs	r1, #128	; 0x80
  400cd6:	227a      	movs	r2, #122	; 0x7a
  400cd8:	2304      	movs	r3, #4
  400cda:	47b8      	blx	r7
  400cdc:	3801      	subs	r0, #1
  400cde:	46b8      	mov	r8, r7
  400ce0:	2803      	cmp	r0, #3
  400ce2:	d803      	bhi.n	400cec <sd_mmc_check+0x15c>
  400ce4:	e8df f000 	tbb	[pc, r0]
  400ce8:	32080604 	.word	0x32080604
  400cec:	2312      	movs	r3, #18
  400cee:	e02e      	b.n	400d4e <sd_mmc_check+0x1be>
  400cf0:	2314      	movs	r3, #20
  400cf2:	e02c      	b.n	400d4e <sd_mmc_check+0x1be>
  400cf4:	2322      	movs	r3, #34	; 0x22
  400cf6:	e02a      	b.n	400d4e <sd_mmc_check+0x1be>
  400cf8:	2330      	movs	r3, #48	; 0x30
  400cfa:	e028      	b.n	400d4e <sd_mmc_check+0x1be>
  400cfc:	00400a59 	.word	0x00400a59
  400d00:	200009f8 	.word	0x200009f8
  400d04:	00405b53 	.word	0x00405b53
  400d08:	00409fa0 	.word	0x00409fa0
  400d0c:	0040242b 	.word	0x0040242b
  400d10:	00402449 	.word	0x00402449
  400d14:	00402475 	.word	0x00402475
  400d18:	0040a23a 	.word	0x0040a23a
  400d1c:	00409fb8 	.word	0x00409fb8
  400d20:	00409fdf 	.word	0x00409fdf
  400d24:	00409fec 	.word	0x00409fec
  400d28:	00409ffd 	.word	0x00409ffd
  400d2c:	00409f1c 	.word	0x00409f1c
  400d30:	0040a00f 	.word	0x0040a00f
  400d34:	401f8000 	.word	0x401f8000
  400d38:	0040a242 	.word	0x0040a242
  400d3c:	0040a03c 	.word	0x0040a03c
  400d40:	0040a060 	.word	0x0040a060
  400d44:	00400b39 	.word	0x00400b39
  400d48:	004009c5 	.word	0x004009c5
  400d4c:	2340      	movs	r3, #64	; 0x40
  400d4e:	2180      	movs	r1, #128	; 0x80
  400d50:	2260      	movs	r2, #96	; 0x60
  400d52:	7423      	strb	r3, [r4, #16]
  400d54:	4628      	mov	r0, r5
  400d56:	2308      	movs	r3, #8
  400d58:	47c0      	blx	r8
  400d5a:	4b8e      	ldr	r3, [pc, #568]	; (400f94 <sd_mmc_check+0x404>)
  400d5c:	f000 0207 	and.w	r2, r0, #7
  400d60:	f853 3022 	ldr.w	r3, [r3, r2, lsl #2]
  400d64:	f44f 727a 	mov.w	r2, #1000	; 0x3e8
  400d68:	4353      	muls	r3, r2
  400d6a:	4a8b      	ldr	r2, [pc, #556]	; (400f98 <sd_mmc_check+0x408>)
  400d6c:	f3c0 00c3 	ubfx	r0, r0, #3, #4
  400d70:	f852 2020 	ldr.w	r2, [r2, r0, lsl #2]
  400d74:	2180      	movs	r1, #128	; 0x80
  400d76:	4353      	muls	r3, r2
  400d78:	4628      	mov	r0, r5
  400d7a:	6023      	str	r3, [r4, #0]
  400d7c:	223e      	movs	r2, #62	; 0x3e
  400d7e:	230c      	movs	r3, #12
  400d80:	47c0      	blx	r8
  400d82:	f640 73ff 	movw	r3, #4095	; 0xfff
  400d86:	4298      	cmp	r0, r3
  400d88:	4f84      	ldr	r7, [pc, #528]	; (400f9c <sd_mmc_check+0x40c>)
  400d8a:	4680      	mov	r8, r0
  400d8c:	d012      	beq.n	400db4 <sd_mmc_check+0x224>
  400d8e:	2180      	movs	r1, #128	; 0x80
  400d90:	222f      	movs	r2, #47	; 0x2f
  400d92:	2303      	movs	r3, #3
  400d94:	4628      	mov	r0, r5
  400d96:	47b8      	blx	r7
  400d98:	f108 0801 	add.w	r8, r8, #1
  400d9c:	3002      	adds	r0, #2
  400d9e:	fa08 f800 	lsl.w	r8, r8, r0
  400da2:	2180      	movs	r1, #128	; 0x80
  400da4:	4628      	mov	r0, r5
  400da6:	2250      	movs	r2, #80	; 0x50
  400da8:	2304      	movs	r3, #4
  400daa:	47b8      	blx	r7
  400dac:	fa08 f000 	lsl.w	r0, r8, r0
  400db0:	0a80      	lsrs	r0, r0, #10
  400db2:	6060      	str	r0, [r4, #4]
  400db4:	89a1      	ldrh	r1, [r4, #12]
  400db6:	f243 1007 	movw	r0, #12551	; 0x3107
  400dba:	0409      	lsls	r1, r1, #16
  400dbc:	4b78      	ldr	r3, [pc, #480]	; (400fa0 <sd_mmc_check+0x410>)
  400dbe:	4798      	blx	r3
  400dc0:	2800      	cmp	r0, #0
  400dc2:	f000 821b 	beq.w	4011fc <sd_mmc_check+0x66c>
  400dc6:	4b77      	ldr	r3, [pc, #476]	; (400fa4 <sd_mmc_check+0x414>)
  400dc8:	681b      	ldr	r3, [r3, #0]
  400dca:	7c1b      	ldrb	r3, [r3, #16]
  400dcc:	2b3f      	cmp	r3, #63	; 0x3f
  400dce:	f240 8085 	bls.w	400edc <sd_mmc_check+0x34c>
  400dd2:	2100      	movs	r1, #0
  400dd4:	9100      	str	r1, [sp, #0]
  400dd6:	4874      	ldr	r0, [pc, #464]	; (400fa8 <sd_mmc_check+0x418>)
  400dd8:	f44f 7200 	mov.w	r2, #512	; 0x200
  400ddc:	2301      	movs	r3, #1
  400dde:	4c73      	ldr	r4, [pc, #460]	; (400fac <sd_mmc_check+0x41c>)
  400de0:	47a0      	blx	r4
  400de2:	2800      	cmp	r0, #0
  400de4:	f000 820a 	beq.w	4011fc <sd_mmc_check+0x66c>
  400de8:	4d71      	ldr	r5, [pc, #452]	; (400fb0 <sd_mmc_check+0x420>)
  400dea:	2432      	movs	r4, #50	; 0x32
  400dec:	a802      	add	r0, sp, #8
  400dee:	47a8      	blx	r5
  400df0:	2800      	cmp	r0, #0
  400df2:	f000 8203 	beq.w	4011fc <sd_mmc_check+0x66c>
  400df6:	3c01      	subs	r4, #1
  400df8:	b2a4      	uxth	r4, r4
  400dfa:	2c00      	cmp	r4, #0
  400dfc:	d1f6      	bne.n	400dec <sd_mmc_check+0x25c>
  400dfe:	4b69      	ldr	r3, [pc, #420]	; (400fa4 <sd_mmc_check+0x414>)
  400e00:	2180      	movs	r1, #128	; 0x80
  400e02:	6818      	ldr	r0, [r3, #0]
  400e04:	223e      	movs	r2, #62	; 0x3e
  400e06:	230c      	movs	r3, #12
  400e08:	3012      	adds	r0, #18
  400e0a:	4c64      	ldr	r4, [pc, #400]	; (400f9c <sd_mmc_check+0x40c>)
  400e0c:	47a0      	blx	r4
  400e0e:	9f02      	ldr	r7, [sp, #8]
  400e10:	f640 73ff 	movw	r3, #4095	; 0xfff
  400e14:	f007 0702 	and.w	r7, r7, #2
  400e18:	2432      	movs	r4, #50	; 0x32
  400e1a:	4298      	cmp	r0, r3
  400e1c:	b2ff      	uxtb	r7, r7
  400e1e:	d10e      	bne.n	400e3e <sd_mmc_check+0x2ae>
  400e20:	4d63      	ldr	r5, [pc, #396]	; (400fb0 <sd_mmc_check+0x420>)
  400e22:	a803      	add	r0, sp, #12
  400e24:	47a8      	blx	r5
  400e26:	2800      	cmp	r0, #0
  400e28:	f000 81e8 	beq.w	4011fc <sd_mmc_check+0x66c>
  400e2c:	3401      	adds	r4, #1
  400e2e:	b2a4      	uxth	r4, r4
  400e30:	2c36      	cmp	r4, #54	; 0x36
  400e32:	d1f6      	bne.n	400e22 <sd_mmc_check+0x292>
  400e34:	4b5b      	ldr	r3, [pc, #364]	; (400fa4 <sd_mmc_check+0x414>)
  400e36:	681a      	ldr	r2, [r3, #0]
  400e38:	9b03      	ldr	r3, [sp, #12]
  400e3a:	085b      	lsrs	r3, r3, #1
  400e3c:	6053      	str	r3, [r2, #4]
  400e3e:	4d5c      	ldr	r5, [pc, #368]	; (400fb0 <sd_mmc_check+0x420>)
  400e40:	a803      	add	r0, sp, #12
  400e42:	47a8      	blx	r5
  400e44:	2800      	cmp	r0, #0
  400e46:	f000 81d9 	beq.w	4011fc <sd_mmc_check+0x66c>
  400e4a:	3401      	adds	r4, #1
  400e4c:	b2a4      	uxth	r4, r4
  400e4e:	2c7f      	cmp	r4, #127	; 0x7f
  400e50:	d9f6      	bls.n	400e40 <sd_mmc_check+0x2b0>
  400e52:	4d58      	ldr	r5, [pc, #352]	; (400fb4 <sd_mmc_check+0x424>)
  400e54:	4c58      	ldr	r4, [pc, #352]	; (400fb8 <sd_mmc_check+0x428>)
  400e56:	7828      	ldrb	r0, [r5, #0]
  400e58:	47a0      	blx	r4
  400e5a:	2803      	cmp	r0, #3
  400e5c:	d924      	bls.n	400ea8 <sd_mmc_check+0x318>
  400e5e:	7828      	ldrb	r0, [r5, #0]
  400e60:	47a0      	blx	r4
  400e62:	1f03      	subs	r3, r0, #4
  400e64:	b2db      	uxtb	r3, r3
  400e66:	2b04      	cmp	r3, #4
  400e68:	bf98      	it	ls
  400e6a:	4a54      	ldrls	r2, [pc, #336]	; (400fbc <sd_mmc_check+0x42c>)
  400e6c:	4604      	mov	r4, r0
  400e6e:	bf94      	ite	ls
  400e70:	f852 1023 	ldrls.w	r1, [r2, r3, lsl #2]
  400e74:	4952      	ldrhi	r1, [pc, #328]	; (400fc0 <sd_mmc_check+0x430>)
  400e76:	f243 1006 	movw	r0, #12550	; 0x3106
  400e7a:	4b49      	ldr	r3, [pc, #292]	; (400fa0 <sd_mmc_check+0x410>)
  400e7c:	4798      	blx	r3
  400e7e:	2800      	cmp	r0, #0
  400e80:	f000 81bc 	beq.w	4011fc <sd_mmc_check+0x66c>
  400e84:	4b4f      	ldr	r3, [pc, #316]	; (400fc4 <sd_mmc_check+0x434>)
  400e86:	4798      	blx	r3
  400e88:	f010 0f80 	tst.w	r0, #128	; 0x80
  400e8c:	4b4e      	ldr	r3, [pc, #312]	; (400fc8 <sd_mmc_check+0x438>)
  400e8e:	d003      	beq.n	400e98 <sd_mmc_check+0x308>
  400e90:	484e      	ldr	r0, [pc, #312]	; (400fcc <sd_mmc_check+0x43c>)
  400e92:	494f      	ldr	r1, [pc, #316]	; (400fd0 <sd_mmc_check+0x440>)
  400e94:	4798      	blx	r3
  400e96:	e1b1      	b.n	4011fc <sd_mmc_check+0x66c>
  400e98:	4a42      	ldr	r2, [pc, #264]	; (400fa4 <sd_mmc_check+0x414>)
  400e9a:	484e      	ldr	r0, [pc, #312]	; (400fd4 <sd_mmc_check+0x444>)
  400e9c:	6812      	ldr	r2, [r2, #0]
  400e9e:	4621      	mov	r1, r4
  400ea0:	7454      	strb	r4, [r2, #17]
  400ea2:	4798      	blx	r3
  400ea4:	4b4c      	ldr	r3, [pc, #304]	; (400fd8 <sd_mmc_check+0x448>)
  400ea6:	4798      	blx	r3
  400ea8:	4b4c      	ldr	r3, [pc, #304]	; (400fdc <sd_mmc_check+0x44c>)
  400eaa:	4798      	blx	r3
  400eac:	b300      	cbz	r0, 400ef0 <sd_mmc_check+0x360>
  400eae:	b1ff      	cbz	r7, 400ef0 <sd_mmc_check+0x360>
  400eb0:	f243 1006 	movw	r0, #12550	; 0x3106
  400eb4:	494a      	ldr	r1, [pc, #296]	; (400fe0 <sd_mmc_check+0x450>)
  400eb6:	4b3a      	ldr	r3, [pc, #232]	; (400fa0 <sd_mmc_check+0x410>)
  400eb8:	4798      	blx	r3
  400eba:	2800      	cmp	r0, #0
  400ebc:	f000 819e 	beq.w	4011fc <sd_mmc_check+0x66c>
  400ec0:	4b40      	ldr	r3, [pc, #256]	; (400fc4 <sd_mmc_check+0x434>)
  400ec2:	4798      	blx	r3
  400ec4:	0601      	lsls	r1, r0, #24
  400ec6:	d502      	bpl.n	400ece <sd_mmc_check+0x33e>
  400ec8:	4840      	ldr	r0, [pc, #256]	; (400fcc <sd_mmc_check+0x43c>)
  400eca:	4946      	ldr	r1, [pc, #280]	; (400fe4 <sd_mmc_check+0x454>)
  400ecc:	e159      	b.n	401182 <sd_mmc_check+0x5f2>
  400ece:	4b35      	ldr	r3, [pc, #212]	; (400fa4 <sd_mmc_check+0x414>)
  400ed0:	2201      	movs	r2, #1
  400ed2:	681b      	ldr	r3, [r3, #0]
  400ed4:	f883 2022 	strb.w	r2, [r3, #34]	; 0x22
  400ed8:	4a43      	ldr	r2, [pc, #268]	; (400fe8 <sd_mmc_check+0x458>)
  400eda:	601a      	str	r2, [r3, #0]
  400edc:	4b3e      	ldr	r3, [pc, #248]	; (400fd8 <sd_mmc_check+0x448>)
  400ede:	4798      	blx	r3
  400ee0:	e006      	b.n	400ef0 <sd_mmc_check+0x360>
  400ee2:	f241 1010 	movw	r0, #4368	; 0x1110
  400ee6:	f44f 7100 	mov.w	r1, #512	; 0x200
  400eea:	47a8      	blx	r5
  400eec:	b110      	cbz	r0, 400ef4 <sd_mmc_check+0x364>
  400eee:	e15f      	b.n	4011b0 <sd_mmc_check+0x620>
  400ef0:	4d2b      	ldr	r5, [pc, #172]	; (400fa0 <sd_mmc_check+0x410>)
  400ef2:	240b      	movs	r4, #11
  400ef4:	3c01      	subs	r4, #1
  400ef6:	f014 04ff 	ands.w	r4, r4, #255	; 0xff
  400efa:	d1f2      	bne.n	400ee2 <sd_mmc_check+0x352>
  400efc:	e17e      	b.n	4011fc <sd_mmc_check+0x66c>
  400efe:	4b29      	ldr	r3, [pc, #164]	; (400fa4 <sd_mmc_check+0x414>)
  400f00:	681b      	ldr	r3, [r3, #0]
  400f02:	7bdb      	ldrb	r3, [r3, #15]
  400f04:	07da      	lsls	r2, r3, #31
  400f06:	d408      	bmi.n	400f1a <sd_mmc_check+0x38a>
  400f08:	f245 1003 	movw	r0, #20739	; 0x5103
  400f0c:	2100      	movs	r1, #0
  400f0e:	4b24      	ldr	r3, [pc, #144]	; (400fa0 <sd_mmc_check+0x410>)
  400f10:	4798      	blx	r3
  400f12:	2800      	cmp	r0, #0
  400f14:	f000 8172 	beq.w	4011fc <sd_mmc_check+0x66c>
  400f18:	e007      	b.n	400f2a <sd_mmc_check+0x39a>
  400f1a:	f645 3002 	movw	r0, #23298	; 0x5b02
  400f1e:	2100      	movs	r1, #0
  400f20:	4b1f      	ldr	r3, [pc, #124]	; (400fa0 <sd_mmc_check+0x410>)
  400f22:	4798      	blx	r3
  400f24:	2800      	cmp	r0, #0
  400f26:	d1ef      	bne.n	400f08 <sd_mmc_check+0x378>
  400f28:	e168      	b.n	4011fc <sd_mmc_check+0x66c>
  400f2a:	4c1e      	ldr	r4, [pc, #120]	; (400fa4 <sd_mmc_check+0x414>)
  400f2c:	4b25      	ldr	r3, [pc, #148]	; (400fc4 <sd_mmc_check+0x434>)
  400f2e:	6825      	ldr	r5, [r4, #0]
  400f30:	4798      	blx	r3
  400f32:	6823      	ldr	r3, [r4, #0]
  400f34:	0c00      	lsrs	r0, r0, #16
  400f36:	7bdb      	ldrb	r3, [r3, #15]
  400f38:	81a8      	strh	r0, [r5, #12]
  400f3a:	07db      	lsls	r3, r3, #31
  400f3c:	d573      	bpl.n	401026 <sd_mmc_check+0x496>
  400f3e:	4b2b      	ldr	r3, [pc, #172]	; (400fec <sd_mmc_check+0x45c>)
  400f40:	4798      	blx	r3
  400f42:	2800      	cmp	r0, #0
  400f44:	f000 815a 	beq.w	4011fc <sd_mmc_check+0x66c>
  400f48:	6827      	ldr	r7, [r4, #0]
  400f4a:	2180      	movs	r1, #128	; 0x80
  400f4c:	f107 0512 	add.w	r5, r7, #18
  400f50:	2260      	movs	r2, #96	; 0x60
  400f52:	2308      	movs	r3, #8
  400f54:	4628      	mov	r0, r5
  400f56:	4c11      	ldr	r4, [pc, #68]	; (400f9c <sd_mmc_check+0x40c>)
  400f58:	47a0      	blx	r4
  400f5a:	4b0e      	ldr	r3, [pc, #56]	; (400f94 <sd_mmc_check+0x404>)
  400f5c:	f000 0207 	and.w	r2, r0, #7
  400f60:	f853 3022 	ldr.w	r3, [r3, r2, lsl #2]
  400f64:	f44f 727a 	mov.w	r2, #1000	; 0x3e8
  400f68:	4353      	muls	r3, r2
  400f6a:	4a21      	ldr	r2, [pc, #132]	; (400ff0 <sd_mmc_check+0x460>)
  400f6c:	f3c0 00c3 	ubfx	r0, r0, #3, #4
  400f70:	f852 2020 	ldr.w	r2, [r2, r0, lsl #2]
  400f74:	2180      	movs	r1, #128	; 0x80
  400f76:	4353      	muls	r3, r2
  400f78:	4628      	mov	r0, r5
  400f7a:	603b      	str	r3, [r7, #0]
  400f7c:	227e      	movs	r2, #126	; 0x7e
  400f7e:	2302      	movs	r3, #2
  400f80:	47a0      	blx	r4
  400f82:	b3b8      	cbz	r0, 400ff4 <sd_mmc_check+0x464>
  400f84:	4628      	mov	r0, r5
  400f86:	2180      	movs	r1, #128	; 0x80
  400f88:	2230      	movs	r2, #48	; 0x30
  400f8a:	2316      	movs	r3, #22
  400f8c:	47a0      	blx	r4
  400f8e:	3001      	adds	r0, #1
  400f90:	0240      	lsls	r0, r0, #9
  400f92:	e047      	b.n	401024 <sd_mmc_check+0x494>
  400f94:	00409f2c 	.word	0x00409f2c
  400f98:	00409f48 	.word	0x00409f48
  400f9c:	004009c5 	.word	0x004009c5
  400fa0:	00402449 	.word	0x00402449
  400fa4:	200009f8 	.word	0x200009f8
  400fa8:	00081108 	.word	0x00081108
  400fac:	004024a1 	.word	0x004024a1
  400fb0:	0040254d 	.word	0x0040254d
  400fb4:	200009fe 	.word	0x200009fe
  400fb8:	004023b5 	.word	0x004023b5
  400fbc:	0040a1d4 	.word	0x0040a1d4
  400fc0:	01b70000 	.word	0x01b70000
  400fc4:	00402475 	.word	0x00402475
  400fc8:	00405b53 	.word	0x00405b53
  400fcc:	0040a07b 	.word	0x0040a07b
  400fd0:	0040a223 	.word	0x0040a223
  400fd4:	0040a09f 	.word	0x0040a09f
  400fd8:	00400a2d 	.word	0x00400a2d
  400fdc:	004023bf 	.word	0x004023bf
  400fe0:	03b90100 	.word	0x03b90100
  400fe4:	0040a1fe 	.word	0x0040a1fe
  400fe8:	03197500 	.word	0x03197500
  400fec:	00400b39 	.word	0x00400b39
  400ff0:	00409edc 	.word	0x00409edc
  400ff4:	2180      	movs	r1, #128	; 0x80
  400ff6:	223e      	movs	r2, #62	; 0x3e
  400ff8:	230c      	movs	r3, #12
  400ffa:	4628      	mov	r0, r5
  400ffc:	47a0      	blx	r4
  400ffe:	2180      	movs	r1, #128	; 0x80
  401000:	4680      	mov	r8, r0
  401002:	222f      	movs	r2, #47	; 0x2f
  401004:	2303      	movs	r3, #3
  401006:	4628      	mov	r0, r5
  401008:	47a0      	blx	r4
  40100a:	f108 0801 	add.w	r8, r8, #1
  40100e:	3002      	adds	r0, #2
  401010:	fa08 f800 	lsl.w	r8, r8, r0
  401014:	2180      	movs	r1, #128	; 0x80
  401016:	4628      	mov	r0, r5
  401018:	2250      	movs	r2, #80	; 0x50
  40101a:	2304      	movs	r3, #4
  40101c:	47a0      	blx	r4
  40101e:	fa08 f000 	lsl.w	r0, r8, r0
  401022:	0a80      	lsrs	r0, r0, #10
  401024:	6078      	str	r0, [r7, #4]
  401026:	4c7c      	ldr	r4, [pc, #496]	; (401218 <sd_mmc_check+0x688>)
  401028:	f243 1007 	movw	r0, #12551	; 0x3107
  40102c:	6823      	ldr	r3, [r4, #0]
  40102e:	4d7b      	ldr	r5, [pc, #492]	; (40121c <sd_mmc_check+0x68c>)
  401030:	8999      	ldrh	r1, [r3, #12]
  401032:	0409      	lsls	r1, r1, #16
  401034:	47a8      	blx	r5
  401036:	2800      	cmp	r0, #0
  401038:	f000 80e0 	beq.w	4011fc <sd_mmc_check+0x66c>
  40103c:	6823      	ldr	r3, [r4, #0]
  40103e:	7bda      	ldrb	r2, [r3, #15]
  401040:	07d0      	lsls	r0, r2, #31
  401042:	d406      	bmi.n	401052 <sd_mmc_check+0x4c2>
  401044:	4b76      	ldr	r3, [pc, #472]	; (401220 <sd_mmc_check+0x690>)
  401046:	7818      	ldrb	r0, [r3, #0]
  401048:	4b76      	ldr	r3, [pc, #472]	; (401224 <sd_mmc_check+0x694>)
  40104a:	4798      	blx	r3
  40104c:	2803      	cmp	r0, #3
  40104e:	d83e      	bhi.n	4010ce <sd_mmc_check+0x53e>
  401050:	e05a      	b.n	401108 <sd_mmc_check+0x578>
  401052:	8999      	ldrh	r1, [r3, #12]
  401054:	f241 1037 	movw	r0, #4407	; 0x1137
  401058:	0409      	lsls	r1, r1, #16
  40105a:	47a8      	blx	r5
  40105c:	2800      	cmp	r0, #0
  40105e:	f000 80cd 	beq.w	4011fc <sd_mmc_check+0x66c>
  401062:	2501      	movs	r5, #1
  401064:	9500      	str	r5, [sp, #0]
  401066:	4870      	ldr	r0, [pc, #448]	; (401228 <sd_mmc_check+0x698>)
  401068:	2100      	movs	r1, #0
  40106a:	2208      	movs	r2, #8
  40106c:	462b      	mov	r3, r5
  40106e:	4f6f      	ldr	r7, [pc, #444]	; (40122c <sd_mmc_check+0x69c>)
  401070:	47b8      	blx	r7
  401072:	2800      	cmp	r0, #0
  401074:	f000 80c2 	beq.w	4011fc <sd_mmc_check+0x66c>
  401078:	a804      	add	r0, sp, #16
  40107a:	4629      	mov	r1, r5
  40107c:	4b6c      	ldr	r3, [pc, #432]	; (401230 <sd_mmc_check+0x6a0>)
  40107e:	4798      	blx	r3
  401080:	2800      	cmp	r0, #0
  401082:	f000 80bb 	beq.w	4011fc <sd_mmc_check+0x66c>
  401086:	4b6b      	ldr	r3, [pc, #428]	; (401234 <sd_mmc_check+0x6a4>)
  401088:	4798      	blx	r3
  40108a:	2800      	cmp	r0, #0
  40108c:	f000 80b6 	beq.w	4011fc <sd_mmc_check+0x66c>
  401090:	2140      	movs	r1, #64	; 0x40
  401092:	2238      	movs	r2, #56	; 0x38
  401094:	2304      	movs	r3, #4
  401096:	a804      	add	r0, sp, #16
  401098:	4f67      	ldr	r7, [pc, #412]	; (401238 <sd_mmc_check+0x6a8>)
  40109a:	47b8      	blx	r7
  40109c:	42a8      	cmp	r0, r5
  40109e:	d003      	beq.n	4010a8 <sd_mmc_check+0x518>
  4010a0:	d311      	bcc.n	4010c6 <sd_mmc_check+0x536>
  4010a2:	2802      	cmp	r0, #2
  4010a4:	d10f      	bne.n	4010c6 <sd_mmc_check+0x536>
  4010a6:	e002      	b.n	4010ae <sd_mmc_check+0x51e>
  4010a8:	6823      	ldr	r3, [r4, #0]
  4010aa:	221a      	movs	r2, #26
  4010ac:	e00d      	b.n	4010ca <sd_mmc_check+0x53a>
  4010ae:	2140      	movs	r1, #64	; 0x40
  4010b0:	222f      	movs	r2, #47	; 0x2f
  4010b2:	462b      	mov	r3, r5
  4010b4:	a804      	add	r0, sp, #16
  4010b6:	47b8      	blx	r7
  4010b8:	2801      	cmp	r0, #1
  4010ba:	6823      	ldr	r3, [r4, #0]
  4010bc:	d101      	bne.n	4010c2 <sd_mmc_check+0x532>
  4010be:	2230      	movs	r2, #48	; 0x30
  4010c0:	e003      	b.n	4010ca <sd_mmc_check+0x53a>
  4010c2:	2220      	movs	r2, #32
  4010c4:	e001      	b.n	4010ca <sd_mmc_check+0x53a>
  4010c6:	6823      	ldr	r3, [r4, #0]
  4010c8:	2210      	movs	r2, #16
  4010ca:	741a      	strb	r2, [r3, #16]
  4010cc:	e7ba      	b.n	401044 <sd_mmc_check+0x4b4>
  4010ce:	4c52      	ldr	r4, [pc, #328]	; (401218 <sd_mmc_check+0x688>)
  4010d0:	6823      	ldr	r3, [r4, #0]
  4010d2:	7bda      	ldrb	r2, [r3, #15]
  4010d4:	07d1      	lsls	r1, r2, #31
  4010d6:	d515      	bpl.n	401104 <sd_mmc_check+0x574>
  4010d8:	8999      	ldrh	r1, [r3, #12]
  4010da:	f241 1037 	movw	r0, #4407	; 0x1137
  4010de:	0409      	lsls	r1, r1, #16
  4010e0:	4d4e      	ldr	r5, [pc, #312]	; (40121c <sd_mmc_check+0x68c>)
  4010e2:	47a8      	blx	r5
  4010e4:	2800      	cmp	r0, #0
  4010e6:	f000 8089 	beq.w	4011fc <sd_mmc_check+0x66c>
  4010ea:	f241 1006 	movw	r0, #4358	; 0x1106
  4010ee:	2102      	movs	r1, #2
  4010f0:	47a8      	blx	r5
  4010f2:	2800      	cmp	r0, #0
  4010f4:	f000 8082 	beq.w	4011fc <sd_mmc_check+0x66c>
  4010f8:	6823      	ldr	r3, [r4, #0]
  4010fa:	2104      	movs	r1, #4
  4010fc:	7459      	strb	r1, [r3, #17]
  4010fe:	484f      	ldr	r0, [pc, #316]	; (40123c <sd_mmc_check+0x6ac>)
  401100:	4b4f      	ldr	r3, [pc, #316]	; (401240 <sd_mmc_check+0x6b0>)
  401102:	4798      	blx	r3
  401104:	4b4f      	ldr	r3, [pc, #316]	; (401244 <sd_mmc_check+0x6b4>)
  401106:	4798      	blx	r3
  401108:	4b4f      	ldr	r3, [pc, #316]	; (401248 <sd_mmc_check+0x6b8>)
  40110a:	4798      	blx	r3
  40110c:	2800      	cmp	r0, #0
  40110e:	d043      	beq.n	401198 <sd_mmc_check+0x608>
  401110:	4d41      	ldr	r5, [pc, #260]	; (401218 <sd_mmc_check+0x688>)
  401112:	682b      	ldr	r3, [r5, #0]
  401114:	7bda      	ldrb	r2, [r3, #15]
  401116:	07d2      	lsls	r2, r2, #31
  401118:	d402      	bmi.n	401120 <sd_mmc_check+0x590>
  40111a:	4b4a      	ldr	r3, [pc, #296]	; (401244 <sd_mmc_check+0x6b4>)
  40111c:	4798      	blx	r3
  40111e:	e03b      	b.n	401198 <sd_mmc_check+0x608>
  401120:	7c1b      	ldrb	r3, [r3, #16]
  401122:	2b10      	cmp	r3, #16
  401124:	d9f9      	bls.n	40111a <sd_mmc_check+0x58a>
  401126:	2401      	movs	r4, #1
  401128:	9400      	str	r4, [sp, #0]
  40112a:	4848      	ldr	r0, [pc, #288]	; (40124c <sd_mmc_check+0x6bc>)
  40112c:	4948      	ldr	r1, [pc, #288]	; (401250 <sd_mmc_check+0x6c0>)
  40112e:	2240      	movs	r2, #64	; 0x40
  401130:	4623      	mov	r3, r4
  401132:	4f3e      	ldr	r7, [pc, #248]	; (40122c <sd_mmc_check+0x69c>)
  401134:	47b8      	blx	r7
  401136:	2800      	cmp	r0, #0
  401138:	d060      	beq.n	4011fc <sd_mmc_check+0x66c>
  40113a:	a804      	add	r0, sp, #16
  40113c:	4621      	mov	r1, r4
  40113e:	4b3c      	ldr	r3, [pc, #240]	; (401230 <sd_mmc_check+0x6a0>)
  401140:	4798      	blx	r3
  401142:	2800      	cmp	r0, #0
  401144:	d05a      	beq.n	4011fc <sd_mmc_check+0x66c>
  401146:	4b3b      	ldr	r3, [pc, #236]	; (401234 <sd_mmc_check+0x6a4>)
  401148:	4798      	blx	r3
  40114a:	2800      	cmp	r0, #0
  40114c:	d056      	beq.n	4011fc <sd_mmc_check+0x66c>
  40114e:	4b41      	ldr	r3, [pc, #260]	; (401254 <sd_mmc_check+0x6c4>)
  401150:	4798      	blx	r3
  401152:	0603      	lsls	r3, r0, #24
  401154:	d501      	bpl.n	40115a <sd_mmc_check+0x5ca>
  401156:	4840      	ldr	r0, [pc, #256]	; (401258 <sd_mmc_check+0x6c8>)
  401158:	e012      	b.n	401180 <sd_mmc_check+0x5f0>
  40115a:	2304      	movs	r3, #4
  40115c:	a804      	add	r0, sp, #16
  40115e:	f44f 7100 	mov.w	r1, #512	; 0x200
  401162:	f44f 72bc 	mov.w	r2, #376	; 0x178
  401166:	4f34      	ldr	r7, [pc, #208]	; (401238 <sd_mmc_check+0x6a8>)
  401168:	47b8      	blx	r7
  40116a:	280f      	cmp	r0, #15
  40116c:	d0d5      	beq.n	40111a <sd_mmc_check+0x58a>
  40116e:	a804      	add	r0, sp, #16
  401170:	f44f 7100 	mov.w	r1, #512	; 0x200
  401174:	f44f 7288 	mov.w	r2, #272	; 0x110
  401178:	2310      	movs	r3, #16
  40117a:	47b8      	blx	r7
  40117c:	b118      	cbz	r0, 401186 <sd_mmc_check+0x5f6>
  40117e:	4837      	ldr	r0, [pc, #220]	; (40125c <sd_mmc_check+0x6cc>)
  401180:	4937      	ldr	r1, [pc, #220]	; (401260 <sd_mmc_check+0x6d0>)
  401182:	4b2f      	ldr	r3, [pc, #188]	; (401240 <sd_mmc_check+0x6b0>)
  401184:	e686      	b.n	400e94 <sd_mmc_check+0x304>
  401186:	4b37      	ldr	r3, [pc, #220]	; (401264 <sd_mmc_check+0x6d4>)
  401188:	4798      	blx	r3
  40118a:	682b      	ldr	r3, [r5, #0]
  40118c:	681a      	ldr	r2, [r3, #0]
  40118e:	f883 4022 	strb.w	r4, [r3, #34]	; 0x22
  401192:	0052      	lsls	r2, r2, #1
  401194:	601a      	str	r2, [r3, #0]
  401196:	e7c0      	b.n	40111a <sd_mmc_check+0x58a>
  401198:	4b1f      	ldr	r3, [pc, #124]	; (401218 <sd_mmc_check+0x688>)
  40119a:	681b      	ldr	r3, [r3, #0]
  40119c:	7bdb      	ldrb	r3, [r3, #15]
  40119e:	07d8      	lsls	r0, r3, #31
  4011a0:	d506      	bpl.n	4011b0 <sd_mmc_check+0x620>
  4011a2:	f241 1010 	movw	r0, #4368	; 0x1110
  4011a6:	f44f 7100 	mov.w	r1, #512	; 0x200
  4011aa:	4b1c      	ldr	r3, [pc, #112]	; (40121c <sd_mmc_check+0x68c>)
  4011ac:	4798      	blx	r3
  4011ae:	b328      	cbz	r0, 4011fc <sd_mmc_check+0x66c>
  4011b0:	4b23      	ldr	r3, [pc, #140]	; (401240 <sd_mmc_check+0x6b0>)
  4011b2:	482d      	ldr	r0, [pc, #180]	; (401268 <sd_mmc_check+0x6d8>)
  4011b4:	4798      	blx	r3
  4011b6:	4b18      	ldr	r3, [pc, #96]	; (401218 <sd_mmc_check+0x688>)
  4011b8:	2200      	movs	r2, #0
  4011ba:	681b      	ldr	r3, [r3, #0]
  4011bc:	739a      	strb	r2, [r3, #14]
  4011be:	e024      	b.n	40120a <sd_mmc_check+0x67a>
  4011c0:	2500      	movs	r5, #0
  4011c2:	4b15      	ldr	r3, [pc, #84]	; (401218 <sd_mmc_check+0x688>)
  4011c4:	681b      	ldr	r3, [r3, #0]
  4011c6:	7bdb      	ldrb	r3, [r3, #15]
  4011c8:	07d9      	lsls	r1, r3, #31
  4011ca:	f57f ae98 	bpl.w	400efe <sd_mmc_check+0x36e>
  4011ce:	e515      	b.n	400bfc <sd_mmc_check+0x6c>
  4011d0:	4b1b      	ldr	r3, [pc, #108]	; (401240 <sd_mmc_check+0x6b0>)
  4011d2:	4826      	ldr	r0, [pc, #152]	; (40126c <sd_mmc_check+0x6dc>)
  4011d4:	4798      	blx	r3
  4011d6:	4b10      	ldr	r3, [pc, #64]	; (401218 <sd_mmc_check+0x688>)
  4011d8:	2202      	movs	r2, #2
  4011da:	681b      	ldr	r3, [r3, #0]
  4011dc:	f44f 4080 	mov.w	r0, #16384	; 0x4000
  4011e0:	73da      	strb	r2, [r3, #15]
  4011e2:	2100      	movs	r1, #0
  4011e4:	4d0d      	ldr	r5, [pc, #52]	; (40121c <sd_mmc_check+0x68c>)
  4011e6:	47a8      	blx	r5
  4011e8:	b140      	cbz	r0, 4011fc <sd_mmc_check+0x66c>
  4011ea:	e537      	b.n	400c5c <sd_mmc_check+0xcc>
  4011ec:	f645 3002 	movw	r0, #23298	; 0x5b02
  4011f0:	2100      	movs	r1, #0
  4011f2:	4d0a      	ldr	r5, [pc, #40]	; (40121c <sd_mmc_check+0x68c>)
  4011f4:	47a8      	blx	r5
  4011f6:	2800      	cmp	r0, #0
  4011f8:	f47f ad56 	bne.w	400ca8 <sd_mmc_check+0x118>
  4011fc:	4b10      	ldr	r3, [pc, #64]	; (401240 <sd_mmc_check+0x6b0>)
  4011fe:	481c      	ldr	r0, [pc, #112]	; (401270 <sd_mmc_check+0x6e0>)
  401200:	4798      	blx	r3
  401202:	4b05      	ldr	r3, [pc, #20]	; (401218 <sd_mmc_check+0x688>)
  401204:	2603      	movs	r6, #3
  401206:	681b      	ldr	r3, [r3, #0]
  401208:	739e      	strb	r6, [r3, #14]
  40120a:	4b1a      	ldr	r3, [pc, #104]	; (401274 <sd_mmc_check+0x6e4>)
  40120c:	4798      	blx	r3
  40120e:	4630      	mov	r0, r6
  401210:	b015      	add	sp, #84	; 0x54
  401212:	e8bd 83f0 	ldmia.w	sp!, {r4, r5, r6, r7, r8, r9, pc}
  401216:	bf00      	nop
  401218:	200009f8 	.word	0x200009f8
  40121c:	00402449 	.word	0x00402449
  401220:	200009fe 	.word	0x200009fe
  401224:	004023b5 	.word	0x004023b5
  401228:	00081133 	.word	0x00081133
  40122c:	004024a1 	.word	0x004024a1
  401230:	004025ad 	.word	0x004025ad
  401234:	004025e9 	.word	0x004025e9
  401238:	004009c5 	.word	0x004009c5
  40123c:	0040a09f 	.word	0x0040a09f
  401240:	00405b53 	.word	0x00405b53
  401244:	00400a2d 	.word	0x00400a2d
  401248:	004023bf 	.word	0x004023bf
  40124c:	00081106 	.word	0x00081106
  401250:	80ffff01 	.word	0x80ffff01
  401254:	00402475 	.word	0x00402475
  401258:	0040a07b 	.word	0x0040a07b
  40125c:	0040a0bb 	.word	0x0040a0bb
  401260:	0040a1e8 	.word	0x0040a1e8
  401264:	0040242b 	.word	0x0040242b
  401268:	0040a0e1 	.word	0x0040a0e1
  40126c:	0040a0f5 	.word	0x0040a0f5
  401270:	0040a109 	.word	0x0040a109
  401274:	00400a15 	.word	0x00400a15

00401278 <sd_mmc_get_type>:
  401278:	b508      	push	{r3, lr}
  40127a:	4b05      	ldr	r3, [pc, #20]	; (401290 <sd_mmc_get_type+0x18>)
  40127c:	4798      	blx	r3
  40127e:	b928      	cbnz	r0, 40128c <sd_mmc_get_type+0x14>
  401280:	4b04      	ldr	r3, [pc, #16]	; (401294 <sd_mmc_get_type+0x1c>)
  401282:	4798      	blx	r3
  401284:	4b04      	ldr	r3, [pc, #16]	; (401298 <sd_mmc_get_type+0x20>)
  401286:	681b      	ldr	r3, [r3, #0]
  401288:	7bd8      	ldrb	r0, [r3, #15]
  40128a:	bd08      	pop	{r3, pc}
  40128c:	2000      	movs	r0, #0
  40128e:	bd08      	pop	{r3, pc}
  401290:	00400a59 	.word	0x00400a59
  401294:	00400a15 	.word	0x00400a15
  401298:	200009f8 	.word	0x200009f8

0040129c <sd_mmc_get_capacity>:
  40129c:	b508      	push	{r3, lr}
  40129e:	4b05      	ldr	r3, [pc, #20]	; (4012b4 <sd_mmc_get_capacity+0x18>)
  4012a0:	4798      	blx	r3
  4012a2:	b928      	cbnz	r0, 4012b0 <sd_mmc_get_capacity+0x14>
  4012a4:	4b04      	ldr	r3, [pc, #16]	; (4012b8 <sd_mmc_get_capacity+0x1c>)
  4012a6:	4798      	blx	r3
  4012a8:	4b04      	ldr	r3, [pc, #16]	; (4012bc <sd_mmc_get_capacity+0x20>)
  4012aa:	681b      	ldr	r3, [r3, #0]
  4012ac:	6858      	ldr	r0, [r3, #4]
  4012ae:	bd08      	pop	{r3, pc}
  4012b0:	2000      	movs	r0, #0
  4012b2:	bd08      	pop	{r3, pc}
  4012b4:	00400a59 	.word	0x00400a59
  4012b8:	00400a15 	.word	0x00400a15
  4012bc:	200009f8 	.word	0x200009f8

004012c0 <sd_mmc_is_write_protected>:
  4012c0:	2000      	movs	r0, #0
  4012c2:	4770      	bx	lr

004012c4 <sd_mmc_init_read_blocks>:
  4012c4:	e92d 47f3 	stmdb	sp!, {r0, r1, r4, r5, r6, r7, r8, r9, sl, lr}
  4012c8:	4b29      	ldr	r3, [pc, #164]	; (401370 <sd_mmc_init_read_blocks+0xac>)
  4012ca:	460f      	mov	r7, r1
  4012cc:	4615      	mov	r5, r2
  4012ce:	4798      	blx	r3
  4012d0:	4604      	mov	r4, r0
  4012d2:	2800      	cmp	r0, #0
  4012d4:	d148      	bne.n	401368 <sd_mmc_init_read_blocks+0xa4>
  4012d6:	4e27      	ldr	r6, [pc, #156]	; (401374 <sd_mmc_init_read_blocks+0xb0>)
  4012d8:	f8df 80d0 	ldr.w	r8, [pc, #208]	; 4013ac <sd_mmc_init_read_blocks+0xe8>
  4012dc:	f8df 90d0 	ldr.w	r9, [pc, #208]	; 4013b0 <sd_mmc_init_read_blocks+0xec>
  4012e0:	f8df a0a4 	ldr.w	sl, [pc, #164]	; 401388 <sd_mmc_init_read_blocks+0xc4>
  4012e4:	f8d8 3000 	ldr.w	r3, [r8]
  4012e8:	f241 100d 	movw	r0, #4365	; 0x110d
  4012ec:	8999      	ldrh	r1, [r3, #12]
  4012ee:	0409      	lsls	r1, r1, #16
  4012f0:	47c8      	blx	r9
  4012f2:	b310      	cbz	r0, 40133a <sd_mmc_init_read_blocks+0x76>
  4012f4:	47d0      	blx	sl
  4012f6:	05c2      	lsls	r2, r0, #23
  4012f8:	d428      	bmi.n	40134c <sd_mmc_init_read_blocks+0x88>
  4012fa:	3e01      	subs	r6, #1
  4012fc:	d1f2      	bne.n	4012e4 <sd_mmc_init_read_blocks+0x20>
  4012fe:	491e      	ldr	r1, [pc, #120]	; (401378 <sd_mmc_init_read_blocks+0xb4>)
  401300:	4b1e      	ldr	r3, [pc, #120]	; (40137c <sd_mmc_init_read_blocks+0xb8>)
  401302:	481f      	ldr	r0, [pc, #124]	; (401380 <sd_mmc_init_read_blocks+0xbc>)
  401304:	4798      	blx	r3
  401306:	e018      	b.n	40133a <sd_mmc_init_read_blocks+0x76>
  401308:	0279      	lsls	r1, r7, #9
  40130a:	e000      	b.n	40130e <sd_mmc_init_read_blocks+0x4a>
  40130c:	4639      	mov	r1, r7
  40130e:	2301      	movs	r3, #1
  401310:	9300      	str	r3, [sp, #0]
  401312:	4630      	mov	r0, r6
  401314:	f44f 7200 	mov.w	r2, #512	; 0x200
  401318:	462b      	mov	r3, r5
  40131a:	4f1a      	ldr	r7, [pc, #104]	; (401384 <sd_mmc_init_read_blocks+0xc0>)
  40131c:	47b8      	blx	r7
  40131e:	b900      	cbnz	r0, 401322 <sd_mmc_init_read_blocks+0x5e>
  401320:	e00b      	b.n	40133a <sd_mmc_init_read_blocks+0x76>
  401322:	4b19      	ldr	r3, [pc, #100]	; (401388 <sd_mmc_init_read_blocks+0xc4>)
  401324:	4798      	blx	r3
  401326:	4919      	ldr	r1, [pc, #100]	; (40138c <sd_mmc_init_read_blocks+0xc8>)
  401328:	4603      	mov	r3, r0
  40132a:	4001      	ands	r1, r0
  40132c:	b149      	cbz	r1, 401342 <sd_mmc_init_read_blocks+0x7e>
  40132e:	4818      	ldr	r0, [pc, #96]	; (401390 <sd_mmc_init_read_blocks+0xcc>)
  401330:	4918      	ldr	r1, [pc, #96]	; (401394 <sd_mmc_init_read_blocks+0xd0>)
  401332:	f006 0213 	and.w	r2, r6, #19
  401336:	4c11      	ldr	r4, [pc, #68]	; (40137c <sd_mmc_init_read_blocks+0xb8>)
  401338:	47a0      	blx	r4
  40133a:	4b17      	ldr	r3, [pc, #92]	; (401398 <sd_mmc_init_read_blocks+0xd4>)
  40133c:	4798      	blx	r3
  40133e:	2405      	movs	r4, #5
  401340:	e012      	b.n	401368 <sd_mmc_init_read_blocks+0xa4>
  401342:	4b16      	ldr	r3, [pc, #88]	; (40139c <sd_mmc_init_read_blocks+0xd8>)
  401344:	801d      	strh	r5, [r3, #0]
  401346:	4b16      	ldr	r3, [pc, #88]	; (4013a0 <sd_mmc_init_read_blocks+0xdc>)
  401348:	801d      	strh	r5, [r3, #0]
  40134a:	e00d      	b.n	401368 <sd_mmc_init_read_blocks+0xa4>
  40134c:	4b15      	ldr	r3, [pc, #84]	; (4013a4 <sd_mmc_init_read_blocks+0xe0>)
  40134e:	4e16      	ldr	r6, [pc, #88]	; (4013a8 <sd_mmc_init_read_blocks+0xe4>)
  401350:	2d01      	cmp	r5, #1
  401352:	bf98      	it	ls
  401354:	461e      	movls	r6, r3
  401356:	4b15      	ldr	r3, [pc, #84]	; (4013ac <sd_mmc_init_read_blocks+0xe8>)
  401358:	681b      	ldr	r3, [r3, #0]
  40135a:	7bdb      	ldrb	r3, [r3, #15]
  40135c:	f003 0308 	and.w	r3, r3, #8
  401360:	b2db      	uxtb	r3, r3
  401362:	2b00      	cmp	r3, #0
  401364:	d1d2      	bne.n	40130c <sd_mmc_init_read_blocks+0x48>
  401366:	e7cf      	b.n	401308 <sd_mmc_init_read_blocks+0x44>
  401368:	4620      	mov	r0, r4
  40136a:	e8bd 87fc 	ldmia.w	sp!, {r2, r3, r4, r5, r6, r7, r8, r9, sl, pc}
  40136e:	bf00      	nop
  401370:	00400a59 	.word	0x00400a59
  401374:	00030d41 	.word	0x00030d41
  401378:	0040a216 	.word	0x0040a216
  40137c:	00405b53 	.word	0x00405b53
  401380:	0040a12d 	.word	0x0040a12d
  401384:	004024a1 	.word	0x004024a1
  401388:	00402475 	.word	0x00402475
  40138c:	e4580000 	.word	0xe4580000
  401390:	0040a146 	.word	0x0040a146
  401394:	00409f88 	.word	0x00409f88
  401398:	00400a15 	.word	0x00400a15
  40139c:	200009fc 	.word	0x200009fc
  4013a0:	200009f4 	.word	0x200009f4
  4013a4:	00081111 	.word	0x00081111
  4013a8:	00101112 	.word	0x00101112
  4013ac:	200009f8 	.word	0x200009f8
  4013b0:	00402449 	.word	0x00402449

004013b4 <sd_mmc_start_read_blocks>:
  4013b4:	b510      	push	{r4, lr}
  4013b6:	4b06      	ldr	r3, [pc, #24]	; (4013d0 <sd_mmc_start_read_blocks+0x1c>)
  4013b8:	460c      	mov	r4, r1
  4013ba:	4798      	blx	r3
  4013bc:	4b05      	ldr	r3, [pc, #20]	; (4013d4 <sd_mmc_start_read_blocks+0x20>)
  4013be:	b910      	cbnz	r0, 4013c6 <sd_mmc_start_read_blocks+0x12>
  4013c0:	8018      	strh	r0, [r3, #0]
  4013c2:	2005      	movs	r0, #5
  4013c4:	bd10      	pop	{r4, pc}
  4013c6:	881a      	ldrh	r2, [r3, #0]
  4013c8:	2000      	movs	r0, #0
  4013ca:	1b14      	subs	r4, r2, r4
  4013cc:	801c      	strh	r4, [r3, #0]
  4013ce:	bd10      	pop	{r4, pc}
  4013d0:	004025ad 	.word	0x004025ad
  4013d4:	200009fc 	.word	0x200009fc

004013d8 <sd_mmc_wait_end_of_read_blocks>:
  4013d8:	b510      	push	{r4, lr}
  4013da:	4b0e      	ldr	r3, [pc, #56]	; (401414 <sd_mmc_wait_end_of_read_blocks+0x3c>)
  4013dc:	4798      	blx	r3
  4013de:	b1a0      	cbz	r0, 40140a <sd_mmc_wait_end_of_read_blocks+0x32>
  4013e0:	4b0d      	ldr	r3, [pc, #52]	; (401418 <sd_mmc_wait_end_of_read_blocks+0x40>)
  4013e2:	8819      	ldrh	r1, [r3, #0]
  4013e4:	b999      	cbnz	r1, 40140e <sd_mmc_wait_end_of_read_blocks+0x36>
  4013e6:	4b0d      	ldr	r3, [pc, #52]	; (40141c <sd_mmc_wait_end_of_read_blocks+0x44>)
  4013e8:	881b      	ldrh	r3, [r3, #0]
  4013ea:	2b01      	cmp	r3, #1
  4013ec:	d102      	bne.n	4013f4 <sd_mmc_wait_end_of_read_blocks+0x1c>
  4013ee:	4b0c      	ldr	r3, [pc, #48]	; (401420 <sd_mmc_wait_end_of_read_blocks+0x48>)
  4013f0:	4798      	blx	r3
  4013f2:	e00c      	b.n	40140e <sd_mmc_wait_end_of_read_blocks+0x36>
  4013f4:	f243 100c 	movw	r0, #12556	; 0x310c
  4013f8:	4c0a      	ldr	r4, [pc, #40]	; (401424 <sd_mmc_wait_end_of_read_blocks+0x4c>)
  4013fa:	47a0      	blx	r4
  4013fc:	4601      	mov	r1, r0
  4013fe:	2800      	cmp	r0, #0
  401400:	d1f5      	bne.n	4013ee <sd_mmc_wait_end_of_read_blocks+0x16>
  401402:	f243 100c 	movw	r0, #12556	; 0x310c
  401406:	47a0      	blx	r4
  401408:	e7f1      	b.n	4013ee <sd_mmc_wait_end_of_read_blocks+0x16>
  40140a:	2005      	movs	r0, #5
  40140c:	bd10      	pop	{r4, pc}
  40140e:	2000      	movs	r0, #0
  401410:	bd10      	pop	{r4, pc}
  401412:	bf00      	nop
  401414:	004025e9 	.word	0x004025e9
  401418:	200009fc 	.word	0x200009fc
  40141c:	200009f4 	.word	0x200009f4
  401420:	00400a15 	.word	0x00400a15
  401424:	00402449 	.word	0x00402449

00401428 <sd_mmc_init_write_blocks>:
  401428:	b5f7      	push	{r0, r1, r2, r4, r5, r6, r7, lr}
  40142a:	4b1b      	ldr	r3, [pc, #108]	; (401498 <sd_mmc_init_write_blocks+0x70>)
  40142c:	460f      	mov	r7, r1
  40142e:	4614      	mov	r4, r2
  401430:	4798      	blx	r3
  401432:	4605      	mov	r5, r0
  401434:	2800      	cmp	r0, #0
  401436:	d12c      	bne.n	401492 <sd_mmc_init_write_blocks+0x6a>
  401438:	4b18      	ldr	r3, [pc, #96]	; (40149c <sd_mmc_init_write_blocks+0x74>)
  40143a:	4e19      	ldr	r6, [pc, #100]	; (4014a0 <sd_mmc_init_write_blocks+0x78>)
  40143c:	2c01      	cmp	r4, #1
  40143e:	bf88      	it	hi
  401440:	461e      	movhi	r6, r3
  401442:	4b18      	ldr	r3, [pc, #96]	; (4014a4 <sd_mmc_init_write_blocks+0x7c>)
  401444:	681b      	ldr	r3, [r3, #0]
  401446:	7bdb      	ldrb	r3, [r3, #15]
  401448:	f003 0308 	and.w	r3, r3, #8
  40144c:	b2db      	uxtb	r3, r3
  40144e:	b90b      	cbnz	r3, 401454 <sd_mmc_init_write_blocks+0x2c>
  401450:	0279      	lsls	r1, r7, #9
  401452:	e000      	b.n	401456 <sd_mmc_init_write_blocks+0x2e>
  401454:	4639      	mov	r1, r7
  401456:	2301      	movs	r3, #1
  401458:	9300      	str	r3, [sp, #0]
  40145a:	4630      	mov	r0, r6
  40145c:	f44f 7200 	mov.w	r2, #512	; 0x200
  401460:	4623      	mov	r3, r4
  401462:	4f11      	ldr	r7, [pc, #68]	; (4014a8 <sd_mmc_init_write_blocks+0x80>)
  401464:	47b8      	blx	r7
  401466:	b900      	cbnz	r0, 40146a <sd_mmc_init_write_blocks+0x42>
  401468:	e00b      	b.n	401482 <sd_mmc_init_write_blocks+0x5a>
  40146a:	4b10      	ldr	r3, [pc, #64]	; (4014ac <sd_mmc_init_write_blocks+0x84>)
  40146c:	4798      	blx	r3
  40146e:	4910      	ldr	r1, [pc, #64]	; (4014b0 <sd_mmc_init_write_blocks+0x88>)
  401470:	4603      	mov	r3, r0
  401472:	4001      	ands	r1, r0
  401474:	b149      	cbz	r1, 40148a <sd_mmc_init_write_blocks+0x62>
  401476:	480f      	ldr	r0, [pc, #60]	; (4014b4 <sd_mmc_init_write_blocks+0x8c>)
  401478:	490f      	ldr	r1, [pc, #60]	; (4014b8 <sd_mmc_init_write_blocks+0x90>)
  40147a:	f006 0219 	and.w	r2, r6, #25
  40147e:	4c0f      	ldr	r4, [pc, #60]	; (4014bc <sd_mmc_init_write_blocks+0x94>)
  401480:	47a0      	blx	r4
  401482:	4b0f      	ldr	r3, [pc, #60]	; (4014c0 <sd_mmc_init_write_blocks+0x98>)
  401484:	4798      	blx	r3
  401486:	2505      	movs	r5, #5
  401488:	e003      	b.n	401492 <sd_mmc_init_write_blocks+0x6a>
  40148a:	4b0e      	ldr	r3, [pc, #56]	; (4014c4 <sd_mmc_init_write_blocks+0x9c>)
  40148c:	801c      	strh	r4, [r3, #0]
  40148e:	4b0e      	ldr	r3, [pc, #56]	; (4014c8 <sd_mmc_init_write_blocks+0xa0>)
  401490:	801c      	strh	r4, [r3, #0]
  401492:	4628      	mov	r0, r5
  401494:	bdfe      	pop	{r1, r2, r3, r4, r5, r6, r7, pc}
  401496:	bf00      	nop
  401498:	00400a59 	.word	0x00400a59
  40149c:	00109119 	.word	0x00109119
  4014a0:	00089118 	.word	0x00089118
  4014a4:	200009f8 	.word	0x200009f8
  4014a8:	004024a1 	.word	0x004024a1
  4014ac:	00402475 	.word	0x00402475
  4014b0:	e4580000 	.word	0xe4580000
  4014b4:	0040a181 	.word	0x0040a181
  4014b8:	0040a1b9 	.word	0x0040a1b9
  4014bc:	00405b53 	.word	0x00405b53
  4014c0:	00400a15 	.word	0x00400a15
  4014c4:	200009fc 	.word	0x200009fc
  4014c8:	200009f4 	.word	0x200009f4

004014cc <sd_mmc_start_write_blocks>:
  4014cc:	b510      	push	{r4, lr}
  4014ce:	4b06      	ldr	r3, [pc, #24]	; (4014e8 <sd_mmc_start_write_blocks+0x1c>)
  4014d0:	460c      	mov	r4, r1
  4014d2:	4798      	blx	r3
  4014d4:	4b05      	ldr	r3, [pc, #20]	; (4014ec <sd_mmc_start_write_blocks+0x20>)
  4014d6:	b910      	cbnz	r0, 4014de <sd_mmc_start_write_blocks+0x12>
  4014d8:	8018      	strh	r0, [r3, #0]
  4014da:	2005      	movs	r0, #5
  4014dc:	bd10      	pop	{r4, pc}
  4014de:	881a      	ldrh	r2, [r3, #0]
  4014e0:	2000      	movs	r0, #0
  4014e2:	1b14      	subs	r4, r2, r4
  4014e4:	801c      	strh	r4, [r3, #0]
  4014e6:	bd10      	pop	{r4, pc}
  4014e8:	00402649 	.word	0x00402649
  4014ec:	200009fc 	.word	0x200009fc

004014f0 <sd_mmc_wait_end_of_write_blocks>:
  4014f0:	b510      	push	{r4, lr}
  4014f2:	4b0c      	ldr	r3, [pc, #48]	; (401524 <sd_mmc_wait_end_of_write_blocks+0x34>)
  4014f4:	4798      	blx	r3
  4014f6:	b180      	cbz	r0, 40151a <sd_mmc_wait_end_of_write_blocks+0x2a>
  4014f8:	4b0b      	ldr	r3, [pc, #44]	; (401528 <sd_mmc_wait_end_of_write_blocks+0x38>)
  4014fa:	8819      	ldrh	r1, [r3, #0]
  4014fc:	b979      	cbnz	r1, 40151e <sd_mmc_wait_end_of_write_blocks+0x2e>
  4014fe:	4b0b      	ldr	r3, [pc, #44]	; (40152c <sd_mmc_wait_end_of_write_blocks+0x3c>)
  401500:	4c0b      	ldr	r4, [pc, #44]	; (401530 <sd_mmc_wait_end_of_write_blocks+0x40>)
  401502:	881b      	ldrh	r3, [r3, #0]
  401504:	2b01      	cmp	r3, #1
  401506:	d101      	bne.n	40150c <sd_mmc_wait_end_of_write_blocks+0x1c>
  401508:	47a0      	blx	r4
  40150a:	e008      	b.n	40151e <sd_mmc_wait_end_of_write_blocks+0x2e>
  40150c:	f243 100c 	movw	r0, #12556	; 0x310c
  401510:	4b08      	ldr	r3, [pc, #32]	; (401534 <sd_mmc_wait_end_of_write_blocks+0x44>)
  401512:	4798      	blx	r3
  401514:	2800      	cmp	r0, #0
  401516:	d1f7      	bne.n	401508 <sd_mmc_wait_end_of_write_blocks+0x18>
  401518:	47a0      	blx	r4
  40151a:	2005      	movs	r0, #5
  40151c:	bd10      	pop	{r4, pc}
  40151e:	2000      	movs	r0, #0
  401520:	bd10      	pop	{r4, pc}
  401522:	bf00      	nop
  401524:	00402689 	.word	0x00402689
  401528:	200009fc 	.word	0x200009fc
  40152c:	200009f4 	.word	0x200009f4
  401530:	00400a15 	.word	0x00400a15
  401534:	00402449 	.word	0x00402449

00401538 <osc_enable>:
  401538:	3801      	subs	r0, #1
  40153a:	b508      	push	{r3, lr}
  40153c:	2806      	cmp	r0, #6
  40153e:	d818      	bhi.n	401572 <osc_enable+0x3a>
  401540:	e8df f000 	tbb	[pc, r0]
  401544:	0b090604 	.word	0x0b090604
  401548:	110d      	.short	0x110d
  40154a:	13          	.byte	0x13
  40154b:	00          	.byte	0x00
  40154c:	2000      	movs	r0, #0
  40154e:	e000      	b.n	401552 <osc_enable+0x1a>
  401550:	2001      	movs	r0, #1
  401552:	4b08      	ldr	r3, [pc, #32]	; (401574 <osc_enable+0x3c>)
  401554:	e005      	b.n	401562 <osc_enable+0x2a>
  401556:	2000      	movs	r0, #0
  401558:	e002      	b.n	401560 <osc_enable+0x28>
  40155a:	2010      	movs	r0, #16
  40155c:	e000      	b.n	401560 <osc_enable+0x28>
  40155e:	2020      	movs	r0, #32
  401560:	4b05      	ldr	r3, [pc, #20]	; (401578 <osc_enable+0x40>)
  401562:	4798      	blx	r3
  401564:	bd08      	pop	{r3, pc}
  401566:	2000      	movs	r0, #0
  401568:	e000      	b.n	40156c <osc_enable+0x34>
  40156a:	2001      	movs	r0, #1
  40156c:	213e      	movs	r1, #62	; 0x3e
  40156e:	4b03      	ldr	r3, [pc, #12]	; (40157c <osc_enable+0x44>)
  401570:	4798      	blx	r3
  401572:	bd08      	pop	{r3, pc}
  401574:	0040294d 	.word	0x0040294d
  401578:	00402971 	.word	0x00402971
  40157c:	004029dd 	.word	0x004029dd

00401580 <osc_wait_ready.constprop.5>:
  401580:	b510      	push	{r4, lr}
  401582:	4c02      	ldr	r4, [pc, #8]	; (40158c <osc_wait_ready.constprop.5+0xc>)
  401584:	47a0      	blx	r4
  401586:	2800      	cmp	r0, #0
  401588:	d0fc      	beq.n	401584 <osc_wait_ready.constprop.5+0x4>
  40158a:	bd10      	pop	{r4, pc}
  40158c:	00402a29 	.word	0x00402a29

00401590 <sysclk_enable_usb>:
  401590:	b510      	push	{r4, lr}
  401592:	2006      	movs	r0, #6
  401594:	4b09      	ldr	r3, [pc, #36]	; (4015bc <sysclk_enable_usb+0x2c>)
  401596:	4798      	blx	r3
  401598:	4b09      	ldr	r3, [pc, #36]	; (4015c0 <sysclk_enable_usb+0x30>)
  40159a:	4798      	blx	r3
  40159c:	4b09      	ldr	r3, [pc, #36]	; (4015c4 <sysclk_enable_usb+0x34>)
  40159e:	4798      	blx	r3
  4015a0:	4a09      	ldr	r2, [pc, #36]	; (4015c8 <sysclk_enable_usb+0x38>)
  4015a2:	4b0a      	ldr	r3, [pc, #40]	; (4015cc <sysclk_enable_usb+0x3c>)
  4015a4:	4c0a      	ldr	r4, [pc, #40]	; (4015d0 <sysclk_enable_usb+0x40>)
  4015a6:	62da      	str	r2, [r3, #44]	; 0x2c
  4015a8:	47a0      	blx	r4
  4015aa:	2800      	cmp	r0, #0
  4015ac:	d0fc      	beq.n	4015a8 <sysclk_enable_usb+0x18>
  4015ae:	2001      	movs	r0, #1
  4015b0:	4b08      	ldr	r3, [pc, #32]	; (4015d4 <sysclk_enable_usb+0x44>)
  4015b2:	4798      	blx	r3
  4015b4:	4b08      	ldr	r3, [pc, #32]	; (4015d8 <sysclk_enable_usb+0x48>)
  4015b6:	4798      	blx	r3
  4015b8:	bd10      	pop	{r4, pc}
  4015ba:	bf00      	nop
  4015bc:	00401539 	.word	0x00401539
  4015c0:	00401581 	.word	0x00401581
  4015c4:	00402a59 	.word	0x00402a59
  4015c8:	000f3f02 	.word	0x000f3f02
  4015cc:	400e0400 	.word	0x400e0400
  4015d0:	00402a65 	.word	0x00402a65
  4015d4:	00402af9 	.word	0x00402af9
  4015d8:	00402b0d 	.word	0x00402b0d

004015dc <sysclk_init>:
  4015dc:	b510      	push	{r4, lr}
  4015de:	480b      	ldr	r0, [pc, #44]	; (40160c <sysclk_init+0x30>)
  4015e0:	4b0b      	ldr	r3, [pc, #44]	; (401610 <sysclk_init+0x34>)
  4015e2:	4798      	blx	r3
  4015e4:	2006      	movs	r0, #6
  4015e6:	4b0b      	ldr	r3, [pc, #44]	; (401614 <sysclk_init+0x38>)
  4015e8:	4798      	blx	r3
  4015ea:	4b0b      	ldr	r3, [pc, #44]	; (401618 <sysclk_init+0x3c>)
  4015ec:	4798      	blx	r3
  4015ee:	4b0b      	ldr	r3, [pc, #44]	; (40161c <sysclk_init+0x40>)
  4015f0:	4798      	blx	r3
  4015f2:	4a0b      	ldr	r2, [pc, #44]	; (401620 <sysclk_init+0x44>)
  4015f4:	4b0b      	ldr	r3, [pc, #44]	; (401624 <sysclk_init+0x48>)
  4015f6:	4c0c      	ldr	r4, [pc, #48]	; (401628 <sysclk_init+0x4c>)
  4015f8:	629a      	str	r2, [r3, #40]	; 0x28
  4015fa:	47a0      	blx	r4
  4015fc:	2800      	cmp	r0, #0
  4015fe:	d0fc      	beq.n	4015fa <sysclk_init+0x1e>
  401600:	2010      	movs	r0, #16
  401602:	4b0a      	ldr	r3, [pc, #40]	; (40162c <sysclk_init+0x50>)
  401604:	4798      	blx	r3
  401606:	4b0a      	ldr	r3, [pc, #40]	; (401630 <sysclk_init+0x54>)
  401608:	4798      	blx	r3
  40160a:	bd10      	pop	{r4, pc}
  40160c:	03d09000 	.word	0x03d09000
  401610:	00400441 	.word	0x00400441
  401614:	00401539 	.word	0x00401539
  401618:	00401581 	.word	0x00401581
  40161c:	00402a39 	.word	0x00402a39
  401620:	201f3f03 	.word	0x201f3f03
  401624:	400e0400 	.word	0x400e0400
  401628:	00402a49 	.word	0x00402a49
  40162c:	00402905 	.word	0x00402905
  401630:	00400369 	.word	0x00400369

00401634 <mem_test_unit_ready>:
  401634:	b508      	push	{r3, lr}
  401636:	b910      	cbnz	r0, 40163e <mem_test_unit_ready+0xa>
  401638:	4b02      	ldr	r3, [pc, #8]	; (401644 <mem_test_unit_ready+0x10>)
  40163a:	4798      	blx	r3
  40163c:	bd08      	pop	{r3, pc}
  40163e:	2001      	movs	r0, #1
  401640:	bd08      	pop	{r3, pc}
  401642:	bf00      	nop
  401644:	004058e1 	.word	0x004058e1

00401648 <mem_read_capacity>:
  401648:	b508      	push	{r3, lr}
  40164a:	b918      	cbnz	r0, 401654 <mem_read_capacity+0xc>
  40164c:	4608      	mov	r0, r1
  40164e:	4b02      	ldr	r3, [pc, #8]	; (401658 <mem_read_capacity+0x10>)
  401650:	4798      	blx	r3
  401652:	bd08      	pop	{r3, pc}
  401654:	2001      	movs	r0, #1
  401656:	bd08      	pop	{r3, pc}
  401658:	00405911 	.word	0x00405911

0040165c <mem_sector_size>:
  40165c:	f1d0 0001 	rsbs	r0, r0, #1
  401660:	bf38      	it	cc
  401662:	2000      	movcc	r0, #0
  401664:	4770      	bx	lr
	...

00401668 <mem_wr_protect>:
  401668:	b508      	push	{r3, lr}
  40166a:	b910      	cbnz	r0, 401672 <mem_wr_protect+0xa>
  40166c:	4b02      	ldr	r3, [pc, #8]	; (401678 <mem_wr_protect+0x10>)
  40166e:	4798      	blx	r3
  401670:	bd08      	pop	{r3, pc}
  401672:	2001      	movs	r0, #1
  401674:	bd08      	pop	{r3, pc}
  401676:	bf00      	nop
  401678:	00405921 	.word	0x00405921

0040167c <memory_2_ram>:
  40167c:	b508      	push	{r3, lr}
  40167e:	b920      	cbnz	r0, 40168a <memory_2_ram+0xe>
  401680:	4608      	mov	r0, r1
  401682:	4b03      	ldr	r3, [pc, #12]	; (401690 <memory_2_ram+0x14>)
  401684:	4611      	mov	r1, r2
  401686:	4798      	blx	r3
  401688:	bd08      	pop	{r3, pc}
  40168a:	2001      	movs	r0, #1
  40168c:	bd08      	pop	{r3, pc}
  40168e:	bf00      	nop
  401690:	0040596d 	.word	0x0040596d

00401694 <ram_2_memory>:
  401694:	b508      	push	{r3, lr}
  401696:	b920      	cbnz	r0, 4016a2 <ram_2_memory+0xe>
  401698:	4608      	mov	r0, r1
  40169a:	4b03      	ldr	r3, [pc, #12]	; (4016a8 <ram_2_memory+0x14>)
  40169c:	4611      	mov	r1, r2
  40169e:	4798      	blx	r3
  4016a0:	bd08      	pop	{r3, pc}
  4016a2:	2001      	movs	r0, #1
  4016a4:	bd08      	pop	{r3, pc}
  4016a6:	bf00      	nop
  4016a8:	004059bd 	.word	0x004059bd

004016ac <cpu_irq_save>:
  4016ac:	4b03      	ldr	r3, [pc, #12]	; (4016bc <cpu_irq_save+0x10>)
  4016ae:	7818      	ldrb	r0, [r3, #0]
  4016b0:	b672      	cpsid	i
  4016b2:	f3bf 8f5f 	dmb	sy
  4016b6:	2200      	movs	r2, #0
  4016b8:	701a      	strb	r2, [r3, #0]
  4016ba:	4770      	bx	lr
  4016bc:	2000010c 	.word	0x2000010c

004016c0 <udi_cdc_comm_disable>:
  4016c0:	4b02      	ldr	r3, [pc, #8]	; (4016cc <udi_cdc_comm_disable+0xc>)
  4016c2:	781a      	ldrb	r2, [r3, #0]
  4016c4:	3a01      	subs	r2, #1
  4016c6:	b2d2      	uxtb	r2, r2
  4016c8:	701a      	strb	r2, [r3, #0]
  4016ca:	4770      	bx	lr
  4016cc:	20000c90 	.word	0x20000c90

004016d0 <udi_cdc_data_setup>:
  4016d0:	2000      	movs	r0, #0
  4016d2:	4770      	bx	lr

004016d4 <udi_cdc_getsetting>:
  4016d4:	2000      	movs	r0, #0
  4016d6:	4770      	bx	lr

004016d8 <udi_cdc_line_coding_received>:
  4016d8:	4770      	bx	lr
	...

004016dc <udi_cdc_data_disable>:
  4016dc:	b508      	push	{r3, lr}
  4016de:	4b06      	ldr	r3, [pc, #24]	; (4016f8 <udi_cdc_data_disable+0x1c>)
  4016e0:	781a      	ldrb	r2, [r3, #0]
  4016e2:	3a01      	subs	r2, #1
  4016e4:	b2d2      	uxtb	r2, r2
  4016e6:	701a      	strb	r2, [r3, #0]
  4016e8:	781b      	ldrb	r3, [r3, #0]
  4016ea:	4b04      	ldr	r3, [pc, #16]	; (4016fc <udi_cdc_data_disable+0x20>)
  4016ec:	4798      	blx	r3
  4016ee:	4b04      	ldr	r3, [pc, #16]	; (401700 <udi_cdc_data_disable+0x24>)
  4016f0:	2200      	movs	r2, #0
  4016f2:	701a      	strb	r2, [r3, #0]
  4016f4:	bd08      	pop	{r3, pc}
  4016f6:	bf00      	nop
  4016f8:	20000a06 	.word	0x20000a06
  4016fc:	00402199 	.word	0x00402199
  401700:	20000c96 	.word	0x20000c96

00401704 <cpu_irq_restore>:
  401704:	b128      	cbz	r0, 401712 <cpu_irq_restore+0xe>
  401706:	4b03      	ldr	r3, [pc, #12]	; (401714 <cpu_irq_restore+0x10>)
  401708:	2201      	movs	r2, #1
  40170a:	701a      	strb	r2, [r3, #0]
  40170c:	f3bf 8f5f 	dmb	sy
  401710:	b662      	cpsie	i
  401712:	4770      	bx	lr
  401714:	2000010c 	.word	0x2000010c

00401718 <udi_cdc_comm_setup>:
  401718:	4b12      	ldr	r3, [pc, #72]	; (401764 <udi_cdc_comm_setup+0x4c>)
  40171a:	781a      	ldrb	r2, [r3, #0]
  40171c:	f012 0f80 	tst.w	r2, #128	; 0x80
  401720:	f002 0260 	and.w	r2, r2, #96	; 0x60
  401724:	d008      	beq.n	401738 <udi_cdc_comm_setup+0x20>
  401726:	2a20      	cmp	r2, #32
  401728:	d11a      	bne.n	401760 <udi_cdc_comm_setup+0x48>
  40172a:	785a      	ldrb	r2, [r3, #1]
  40172c:	2a21      	cmp	r2, #33	; 0x21
  40172e:	d117      	bne.n	401760 <udi_cdc_comm_setup+0x48>
  401730:	88da      	ldrh	r2, [r3, #6]
  401732:	2a07      	cmp	r2, #7
  401734:	d114      	bne.n	401760 <udi_cdc_comm_setup+0x48>
  401736:	e00e      	b.n	401756 <udi_cdc_comm_setup+0x3e>
  401738:	2a20      	cmp	r2, #32
  40173a:	d111      	bne.n	401760 <udi_cdc_comm_setup+0x48>
  40173c:	7858      	ldrb	r0, [r3, #1]
  40173e:	2820      	cmp	r0, #32
  401740:	d004      	beq.n	40174c <udi_cdc_comm_setup+0x34>
  401742:	f1b0 0322 	subs.w	r3, r0, #34	; 0x22
  401746:	4258      	negs	r0, r3
  401748:	4158      	adcs	r0, r3
  40174a:	4770      	bx	lr
  40174c:	88da      	ldrh	r2, [r3, #6]
  40174e:	2a07      	cmp	r2, #7
  401750:	d106      	bne.n	401760 <udi_cdc_comm_setup+0x48>
  401752:	4905      	ldr	r1, [pc, #20]	; (401768 <udi_cdc_comm_setup+0x50>)
  401754:	6119      	str	r1, [r3, #16]
  401756:	4905      	ldr	r1, [pc, #20]	; (40176c <udi_cdc_comm_setup+0x54>)
  401758:	819a      	strh	r2, [r3, #12]
  40175a:	6099      	str	r1, [r3, #8]
  40175c:	2001      	movs	r0, #1
  40175e:	4770      	bx	lr
  401760:	2000      	movs	r0, #0
  401762:	4770      	bx	lr
  401764:	2000172c 	.word	0x2000172c
  401768:	004016d9 	.word	0x004016d9
  40176c:	200009ff 	.word	0x200009ff

00401770 <udi_cdc_tx_send.isra.5>:
  401770:	4b24      	ldr	r3, [pc, #144]	; (401804 <udi_cdc_tx_send.isra.5+0x94>)
  401772:	b573      	push	{r0, r1, r4, r5, r6, lr}
  401774:	781b      	ldrb	r3, [r3, #0]
  401776:	2b00      	cmp	r3, #0
  401778:	d143      	bne.n	401802 <udi_cdc_tx_send.isra.5+0x92>
  40177a:	4b23      	ldr	r3, [pc, #140]	; (401808 <udi_cdc_tx_send.isra.5+0x98>)
  40177c:	4798      	blx	r3
  40177e:	4b23      	ldr	r3, [pc, #140]	; (40180c <udi_cdc_tx_send.isra.5+0x9c>)
  401780:	881c      	ldrh	r4, [r3, #0]
  401782:	b158      	cbz	r0, 40179c <udi_cdc_tx_send.isra.5+0x2c>
  401784:	4b22      	ldr	r3, [pc, #136]	; (401810 <udi_cdc_tx_send.isra.5+0xa0>)
  401786:	4798      	blx	r3
  401788:	4284      	cmp	r4, r0
  40178a:	d03a      	beq.n	401802 <udi_cdc_tx_send.isra.5+0x92>
  40178c:	4b21      	ldr	r3, [pc, #132]	; (401814 <udi_cdc_tx_send.isra.5+0xa4>)
  40178e:	4798      	blx	r3
  401790:	4b21      	ldr	r3, [pc, #132]	; (401818 <udi_cdc_tx_send.isra.5+0xa8>)
  401792:	4a22      	ldr	r2, [pc, #136]	; (40181c <udi_cdc_tx_send.isra.5+0xac>)
  401794:	781c      	ldrb	r4, [r3, #0]
  401796:	7812      	ldrb	r2, [r2, #0]
  401798:	b942      	cbnz	r2, 4017ac <udi_cdc_tx_send.isra.5+0x3c>
  40179a:	e001      	b.n	4017a0 <udi_cdc_tx_send.isra.5+0x30>
  40179c:	4b20      	ldr	r3, [pc, #128]	; (401820 <udi_cdc_tx_send.isra.5+0xb0>)
  40179e:	e7f2      	b.n	401786 <udi_cdc_tx_send.isra.5+0x16>
  4017a0:	f1d4 0201 	rsbs	r2, r4, #1
  4017a4:	bf38      	it	cc
  4017a6:	2200      	movcc	r2, #0
  4017a8:	701a      	strb	r2, [r3, #0]
  4017aa:	e003      	b.n	4017b4 <udi_cdc_tx_send.isra.5+0x44>
  4017ac:	f1d4 0401 	rsbs	r4, r4, #1
  4017b0:	bf38      	it	cc
  4017b2:	2400      	movcc	r4, #0
  4017b4:	4b13      	ldr	r3, [pc, #76]	; (401804 <udi_cdc_tx_send.isra.5+0x94>)
  4017b6:	2201      	movs	r2, #1
  4017b8:	701a      	strb	r2, [r3, #0]
  4017ba:	4b1a      	ldr	r3, [pc, #104]	; (401824 <udi_cdc_tx_send.isra.5+0xb4>)
  4017bc:	4798      	blx	r3
  4017be:	4b1a      	ldr	r3, [pc, #104]	; (401828 <udi_cdc_tx_send.isra.5+0xb8>)
  4017c0:	f833 5014 	ldrh.w	r5, [r3, r4, lsl #1]
  4017c4:	f5b5 75a0 	subs.w	r5, r5, #320	; 0x140
  4017c8:	bf18      	it	ne
  4017ca:	2501      	movne	r5, #1
  4017cc:	b14d      	cbz	r5, 4017e2 <udi_cdc_tx_send.isra.5+0x72>
  4017ce:	4b0e      	ldr	r3, [pc, #56]	; (401808 <udi_cdc_tx_send.isra.5+0x98>)
  4017d0:	4798      	blx	r3
  4017d2:	4e0e      	ldr	r6, [pc, #56]	; (40180c <udi_cdc_tx_send.isra.5+0x9c>)
  4017d4:	b108      	cbz	r0, 4017da <udi_cdc_tx_send.isra.5+0x6a>
  4017d6:	4b0e      	ldr	r3, [pc, #56]	; (401810 <udi_cdc_tx_send.isra.5+0xa0>)
  4017d8:	e000      	b.n	4017dc <udi_cdc_tx_send.isra.5+0x6c>
  4017da:	4b11      	ldr	r3, [pc, #68]	; (401820 <udi_cdc_tx_send.isra.5+0xb0>)
  4017dc:	4798      	blx	r3
  4017de:	8030      	strh	r0, [r6, #0]
  4017e0:	e001      	b.n	4017e6 <udi_cdc_tx_send.isra.5+0x76>
  4017e2:	4b0a      	ldr	r3, [pc, #40]	; (40180c <udi_cdc_tx_send.isra.5+0x9c>)
  4017e4:	801d      	strh	r5, [r3, #0]
  4017e6:	4a11      	ldr	r2, [pc, #68]	; (40182c <udi_cdc_tx_send.isra.5+0xbc>)
  4017e8:	4b0f      	ldr	r3, [pc, #60]	; (401828 <udi_cdc_tx_send.isra.5+0xb8>)
  4017ea:	4629      	mov	r1, r5
  4017ec:	f833 3014 	ldrh.w	r3, [r3, r4, lsl #1]
  4017f0:	9200      	str	r2, [sp, #0]
  4017f2:	4a0f      	ldr	r2, [pc, #60]	; (401830 <udi_cdc_tx_send.isra.5+0xc0>)
  4017f4:	f44f 75a0 	mov.w	r5, #320	; 0x140
  4017f8:	fb05 2204 	mla	r2, r5, r4, r2
  4017fc:	2081      	movs	r0, #129	; 0x81
  4017fe:	4c0d      	ldr	r4, [pc, #52]	; (401834 <udi_cdc_tx_send.isra.5+0xc4>)
  401800:	47a0      	blx	r4
  401802:	bd7c      	pop	{r2, r3, r4, r5, r6, pc}
  401804:	20000c98 	.word	0x20000c98
  401808:	0040396d 	.word	0x0040396d
  40180c:	20000c94 	.word	0x20000c94
  401810:	004039d1 	.word	0x004039d1
  401814:	004016ad 	.word	0x004016ad
  401818:	20000a07 	.word	0x20000a07
  40181c:	20000f29 	.word	0x20000f29
  401820:	004039c1 	.word	0x004039c1
  401824:	00401705 	.word	0x00401705
  401828:	20000a08 	.word	0x20000a08
  40182c:	00401845 	.word	0x00401845
  401830:	20000a0c 	.word	0x20000a0c
  401834:	00403c95 	.word	0x00403c95

00401838 <udi_cdc_data_sof_notify>:
  401838:	b508      	push	{r3, lr}
  40183a:	4b01      	ldr	r3, [pc, #4]	; (401840 <udi_cdc_data_sof_notify+0x8>)
  40183c:	4798      	blx	r3
  40183e:	bd08      	pop	{r3, pc}
  401840:	00401771 	.word	0x00401771

00401844 <udi_cdc_data_sent>:
  401844:	b508      	push	{r3, lr}
  401846:	b970      	cbnz	r0, 401866 <udi_cdc_data_sent+0x22>
  401848:	4b07      	ldr	r3, [pc, #28]	; (401868 <udi_cdc_data_sent+0x24>)
  40184a:	7819      	ldrb	r1, [r3, #0]
  40184c:	4b07      	ldr	r3, [pc, #28]	; (40186c <udi_cdc_data_sent+0x28>)
  40184e:	f1d1 0101 	rsbs	r1, r1, #1
  401852:	bf38      	it	cc
  401854:	2100      	movcc	r1, #0
  401856:	f823 0011 	strh.w	r0, [r3, r1, lsl #1]
  40185a:	4b05      	ldr	r3, [pc, #20]	; (401870 <udi_cdc_data_sent+0x2c>)
  40185c:	7018      	strb	r0, [r3, #0]
  40185e:	4b05      	ldr	r3, [pc, #20]	; (401874 <udi_cdc_data_sent+0x30>)
  401860:	7018      	strb	r0, [r3, #0]
  401862:	4b05      	ldr	r3, [pc, #20]	; (401878 <udi_cdc_data_sent+0x34>)
  401864:	4798      	blx	r3
  401866:	bd08      	pop	{r3, pc}
  401868:	20000a07 	.word	0x20000a07
  40186c:	20000a08 	.word	0x20000a08
  401870:	20000f29 	.word	0x20000f29
  401874:	20000c98 	.word	0x20000c98
  401878:	00401771 	.word	0x00401771

0040187c <udi_cdc_comm_enable>:
  40187c:	b538      	push	{r3, r4, r5, lr}
  40187e:	4b12      	ldr	r3, [pc, #72]	; (4018c8 <udi_cdc_comm_enable+0x4c>)
  401880:	4c12      	ldr	r4, [pc, #72]	; (4018cc <udi_cdc_comm_enable+0x50>)
  401882:	2200      	movs	r2, #0
  401884:	7022      	strb	r2, [r4, #0]
  401886:	801a      	strh	r2, [r3, #0]
  401888:	4b11      	ldr	r3, [pc, #68]	; (4018d0 <udi_cdc_comm_enable+0x54>)
  40188a:	20a1      	movs	r0, #161	; 0xa1
  40188c:	7018      	strb	r0, [r3, #0]
  40188e:	2020      	movs	r0, #32
  401890:	7058      	strb	r0, [r3, #1]
  401892:	2002      	movs	r0, #2
  401894:	805a      	strh	r2, [r3, #2]
  401896:	809a      	strh	r2, [r3, #4]
  401898:	80d8      	strh	r0, [r3, #6]
  40189a:	811a      	strh	r2, [r3, #8]
  40189c:	4b0d      	ldr	r3, [pc, #52]	; (4018d4 <udi_cdc_comm_enable+0x58>)
  40189e:	4611      	mov	r1, r2
  4018a0:	701a      	strb	r2, [r3, #0]
  4018a2:	f06f 023d 	mvn.w	r2, #61	; 0x3d
  4018a6:	705a      	strb	r2, [r3, #1]
  4018a8:	2501      	movs	r5, #1
  4018aa:	2208      	movs	r2, #8
  4018ac:	709d      	strb	r5, [r3, #2]
  4018ae:	70d9      	strb	r1, [r3, #3]
  4018b0:	7119      	strb	r1, [r3, #4]
  4018b2:	7159      	strb	r1, [r3, #5]
  4018b4:	719a      	strb	r2, [r3, #6]
  4018b6:	4b08      	ldr	r3, [pc, #32]	; (4018d8 <udi_cdc_comm_enable+0x5c>)
  4018b8:	4798      	blx	r3
  4018ba:	b120      	cbz	r0, 4018c6 <udi_cdc_comm_enable+0x4a>
  4018bc:	7823      	ldrb	r3, [r4, #0]
  4018be:	4628      	mov	r0, r5
  4018c0:	195b      	adds	r3, r3, r5
  4018c2:	b2db      	uxtb	r3, r3
  4018c4:	7023      	strb	r3, [r4, #0]
  4018c6:	bd38      	pop	{r3, r4, r5, pc}
  4018c8:	20000f2a 	.word	0x20000f2a
  4018cc:	20000c90 	.word	0x20000c90
  4018d0:	20000c9c 	.word	0x20000c9c
  4018d4:	200009ff 	.word	0x200009ff
  4018d8:	0040218d 	.word	0x0040218d

004018dc <udi_cdc_multi_is_rx_ready>:
  4018dc:	b510      	push	{r4, lr}
  4018de:	4b09      	ldr	r3, [pc, #36]	; (401904 <udi_cdc_multi_is_rx_ready+0x28>)
  4018e0:	4798      	blx	r3
  4018e2:	4b09      	ldr	r3, [pc, #36]	; (401908 <udi_cdc_multi_is_rx_ready+0x2c>)
  4018e4:	881c      	ldrh	r4, [r3, #0]
  4018e6:	4b09      	ldr	r3, [pc, #36]	; (40190c <udi_cdc_multi_is_rx_ready+0x30>)
  4018e8:	b2a4      	uxth	r4, r4
  4018ea:	781a      	ldrb	r2, [r3, #0]
  4018ec:	4b08      	ldr	r3, [pc, #32]	; (401910 <udi_cdc_multi_is_rx_ready+0x34>)
  4018ee:	f833 3012 	ldrh.w	r3, [r3, r2, lsl #1]
  4018f2:	42a3      	cmp	r3, r4
  4018f4:	bf94      	ite	ls
  4018f6:	2400      	movls	r4, #0
  4018f8:	2401      	movhi	r4, #1
  4018fa:	4b06      	ldr	r3, [pc, #24]	; (401914 <udi_cdc_multi_is_rx_ready+0x38>)
  4018fc:	4798      	blx	r3
  4018fe:	4620      	mov	r0, r4
  401900:	bd10      	pop	{r4, pc}
  401902:	bf00      	nop
  401904:	004016ad 	.word	0x004016ad
  401908:	20000c92 	.word	0x20000c92
  40190c:	20000c97 	.word	0x20000c97
  401910:	20000c8c 	.word	0x20000c8c
  401914:	00401705 	.word	0x00401705

00401918 <udi_cdc_rx_start.isra.9>:
  401918:	b5f7      	push	{r0, r1, r2, r4, r5, r6, r7, lr}
  40191a:	4b17      	ldr	r3, [pc, #92]	; (401978 <udi_cdc_rx_start.isra.9+0x60>)
  40191c:	4798      	blx	r3
  40191e:	4a17      	ldr	r2, [pc, #92]	; (40197c <udi_cdc_rx_start.isra.9+0x64>)
  401920:	4b17      	ldr	r3, [pc, #92]	; (401980 <udi_cdc_rx_start.isra.9+0x68>)
  401922:	7814      	ldrb	r4, [r2, #0]
  401924:	781d      	ldrb	r5, [r3, #0]
  401926:	4606      	mov	r6, r0
  401928:	b945      	cbnz	r5, 40193c <udi_cdc_rx_start.isra.9+0x24>
  40192a:	4916      	ldr	r1, [pc, #88]	; (401984 <udi_cdc_rx_start.isra.9+0x6c>)
  40192c:	f8df e06c 	ldr.w	lr, [pc, #108]	; 40199c <udi_cdc_rx_start.isra.9+0x84>
  401930:	880f      	ldrh	r7, [r1, #0]
  401932:	f83e e014 	ldrh.w	lr, [lr, r4, lsl #1]
  401936:	b2bf      	uxth	r7, r7
  401938:	45be      	cmp	lr, r7
  40193a:	d904      	bls.n	401946 <udi_cdc_rx_start.isra.9+0x2e>
  40193c:	4630      	mov	r0, r6
  40193e:	4b12      	ldr	r3, [pc, #72]	; (401988 <udi_cdc_rx_start.isra.9+0x70>)
  401940:	4798      	blx	r3
  401942:	2000      	movs	r0, #0
  401944:	e017      	b.n	401976 <udi_cdc_rx_start.isra.9+0x5e>
  401946:	800d      	strh	r5, [r1, #0]
  401948:	f1d4 0101 	rsbs	r1, r4, #1
  40194c:	bf38      	it	cc
  40194e:	2100      	movcc	r1, #0
  401950:	2601      	movs	r6, #1
  401952:	7011      	strb	r1, [r2, #0]
  401954:	701e      	strb	r6, [r3, #0]
  401956:	4b0c      	ldr	r3, [pc, #48]	; (401988 <udi_cdc_rx_start.isra.9+0x70>)
  401958:	4798      	blx	r3
  40195a:	4b0c      	ldr	r3, [pc, #48]	; (40198c <udi_cdc_rx_start.isra.9+0x74>)
  40195c:	4628      	mov	r0, r5
  40195e:	4798      	blx	r3
  401960:	4a0b      	ldr	r2, [pc, #44]	; (401990 <udi_cdc_rx_start.isra.9+0x78>)
  401962:	f44f 73a0 	mov.w	r3, #320	; 0x140
  401966:	9200      	str	r2, [sp, #0]
  401968:	4a0a      	ldr	r2, [pc, #40]	; (401994 <udi_cdc_rx_start.isra.9+0x7c>)
  40196a:	2002      	movs	r0, #2
  40196c:	fb03 2204 	mla	r2, r3, r4, r2
  401970:	4631      	mov	r1, r6
  401972:	4c09      	ldr	r4, [pc, #36]	; (401998 <udi_cdc_rx_start.isra.9+0x80>)
  401974:	47a0      	blx	r4
  401976:	bdfe      	pop	{r1, r2, r3, r4, r5, r6, r7, pc}
  401978:	004016ad 	.word	0x004016ad
  40197c:	20000c97 	.word	0x20000c97
  401980:	20000f28 	.word	0x20000f28
  401984:	20000c92 	.word	0x20000c92
  401988:	00401705 	.word	0x00401705
  40198c:	004018dd 	.word	0x004018dd
  401990:	004019a1 	.word	0x004019a1
  401994:	20000ca8 	.word	0x20000ca8
  401998:	00403c95 	.word	0x00403c95
  40199c:	20000c8c 	.word	0x20000c8c

004019a0 <udi_cdc_data_received>:
  4019a0:	b513      	push	{r0, r1, r4, lr}
  4019a2:	4603      	mov	r3, r0
  4019a4:	b9c8      	cbnz	r0, 4019da <udi_cdc_data_received+0x3a>
  4019a6:	480d      	ldr	r0, [pc, #52]	; (4019dc <udi_cdc_data_received+0x3c>)
  4019a8:	7804      	ldrb	r4, [r0, #0]
  4019aa:	f1d4 0401 	rsbs	r4, r4, #1
  4019ae:	bf38      	it	cc
  4019b0:	2400      	movcc	r4, #0
  4019b2:	b959      	cbnz	r1, 4019cc <udi_cdc_data_received+0x2c>
  4019b4:	490a      	ldr	r1, [pc, #40]	; (4019e0 <udi_cdc_data_received+0x40>)
  4019b6:	4610      	mov	r0, r2
  4019b8:	4a0a      	ldr	r2, [pc, #40]	; (4019e4 <udi_cdc_data_received+0x44>)
  4019ba:	f44f 73a0 	mov.w	r3, #320	; 0x140
  4019be:	9100      	str	r1, [sp, #0]
  4019c0:	fb03 2204 	mla	r2, r3, r4, r2
  4019c4:	2101      	movs	r1, #1
  4019c6:	4c08      	ldr	r4, [pc, #32]	; (4019e8 <udi_cdc_data_received+0x48>)
  4019c8:	47a0      	blx	r4
  4019ca:	e006      	b.n	4019da <udi_cdc_data_received+0x3a>
  4019cc:	4a07      	ldr	r2, [pc, #28]	; (4019ec <udi_cdc_data_received+0x4c>)
  4019ce:	f822 1014 	strh.w	r1, [r2, r4, lsl #1]
  4019d2:	4a07      	ldr	r2, [pc, #28]	; (4019f0 <udi_cdc_data_received+0x50>)
  4019d4:	7013      	strb	r3, [r2, #0]
  4019d6:	4b07      	ldr	r3, [pc, #28]	; (4019f4 <udi_cdc_data_received+0x54>)
  4019d8:	4798      	blx	r3
  4019da:	bd1c      	pop	{r2, r3, r4, pc}
  4019dc:	20000c97 	.word	0x20000c97
  4019e0:	004019a1 	.word	0x004019a1
  4019e4:	20000ca8 	.word	0x20000ca8
  4019e8:	00403c95 	.word	0x00403c95
  4019ec:	20000c8c 	.word	0x20000c8c
  4019f0:	20000f28 	.word	0x20000f28
  4019f4:	00401919 	.word	0x00401919

004019f8 <udi_cdc_data_enable>:
  4019f8:	b570      	push	{r4, r5, r6, lr}
  4019fa:	4b14      	ldr	r3, [pc, #80]	; (401a4c <udi_cdc_data_enable+0x54>)
  4019fc:	4d14      	ldr	r5, [pc, #80]	; (401a50 <udi_cdc_data_enable+0x58>)
  4019fe:	2400      	movs	r4, #0
  401a00:	702c      	strb	r4, [r5, #0]
  401a02:	701c      	strb	r4, [r3, #0]
  401a04:	4b13      	ldr	r3, [pc, #76]	; (401a54 <udi_cdc_data_enable+0x5c>)
  401a06:	4626      	mov	r6, r4
  401a08:	701c      	strb	r4, [r3, #0]
  401a0a:	4b13      	ldr	r3, [pc, #76]	; (401a58 <udi_cdc_data_enable+0x60>)
  401a0c:	701c      	strb	r4, [r3, #0]
  401a0e:	4b13      	ldr	r3, [pc, #76]	; (401a5c <udi_cdc_data_enable+0x64>)
  401a10:	801c      	strh	r4, [r3, #0]
  401a12:	805c      	strh	r4, [r3, #2]
  401a14:	4b12      	ldr	r3, [pc, #72]	; (401a60 <udi_cdc_data_enable+0x68>)
  401a16:	801c      	strh	r4, [r3, #0]
  401a18:	4b12      	ldr	r3, [pc, #72]	; (401a64 <udi_cdc_data_enable+0x6c>)
  401a1a:	4798      	blx	r3
  401a1c:	4b12      	ldr	r3, [pc, #72]	; (401a68 <udi_cdc_data_enable+0x70>)
  401a1e:	701c      	strb	r4, [r3, #0]
  401a20:	4b12      	ldr	r3, [pc, #72]	; (401a6c <udi_cdc_data_enable+0x74>)
  401a22:	701c      	strb	r4, [r3, #0]
  401a24:	4b12      	ldr	r3, [pc, #72]	; (401a70 <udi_cdc_data_enable+0x78>)
  401a26:	801c      	strh	r4, [r3, #0]
  401a28:	4b12      	ldr	r3, [pc, #72]	; (401a74 <udi_cdc_data_enable+0x7c>)
  401a2a:	801c      	strh	r4, [r3, #0]
  401a2c:	4b12      	ldr	r3, [pc, #72]	; (401a78 <udi_cdc_data_enable+0x80>)
  401a2e:	4798      	blx	r3
  401a30:	b158      	cbz	r0, 401a4a <udi_cdc_data_enable+0x52>
  401a32:	782b      	ldrb	r3, [r5, #0]
  401a34:	3301      	adds	r3, #1
  401a36:	b2db      	uxtb	r3, r3
  401a38:	702b      	strb	r3, [r5, #0]
  401a3a:	782b      	ldrb	r3, [r5, #0]
  401a3c:	2b01      	cmp	r3, #1
  401a3e:	4618      	mov	r0, r3
  401a40:	d102      	bne.n	401a48 <udi_cdc_data_enable+0x50>
  401a42:	4a0e      	ldr	r2, [pc, #56]	; (401a7c <udi_cdc_data_enable+0x84>)
  401a44:	7013      	strb	r3, [r2, #0]
  401a46:	bd70      	pop	{r4, r5, r6, pc}
  401a48:	2001      	movs	r0, #1
  401a4a:	bd70      	pop	{r4, r5, r6, pc}
  401a4c:	20000c98 	.word	0x20000c98
  401a50:	20000a06 	.word	0x20000a06
  401a54:	20000f29 	.word	0x20000f29
  401a58:	20000a07 	.word	0x20000a07
  401a5c:	20000a08 	.word	0x20000a08
  401a60:	20000c94 	.word	0x20000c94
  401a64:	00401771 	.word	0x00401771
  401a68:	20000f28 	.word	0x20000f28
  401a6c:	20000c97 	.word	0x20000c97
  401a70:	20000c8c 	.word	0x20000c8c
  401a74:	20000c92 	.word	0x20000c92
  401a78:	00401919 	.word	0x00401919
  401a7c:	20000c96 	.word	0x20000c96

00401a80 <udi_cdc_multi_getc>:
  401a80:	e92d 47f0 	stmdb	sp!, {r4, r5, r6, r7, r8, r9, sl, lr}
  401a84:	4b19      	ldr	r3, [pc, #100]	; (401aec <udi_cdc_multi_getc+0x6c>)
  401a86:	f8df 9080 	ldr.w	r9, [pc, #128]	; 401b08 <udi_cdc_multi_getc+0x88>
  401a8a:	799e      	ldrb	r6, [r3, #6]
  401a8c:	4f18      	ldr	r7, [pc, #96]	; (401af0 <udi_cdc_multi_getc+0x70>)
  401a8e:	f1b6 0209 	subs.w	r2, r6, #9
  401a92:	4256      	negs	r6, r2
  401a94:	f8df a074 	ldr.w	sl, [pc, #116]	; 401b0c <udi_cdc_multi_getc+0x8c>
  401a98:	4156      	adcs	r6, r2
  401a9a:	f04f 0800 	mov.w	r8, #0
  401a9e:	47c8      	blx	r9
  401aa0:	4b14      	ldr	r3, [pc, #80]	; (401af4 <udi_cdc_multi_getc+0x74>)
  401aa2:	883d      	ldrh	r5, [r7, #0]
  401aa4:	f89a 4000 	ldrb.w	r4, [sl]
  401aa8:	4798      	blx	r3
  401aaa:	4b13      	ldr	r3, [pc, #76]	; (401af8 <udi_cdc_multi_getc+0x78>)
  401aac:	b2ad      	uxth	r5, r5
  401aae:	f833 3014 	ldrh.w	r3, [r3, r4, lsl #1]
  401ab2:	42ab      	cmp	r3, r5
  401ab4:	d804      	bhi.n	401ac0 <udi_cdc_multi_getc+0x40>
  401ab6:	4b11      	ldr	r3, [pc, #68]	; (401afc <udi_cdc_multi_getc+0x7c>)
  401ab8:	781c      	ldrb	r4, [r3, #0]
  401aba:	2c00      	cmp	r4, #0
  401abc:	d1ef      	bne.n	401a9e <udi_cdc_multi_getc+0x1e>
  401abe:	e011      	b.n	401ae4 <udi_cdc_multi_getc+0x64>
  401ac0:	f44f 73a0 	mov.w	r3, #320	; 0x140
  401ac4:	fb03 5404 	mla	r4, r3, r4, r5
  401ac8:	4b0d      	ldr	r3, [pc, #52]	; (401b00 <udi_cdc_multi_getc+0x80>)
  401aca:	3501      	adds	r5, #1
  401acc:	5d1c      	ldrb	r4, [r3, r4]
  401ace:	b2ad      	uxth	r5, r5
  401ad0:	4b0c      	ldr	r3, [pc, #48]	; (401b04 <udi_cdc_multi_getc+0x84>)
  401ad2:	ea48 0404 	orr.w	r4, r8, r4
  401ad6:	803d      	strh	r5, [r7, #0]
  401ad8:	4798      	blx	r3
  401ada:	b11e      	cbz	r6, 401ae4 <udi_cdc_multi_getc+0x64>
  401adc:	ea4f 2804 	mov.w	r8, r4, lsl #8
  401ae0:	2600      	movs	r6, #0
  401ae2:	e7dc      	b.n	401a9e <udi_cdc_multi_getc+0x1e>
  401ae4:	4620      	mov	r0, r4
  401ae6:	e8bd 87f0 	ldmia.w	sp!, {r4, r5, r6, r7, r8, r9, sl, pc}
  401aea:	bf00      	nop
  401aec:	200009ff 	.word	0x200009ff
  401af0:	20000c92 	.word	0x20000c92
  401af4:	00401705 	.word	0x00401705
  401af8:	20000c8c 	.word	0x20000c8c
  401afc:	20000c96 	.word	0x20000c96
  401b00:	20000ca8 	.word	0x20000ca8
  401b04:	00401919 	.word	0x00401919
  401b08:	004016ad 	.word	0x004016ad
  401b0c:	20000c97 	.word	0x20000c97

00401b10 <udi_cdc_getc>:
  401b10:	b508      	push	{r3, lr}
  401b12:	2000      	movs	r0, #0
  401b14:	4b01      	ldr	r3, [pc, #4]	; (401b1c <udi_cdc_getc+0xc>)
  401b16:	4798      	blx	r3
  401b18:	bd08      	pop	{r3, pc}
  401b1a:	bf00      	nop
  401b1c:	00401a81 	.word	0x00401a81

00401b20 <udi_cdc_multi_is_tx_ready>:
  401b20:	b538      	push	{r3, r4, r5, lr}
  401b22:	4c13      	ldr	r4, [pc, #76]	; (401b70 <udi_cdc_multi_is_tx_ready+0x50>)
  401b24:	4b13      	ldr	r3, [pc, #76]	; (401b74 <udi_cdc_multi_is_tx_ready+0x54>)
  401b26:	7822      	ldrb	r2, [r4, #0]
  401b28:	f833 3012 	ldrh.w	r3, [r3, r2, lsl #1]
  401b2c:	f5b3 7fa0 	cmp.w	r3, #320	; 0x140
  401b30:	d11b      	bne.n	401b6a <udi_cdc_multi_is_tx_ready+0x4a>
  401b32:	4d11      	ldr	r5, [pc, #68]	; (401b78 <udi_cdc_multi_is_tx_ready+0x58>)
  401b34:	782b      	ldrb	r3, [r5, #0]
  401b36:	b973      	cbnz	r3, 401b56 <udi_cdc_multi_is_tx_ready+0x36>
  401b38:	4b10      	ldr	r3, [pc, #64]	; (401b7c <udi_cdc_multi_is_tx_ready+0x5c>)
  401b3a:	4798      	blx	r3
  401b3c:	4b10      	ldr	r3, [pc, #64]	; (401b80 <udi_cdc_multi_is_tx_ready+0x60>)
  401b3e:	781b      	ldrb	r3, [r3, #0]
  401b40:	b93b      	cbnz	r3, 401b52 <udi_cdc_multi_is_tx_ready+0x32>
  401b42:	2301      	movs	r3, #1
  401b44:	702b      	strb	r3, [r5, #0]
  401b46:	7823      	ldrb	r3, [r4, #0]
  401b48:	f1d3 0301 	rsbs	r3, r3, #1
  401b4c:	bf38      	it	cc
  401b4e:	2300      	movcc	r3, #0
  401b50:	7023      	strb	r3, [r4, #0]
  401b52:	4b0c      	ldr	r3, [pc, #48]	; (401b84 <udi_cdc_multi_is_tx_ready+0x64>)
  401b54:	4798      	blx	r3
  401b56:	4b06      	ldr	r3, [pc, #24]	; (401b70 <udi_cdc_multi_is_tx_ready+0x50>)
  401b58:	781a      	ldrb	r2, [r3, #0]
  401b5a:	4b06      	ldr	r3, [pc, #24]	; (401b74 <udi_cdc_multi_is_tx_ready+0x54>)
  401b5c:	f833 0012 	ldrh.w	r0, [r3, r2, lsl #1]
  401b60:	f5b0 70a0 	subs.w	r0, r0, #320	; 0x140
  401b64:	bf18      	it	ne
  401b66:	2001      	movne	r0, #1
  401b68:	bd38      	pop	{r3, r4, r5, pc}
  401b6a:	2001      	movs	r0, #1
  401b6c:	bd38      	pop	{r3, r4, r5, pc}
  401b6e:	bf00      	nop
  401b70:	20000a07 	.word	0x20000a07
  401b74:	20000a08 	.word	0x20000a08
  401b78:	20000f29 	.word	0x20000f29
  401b7c:	004016ad 	.word	0x004016ad
  401b80:	20000c98 	.word	0x20000c98
  401b84:	00401705 	.word	0x00401705

00401b88 <udi_cdc_multi_putc>:
  401b88:	e92d 41f0 	stmdb	sp!, {r4, r5, r6, r7, r8, lr}
  401b8c:	4b16      	ldr	r3, [pc, #88]	; (401be8 <udi_cdc_multi_putc+0x60>)
  401b8e:	460c      	mov	r4, r1
  401b90:	799d      	ldrb	r5, [r3, #6]
  401b92:	4e16      	ldr	r6, [pc, #88]	; (401bec <udi_cdc_multi_putc+0x64>)
  401b94:	f1b5 0109 	subs.w	r1, r5, #9
  401b98:	424d      	negs	r5, r1
  401b9a:	4f15      	ldr	r7, [pc, #84]	; (401bf0 <udi_cdc_multi_putc+0x68>)
  401b9c:	f8df 8060 	ldr.w	r8, [pc, #96]	; 401c00 <udi_cdc_multi_putc+0x78>
  401ba0:	414d      	adcs	r5, r1
  401ba2:	2000      	movs	r0, #0
  401ba4:	47b0      	blx	r6
  401ba6:	b920      	cbnz	r0, 401bb2 <udi_cdc_multi_putc+0x2a>
  401ba8:	7838      	ldrb	r0, [r7, #0]
  401baa:	2800      	cmp	r0, #0
  401bac:	d1f9      	bne.n	401ba2 <udi_cdc_multi_putc+0x1a>
  401bae:	e8bd 81f0 	ldmia.w	sp!, {r4, r5, r6, r7, r8, pc}
  401bb2:	47c0      	blx	r8
  401bb4:	4b0f      	ldr	r3, [pc, #60]	; (401bf4 <udi_cdc_multi_putc+0x6c>)
  401bb6:	4a10      	ldr	r2, [pc, #64]	; (401bf8 <udi_cdc_multi_putc+0x70>)
  401bb8:	781b      	ldrb	r3, [r3, #0]
  401bba:	f44f 7ea0 	mov.w	lr, #320	; 0x140
  401bbe:	f832 1013 	ldrh.w	r1, [r2, r3, lsl #1]
  401bc2:	f8df c040 	ldr.w	ip, [pc, #64]	; 401c04 <udi_cdc_multi_putc+0x7c>
  401bc6:	fb0e 1e03 	mla	lr, lr, r3, r1
  401bca:	3101      	adds	r1, #1
  401bcc:	f822 1013 	strh.w	r1, [r2, r3, lsl #1]
  401bd0:	4b0a      	ldr	r3, [pc, #40]	; (401bfc <udi_cdc_multi_putc+0x74>)
  401bd2:	f80c 400e 	strb.w	r4, [ip, lr]
  401bd6:	4798      	blx	r3
  401bd8:	b115      	cbz	r5, 401be0 <udi_cdc_multi_putc+0x58>
  401bda:	1224      	asrs	r4, r4, #8
  401bdc:	2500      	movs	r5, #0
  401bde:	e7e0      	b.n	401ba2 <udi_cdc_multi_putc+0x1a>
  401be0:	2001      	movs	r0, #1
  401be2:	e8bd 81f0 	ldmia.w	sp!, {r4, r5, r6, r7, r8, pc}
  401be6:	bf00      	nop
  401be8:	200009ff 	.word	0x200009ff
  401bec:	00401b21 	.word	0x00401b21
  401bf0:	20000c96 	.word	0x20000c96
  401bf4:	20000a07 	.word	0x20000a07
  401bf8:	20000a08 	.word	0x20000a08
  401bfc:	00401705 	.word	0x00401705
  401c00:	004016ad 	.word	0x004016ad
  401c04:	20000a0c 	.word	0x20000a0c

00401c08 <udi_cdc_putc>:
  401c08:	b508      	push	{r3, lr}
  401c0a:	4601      	mov	r1, r0
  401c0c:	4b01      	ldr	r3, [pc, #4]	; (401c14 <udi_cdc_putc+0xc>)
  401c0e:	2000      	movs	r0, #0
  401c10:	4798      	blx	r3
  401c12:	bd08      	pop	{r3, pc}
  401c14:	00401b89 	.word	0x00401b89

00401c18 <udc_valid_address>:
  401c18:	b508      	push	{r3, lr}
  401c1a:	4b03      	ldr	r3, [pc, #12]	; (401c28 <udc_valid_address+0x10>)
  401c1c:	8858      	ldrh	r0, [r3, #2]
  401c1e:	4b03      	ldr	r3, [pc, #12]	; (401c2c <udc_valid_address+0x14>)
  401c20:	f000 007f 	and.w	r0, r0, #127	; 0x7f
  401c24:	4798      	blx	r3
  401c26:	bd08      	pop	{r3, pc}
  401c28:	2000172c 	.word	0x2000172c
  401c2c:	00403971 	.word	0x00403971

00401c30 <udc_update_iface_desc>:
  401c30:	b510      	push	{r4, lr}
  401c32:	4b12      	ldr	r3, [pc, #72]	; (401c7c <udc_update_iface_desc+0x4c>)
  401c34:	781b      	ldrb	r3, [r3, #0]
  401c36:	b12b      	cbz	r3, 401c44 <udc_update_iface_desc+0x14>
  401c38:	4b11      	ldr	r3, [pc, #68]	; (401c80 <udc_update_iface_desc+0x50>)
  401c3a:	681b      	ldr	r3, [r3, #0]
  401c3c:	681b      	ldr	r3, [r3, #0]
  401c3e:	791a      	ldrb	r2, [r3, #4]
  401c40:	4282      	cmp	r2, r0
  401c42:	d801      	bhi.n	401c48 <udc_update_iface_desc+0x18>
  401c44:	2000      	movs	r0, #0
  401c46:	bd10      	pop	{r4, pc}
  401c48:	4a0e      	ldr	r2, [pc, #56]	; (401c84 <udc_update_iface_desc+0x54>)
  401c4a:	6013      	str	r3, [r2, #0]
  401c4c:	885a      	ldrh	r2, [r3, #2]
  401c4e:	189a      	adds	r2, r3, r2
  401c50:	e00e      	b.n	401c70 <udc_update_iface_desc+0x40>
  401c52:	785c      	ldrb	r4, [r3, #1]
  401c54:	2c04      	cmp	r4, #4
  401c56:	d109      	bne.n	401c6c <udc_update_iface_desc+0x3c>
  401c58:	789c      	ldrb	r4, [r3, #2]
  401c5a:	4284      	cmp	r4, r0
  401c5c:	d106      	bne.n	401c6c <udc_update_iface_desc+0x3c>
  401c5e:	78dc      	ldrb	r4, [r3, #3]
  401c60:	428c      	cmp	r4, r1
  401c62:	d103      	bne.n	401c6c <udc_update_iface_desc+0x3c>
  401c64:	4a07      	ldr	r2, [pc, #28]	; (401c84 <udc_update_iface_desc+0x54>)
  401c66:	2001      	movs	r0, #1
  401c68:	6013      	str	r3, [r2, #0]
  401c6a:	bd10      	pop	{r4, pc}
  401c6c:	781c      	ldrb	r4, [r3, #0]
  401c6e:	191b      	adds	r3, r3, r4
  401c70:	429a      	cmp	r2, r3
  401c72:	d8ee      	bhi.n	401c52 <udc_update_iface_desc+0x22>
  401c74:	4a03      	ldr	r2, [pc, #12]	; (401c84 <udc_update_iface_desc+0x54>)
  401c76:	6013      	str	r3, [r2, #0]
  401c78:	e7e4      	b.n	401c44 <udc_update_iface_desc+0x14>
  401c7a:	bf00      	nop
  401c7c:	20000f36 	.word	0x20000f36
  401c80:	20000f2c 	.word	0x20000f2c
  401c84:	20000f38 	.word	0x20000f38

00401c88 <udc_next_desc_in_iface.constprop.3>:
  401c88:	4b08      	ldr	r3, [pc, #32]	; (401cac <udc_next_desc_in_iface.constprop.3+0x24>)
  401c8a:	681b      	ldr	r3, [r3, #0]
  401c8c:	681b      	ldr	r3, [r3, #0]
  401c8e:	885a      	ldrh	r2, [r3, #2]
  401c90:	189b      	adds	r3, r3, r2
  401c92:	e004      	b.n	401c9e <udc_next_desc_in_iface.constprop.3+0x16>
  401c94:	7842      	ldrb	r2, [r0, #1]
  401c96:	2a04      	cmp	r2, #4
  401c98:	d005      	beq.n	401ca6 <udc_next_desc_in_iface.constprop.3+0x1e>
  401c9a:	2a05      	cmp	r2, #5
  401c9c:	d004      	beq.n	401ca8 <udc_next_desc_in_iface.constprop.3+0x20>
  401c9e:	7802      	ldrb	r2, [r0, #0]
  401ca0:	1880      	adds	r0, r0, r2
  401ca2:	4283      	cmp	r3, r0
  401ca4:	d8f6      	bhi.n	401c94 <udc_next_desc_in_iface.constprop.3+0xc>
  401ca6:	2000      	movs	r0, #0
  401ca8:	4770      	bx	lr
  401caa:	bf00      	nop
  401cac:	20000f2c 	.word	0x20000f2c

00401cb0 <udc_iface_disable>:
  401cb0:	b5f8      	push	{r3, r4, r5, r6, r7, lr}
  401cb2:	2100      	movs	r1, #0
  401cb4:	4c0e      	ldr	r4, [pc, #56]	; (401cf0 <udc_iface_disable+0x40>)
  401cb6:	4606      	mov	r6, r0
  401cb8:	47a0      	blx	r4
  401cba:	b1c0      	cbz	r0, 401cee <udc_iface_disable+0x3e>
  401cbc:	4b0d      	ldr	r3, [pc, #52]	; (401cf4 <udc_iface_disable+0x44>)
  401cbe:	681b      	ldr	r3, [r3, #0]
  401cc0:	685b      	ldr	r3, [r3, #4]
  401cc2:	f853 5026 	ldr.w	r5, [r3, r6, lsl #2]
  401cc6:	68eb      	ldr	r3, [r5, #12]
  401cc8:	4798      	blx	r3
  401cca:	4601      	mov	r1, r0
  401ccc:	4630      	mov	r0, r6
  401cce:	47a0      	blx	r4
  401cd0:	b168      	cbz	r0, 401cee <udc_iface_disable+0x3e>
  401cd2:	4b09      	ldr	r3, [pc, #36]	; (401cf8 <udc_iface_disable+0x48>)
  401cd4:	4f09      	ldr	r7, [pc, #36]	; (401cfc <udc_iface_disable+0x4c>)
  401cd6:	681c      	ldr	r4, [r3, #0]
  401cd8:	4e09      	ldr	r6, [pc, #36]	; (401d00 <udc_iface_disable+0x50>)
  401cda:	4620      	mov	r0, r4
  401cdc:	47b8      	blx	r7
  401cde:	4604      	mov	r4, r0
  401ce0:	b110      	cbz	r0, 401ce8 <udc_iface_disable+0x38>
  401ce2:	7880      	ldrb	r0, [r0, #2]
  401ce4:	47b0      	blx	r6
  401ce6:	e7f8      	b.n	401cda <udc_iface_disable+0x2a>
  401ce8:	686b      	ldr	r3, [r5, #4]
  401cea:	4798      	blx	r3
  401cec:	2001      	movs	r0, #1
  401cee:	bdf8      	pop	{r3, r4, r5, r6, r7, pc}
  401cf0:	00401c31 	.word	0x00401c31
  401cf4:	20000f2c 	.word	0x20000f2c
  401cf8:	20000f38 	.word	0x20000f38
  401cfc:	00401c89 	.word	0x00401c89
  401d00:	00403ab1 	.word	0x00403ab1

00401d04 <udc_iface_enable>:
  401d04:	b5f8      	push	{r3, r4, r5, r6, r7, lr}
  401d06:	4b0e      	ldr	r3, [pc, #56]	; (401d40 <udc_iface_enable+0x3c>)
  401d08:	4605      	mov	r5, r0
  401d0a:	4798      	blx	r3
  401d0c:	b908      	cbnz	r0, 401d12 <udc_iface_enable+0xe>
  401d0e:	2000      	movs	r0, #0
  401d10:	bdf8      	pop	{r3, r4, r5, r6, r7, pc}
  401d12:	4b0c      	ldr	r3, [pc, #48]	; (401d44 <udc_iface_enable+0x40>)
  401d14:	4f0c      	ldr	r7, [pc, #48]	; (401d48 <udc_iface_enable+0x44>)
  401d16:	681c      	ldr	r4, [r3, #0]
  401d18:	4e0c      	ldr	r6, [pc, #48]	; (401d4c <udc_iface_enable+0x48>)
  401d1a:	4620      	mov	r0, r4
  401d1c:	47b8      	blx	r7
  401d1e:	4604      	mov	r4, r0
  401d20:	b130      	cbz	r0, 401d30 <udc_iface_enable+0x2c>
  401d22:	7880      	ldrb	r0, [r0, #2]
  401d24:	78e1      	ldrb	r1, [r4, #3]
  401d26:	88a2      	ldrh	r2, [r4, #4]
  401d28:	47b0      	blx	r6
  401d2a:	2800      	cmp	r0, #0
  401d2c:	d1f5      	bne.n	401d1a <udc_iface_enable+0x16>
  401d2e:	e7ee      	b.n	401d0e <udc_iface_enable+0xa>
  401d30:	4b07      	ldr	r3, [pc, #28]	; (401d50 <udc_iface_enable+0x4c>)
  401d32:	681b      	ldr	r3, [r3, #0]
  401d34:	685b      	ldr	r3, [r3, #4]
  401d36:	f853 3025 	ldr.w	r3, [r3, r5, lsl #2]
  401d3a:	681b      	ldr	r3, [r3, #0]
  401d3c:	4798      	blx	r3
  401d3e:	bdf8      	pop	{r3, r4, r5, r6, r7, pc}
  401d40:	00401c31 	.word	0x00401c31
  401d44:	20000f38 	.word	0x20000f38
  401d48:	00401c89 	.word	0x00401c89
  401d4c:	004039e1 	.word	0x004039e1
  401d50:	20000f2c 	.word	0x20000f2c

00401d54 <udc_start>:
  401d54:	b508      	push	{r3, lr}
  401d56:	4b01      	ldr	r3, [pc, #4]	; (401d5c <udc_start+0x8>)
  401d58:	4798      	blx	r3
  401d5a:	bd08      	pop	{r3, pc}
  401d5c:	00403889 	.word	0x00403889

00401d60 <udc_reset>:
  401d60:	b570      	push	{r4, r5, r6, lr}
  401d62:	4b0c      	ldr	r3, [pc, #48]	; (401d94 <udc_reset+0x34>)
  401d64:	781b      	ldrb	r3, [r3, #0]
  401d66:	b95b      	cbnz	r3, 401d80 <udc_reset+0x20>
  401d68:	4b0a      	ldr	r3, [pc, #40]	; (401d94 <udc_reset+0x34>)
  401d6a:	2200      	movs	r2, #0
  401d6c:	701a      	strb	r2, [r3, #0]
  401d6e:	4b0a      	ldr	r3, [pc, #40]	; (401d98 <udc_reset+0x38>)
  401d70:	2201      	movs	r2, #1
  401d72:	801a      	strh	r2, [r3, #0]
  401d74:	bd70      	pop	{r4, r5, r6, pc}
  401d76:	4620      	mov	r0, r4
  401d78:	3401      	adds	r4, #1
  401d7a:	47a8      	blx	r5
  401d7c:	b2e4      	uxtb	r4, r4
  401d7e:	e002      	b.n	401d86 <udc_reset+0x26>
  401d80:	4e06      	ldr	r6, [pc, #24]	; (401d9c <udc_reset+0x3c>)
  401d82:	4d07      	ldr	r5, [pc, #28]	; (401da0 <udc_reset+0x40>)
  401d84:	2400      	movs	r4, #0
  401d86:	6833      	ldr	r3, [r6, #0]
  401d88:	681b      	ldr	r3, [r3, #0]
  401d8a:	791b      	ldrb	r3, [r3, #4]
  401d8c:	42a3      	cmp	r3, r4
  401d8e:	d8f2      	bhi.n	401d76 <udc_reset+0x16>
  401d90:	e7ea      	b.n	401d68 <udc_reset+0x8>
  401d92:	bf00      	nop
  401d94:	20000f36 	.word	0x20000f36
  401d98:	20000f34 	.word	0x20000f34
  401d9c:	20000f2c 	.word	0x20000f2c
  401da0:	00401cb1 	.word	0x00401cb1

00401da4 <udc_sof_notify>:
  401da4:	b538      	push	{r3, r4, r5, lr}
  401da6:	4b0a      	ldr	r3, [pc, #40]	; (401dd0 <udc_sof_notify+0x2c>)
  401da8:	781b      	ldrb	r3, [r3, #0]
  401daa:	b94b      	cbnz	r3, 401dc0 <udc_sof_notify+0x1c>
  401dac:	bd38      	pop	{r3, r4, r5, pc}
  401dae:	685b      	ldr	r3, [r3, #4]
  401db0:	f853 3024 	ldr.w	r3, [r3, r4, lsl #2]
  401db4:	691b      	ldr	r3, [r3, #16]
  401db6:	b103      	cbz	r3, 401dba <udc_sof_notify+0x16>
  401db8:	4798      	blx	r3
  401dba:	3401      	adds	r4, #1
  401dbc:	b2e4      	uxtb	r4, r4
  401dbe:	e001      	b.n	401dc4 <udc_sof_notify+0x20>
  401dc0:	4d04      	ldr	r5, [pc, #16]	; (401dd4 <udc_sof_notify+0x30>)
  401dc2:	2400      	movs	r4, #0
  401dc4:	682b      	ldr	r3, [r5, #0]
  401dc6:	681a      	ldr	r2, [r3, #0]
  401dc8:	7912      	ldrb	r2, [r2, #4]
  401dca:	42a2      	cmp	r2, r4
  401dcc:	d8ef      	bhi.n	401dae <udc_sof_notify+0xa>
  401dce:	bd38      	pop	{r3, r4, r5, pc}
  401dd0:	20000f36 	.word	0x20000f36
  401dd4:	20000f2c 	.word	0x20000f2c

00401dd8 <udc_process_setup>:
  401dd8:	b570      	push	{r4, r5, r6, lr}
  401dda:	4a94      	ldr	r2, [pc, #592]	; (40202c <udc_process_setup+0x254>)
  401ddc:	2300      	movs	r3, #0
  401dde:	8193      	strh	r3, [r2, #12]
  401de0:	6113      	str	r3, [r2, #16]
  401de2:	6153      	str	r3, [r2, #20]
  401de4:	7813      	ldrb	r3, [r2, #0]
  401de6:	b2d8      	uxtb	r0, r3
  401de8:	0601      	lsls	r1, r0, #24
  401dea:	d502      	bpl.n	401df2 <udc_process_setup+0x1a>
  401dec:	88d2      	ldrh	r2, [r2, #6]
  401dee:	b902      	cbnz	r2, 401df2 <udc_process_setup+0x1a>
  401df0:	e171      	b.n	4020d6 <udc_process_setup+0x2fe>
  401df2:	f013 0160 	ands.w	r1, r3, #96	; 0x60
  401df6:	f040 814c 	bne.w	402092 <udc_process_setup+0x2ba>
  401dfa:	f010 0f80 	tst.w	r0, #128	; 0x80
  401dfe:	4c8b      	ldr	r4, [pc, #556]	; (40202c <udc_process_setup+0x254>)
  401e00:	f000 8094 	beq.w	401f2c <udc_process_setup+0x154>
  401e04:	88e5      	ldrh	r5, [r4, #6]
  401e06:	2d00      	cmp	r5, #0
  401e08:	f000 8143 	beq.w	402092 <udc_process_setup+0x2ba>
  401e0c:	f013 031f 	ands.w	r3, r3, #31
  401e10:	d152      	bne.n	401eb8 <udc_process_setup+0xe0>
  401e12:	7863      	ldrb	r3, [r4, #1]
  401e14:	2b06      	cmp	r3, #6
  401e16:	d009      	beq.n	401e2c <udc_process_setup+0x54>
  401e18:	2b08      	cmp	r3, #8
  401e1a:	d048      	beq.n	401eae <udc_process_setup+0xd6>
  401e1c:	2b00      	cmp	r3, #0
  401e1e:	f040 8138 	bne.w	402092 <udc_process_setup+0x2ba>
  401e22:	2d02      	cmp	r5, #2
  401e24:	f040 8135 	bne.w	402092 <udc_process_setup+0x2ba>
  401e28:	4881      	ldr	r0, [pc, #516]	; (402030 <udc_process_setup+0x258>)
  401e2a:	e07b      	b.n	401f24 <udc_process_setup+0x14c>
  401e2c:	8863      	ldrh	r3, [r4, #2]
  401e2e:	0a1d      	lsrs	r5, r3, #8
  401e30:	2d02      	cmp	r5, #2
  401e32:	d008      	beq.n	401e46 <udc_process_setup+0x6e>
  401e34:	2d03      	cmp	r5, #3
  401e36:	d016      	beq.n	401e66 <udc_process_setup+0x8e>
  401e38:	2d01      	cmp	r5, #1
  401e3a:	f040 812a 	bne.w	402092 <udc_process_setup+0x2ba>
  401e3e:	4b7d      	ldr	r3, [pc, #500]	; (402034 <udc_process_setup+0x25c>)
  401e40:	6818      	ldr	r0, [r3, #0]
  401e42:	7801      	ldrb	r1, [r0, #0]
  401e44:	e029      	b.n	401e9a <udc_process_setup+0xc2>
  401e46:	4a7b      	ldr	r2, [pc, #492]	; (402034 <udc_process_setup+0x25c>)
  401e48:	b2db      	uxtb	r3, r3
  401e4a:	6811      	ldr	r1, [r2, #0]
  401e4c:	7c49      	ldrb	r1, [r1, #17]
  401e4e:	4299      	cmp	r1, r3
  401e50:	f240 811f 	bls.w	402092 <udc_process_setup+0x2ba>
  401e54:	6852      	ldr	r2, [r2, #4]
  401e56:	f852 0033 	ldr.w	r0, [r2, r3, lsl #3]
  401e5a:	4b77      	ldr	r3, [pc, #476]	; (402038 <udc_process_setup+0x260>)
  401e5c:	8841      	ldrh	r1, [r0, #2]
  401e5e:	4798      	blx	r3
  401e60:	68a3      	ldr	r3, [r4, #8]
  401e62:	705d      	strb	r5, [r3, #1]
  401e64:	e01b      	b.n	401e9e <udc_process_setup+0xc6>
  401e66:	b2db      	uxtb	r3, r3
  401e68:	2b01      	cmp	r3, #1
  401e6a:	d004      	beq.n	401e76 <udc_process_setup+0x9e>
  401e6c:	d306      	bcc.n	401e7c <udc_process_setup+0xa4>
  401e6e:	2b02      	cmp	r3, #2
  401e70:	f040 810f 	bne.w	402092 <udc_process_setup+0x2ba>
  401e74:	e131      	b.n	4020da <udc_process_setup+0x302>
  401e76:	2109      	movs	r1, #9
  401e78:	4a70      	ldr	r2, [pc, #448]	; (40203c <udc_process_setup+0x264>)
  401e7a:	e130      	b.n	4020de <udc_process_setup+0x306>
  401e7c:	4870      	ldr	r0, [pc, #448]	; (402040 <udc_process_setup+0x268>)
  401e7e:	2104      	movs	r1, #4
  401e80:	e00b      	b.n	401e9a <udc_process_setup+0xc2>
  401e82:	5cd6      	ldrb	r6, [r2, r3]
  401e84:	eb04 0543 	add.w	r5, r4, r3, lsl #1
  401e88:	3301      	adds	r3, #1
  401e8a:	806e      	strh	r6, [r5, #2]
  401e8c:	b2dd      	uxtb	r5, r3
  401e8e:	428d      	cmp	r5, r1
  401e90:	486c      	ldr	r0, [pc, #432]	; (402044 <udc_process_setup+0x26c>)
  401e92:	d3f6      	bcc.n	401e82 <udc_process_setup+0xaa>
  401e94:	0049      	lsls	r1, r1, #1
  401e96:	3102      	adds	r1, #2
  401e98:	7001      	strb	r1, [r0, #0]
  401e9a:	4b67      	ldr	r3, [pc, #412]	; (402038 <udc_process_setup+0x260>)
  401e9c:	4798      	blx	r3
  401e9e:	4b63      	ldr	r3, [pc, #396]	; (40202c <udc_process_setup+0x254>)
  401ea0:	88da      	ldrh	r2, [r3, #6]
  401ea2:	8999      	ldrh	r1, [r3, #12]
  401ea4:	4291      	cmp	r1, r2
  401ea6:	f240 80f2 	bls.w	40208e <udc_process_setup+0x2b6>
  401eaa:	819a      	strh	r2, [r3, #12]
  401eac:	e0ef      	b.n	40208e <udc_process_setup+0x2b6>
  401eae:	2d01      	cmp	r5, #1
  401eb0:	f040 80ef 	bne.w	402092 <udc_process_setup+0x2ba>
  401eb4:	4864      	ldr	r0, [pc, #400]	; (402048 <udc_process_setup+0x270>)
  401eb6:	e035      	b.n	401f24 <udc_process_setup+0x14c>
  401eb8:	2b01      	cmp	r3, #1
  401eba:	d123      	bne.n	401f04 <udc_process_setup+0x12c>
  401ebc:	7863      	ldrb	r3, [r4, #1]
  401ebe:	2b0a      	cmp	r3, #10
  401ec0:	f040 80e7 	bne.w	402092 <udc_process_setup+0x2ba>
  401ec4:	2d01      	cmp	r5, #1
  401ec6:	f040 80e4 	bne.w	402092 <udc_process_setup+0x2ba>
  401eca:	4b5f      	ldr	r3, [pc, #380]	; (402048 <udc_process_setup+0x270>)
  401ecc:	781b      	ldrb	r3, [r3, #0]
  401ece:	2b00      	cmp	r3, #0
  401ed0:	f000 80df 	beq.w	402092 <udc_process_setup+0x2ba>
  401ed4:	4b5d      	ldr	r3, [pc, #372]	; (40204c <udc_process_setup+0x274>)
  401ed6:	7924      	ldrb	r4, [r4, #4]
  401ed8:	681d      	ldr	r5, [r3, #0]
  401eda:	682b      	ldr	r3, [r5, #0]
  401edc:	791b      	ldrb	r3, [r3, #4]
  401ede:	42a3      	cmp	r3, r4
  401ee0:	f240 80d7 	bls.w	402092 <udc_process_setup+0x2ba>
  401ee4:	4620      	mov	r0, r4
  401ee6:	4b5a      	ldr	r3, [pc, #360]	; (402050 <udc_process_setup+0x278>)
  401ee8:	4798      	blx	r3
  401eea:	2800      	cmp	r0, #0
  401eec:	f000 80d1 	beq.w	402092 <udc_process_setup+0x2ba>
  401ef0:	686b      	ldr	r3, [r5, #4]
  401ef2:	f853 3024 	ldr.w	r3, [r3, r4, lsl #2]
  401ef6:	68db      	ldr	r3, [r3, #12]
  401ef8:	4798      	blx	r3
  401efa:	4b56      	ldr	r3, [pc, #344]	; (402054 <udc_process_setup+0x27c>)
  401efc:	2101      	movs	r1, #1
  401efe:	7018      	strb	r0, [r3, #0]
  401f00:	4618      	mov	r0, r3
  401f02:	e010      	b.n	401f26 <udc_process_setup+0x14e>
  401f04:	2b02      	cmp	r3, #2
  401f06:	f040 80c4 	bne.w	402092 <udc_process_setup+0x2ba>
  401f0a:	7863      	ldrb	r3, [r4, #1]
  401f0c:	2b00      	cmp	r3, #0
  401f0e:	f040 80c0 	bne.w	402092 <udc_process_setup+0x2ba>
  401f12:	2d02      	cmp	r5, #2
  401f14:	f040 80bd 	bne.w	402092 <udc_process_setup+0x2ba>
  401f18:	4b4f      	ldr	r3, [pc, #316]	; (402058 <udc_process_setup+0x280>)
  401f1a:	7920      	ldrb	r0, [r4, #4]
  401f1c:	4798      	blx	r3
  401f1e:	4b4f      	ldr	r3, [pc, #316]	; (40205c <udc_process_setup+0x284>)
  401f20:	8018      	strh	r0, [r3, #0]
  401f22:	4618      	mov	r0, r3
  401f24:	4629      	mov	r1, r5
  401f26:	4b44      	ldr	r3, [pc, #272]	; (402038 <udc_process_setup+0x260>)
  401f28:	4798      	blx	r3
  401f2a:	e0b0      	b.n	40208e <udc_process_setup+0x2b6>
  401f2c:	f013 031f 	ands.w	r3, r3, #31
  401f30:	d152      	bne.n	401fd8 <udc_process_setup+0x200>
  401f32:	7863      	ldrb	r3, [r4, #1]
  401f34:	3b01      	subs	r3, #1
  401f36:	2b08      	cmp	r3, #8
  401f38:	f200 80ab 	bhi.w	402092 <udc_process_setup+0x2ba>
  401f3c:	e8df f013 	tbh	[pc, r3, lsl #1]
  401f40:	00a90011 	.word	0x00a90011
  401f44:	00a900a9 	.word	0x00a900a9
  401f48:	00a90009 	.word	0x00a90009
  401f4c:	00a900a9 	.word	0x00a900a9
  401f50:	0020      	.short	0x0020
  401f52:	88e3      	ldrh	r3, [r4, #6]
  401f54:	2b00      	cmp	r3, #0
  401f56:	f040 809c 	bne.w	402092 <udc_process_setup+0x2ba>
  401f5a:	4a41      	ldr	r2, [pc, #260]	; (402060 <udc_process_setup+0x288>)
  401f5c:	4b33      	ldr	r3, [pc, #204]	; (40202c <udc_process_setup+0x254>)
  401f5e:	611a      	str	r2, [r3, #16]
  401f60:	e095      	b.n	40208e <udc_process_setup+0x2b6>
  401f62:	88e3      	ldrh	r3, [r4, #6]
  401f64:	2b00      	cmp	r3, #0
  401f66:	f040 8094 	bne.w	402092 <udc_process_setup+0x2ba>
  401f6a:	4b30      	ldr	r3, [pc, #192]	; (40202c <udc_process_setup+0x254>)
  401f6c:	885b      	ldrh	r3, [r3, #2]
  401f6e:	2b01      	cmp	r3, #1
  401f70:	f040 808f 	bne.w	402092 <udc_process_setup+0x2ba>
  401f74:	4b2e      	ldr	r3, [pc, #184]	; (402030 <udc_process_setup+0x258>)
  401f76:	881a      	ldrh	r2, [r3, #0]
  401f78:	f022 0202 	bic.w	r2, r2, #2
  401f7c:	801a      	strh	r2, [r3, #0]
  401f7e:	e086      	b.n	40208e <udc_process_setup+0x2b6>
  401f80:	88e4      	ldrh	r4, [r4, #6]
  401f82:	4d2a      	ldr	r5, [pc, #168]	; (40202c <udc_process_setup+0x254>)
  401f84:	2c00      	cmp	r4, #0
  401f86:	f040 8084 	bne.w	402092 <udc_process_setup+0x2ba>
  401f8a:	4b36      	ldr	r3, [pc, #216]	; (402064 <udc_process_setup+0x28c>)
  401f8c:	4798      	blx	r3
  401f8e:	2800      	cmp	r0, #0
  401f90:	d07f      	beq.n	402092 <udc_process_setup+0x2ba>
  401f92:	4e28      	ldr	r6, [pc, #160]	; (402034 <udc_process_setup+0x25c>)
  401f94:	78aa      	ldrb	r2, [r5, #2]
  401f96:	6833      	ldr	r3, [r6, #0]
  401f98:	7c5b      	ldrb	r3, [r3, #17]
  401f9a:	429a      	cmp	r2, r3
  401f9c:	dc79      	bgt.n	402092 <udc_process_setup+0x2ba>
  401f9e:	4b32      	ldr	r3, [pc, #200]	; (402068 <udc_process_setup+0x290>)
  401fa0:	4798      	blx	r3
  401fa2:	78ab      	ldrb	r3, [r5, #2]
  401fa4:	4a28      	ldr	r2, [pc, #160]	; (402048 <udc_process_setup+0x270>)
  401fa6:	7013      	strb	r3, [r2, #0]
  401fa8:	2b00      	cmp	r3, #0
  401faa:	d070      	beq.n	40208e <udc_process_setup+0x2b6>
  401fac:	6871      	ldr	r1, [r6, #4]
  401fae:	4a27      	ldr	r2, [pc, #156]	; (40204c <udc_process_setup+0x274>)
  401fb0:	3b01      	subs	r3, #1
  401fb2:	eb01 03c3 	add.w	r3, r1, r3, lsl #3
  401fb6:	6013      	str	r3, [r2, #0]
  401fb8:	4616      	mov	r6, r2
  401fba:	4d2c      	ldr	r5, [pc, #176]	; (40206c <udc_process_setup+0x294>)
  401fbc:	e006      	b.n	401fcc <udc_process_setup+0x1f4>
  401fbe:	4620      	mov	r0, r4
  401fc0:	2100      	movs	r1, #0
  401fc2:	47a8      	blx	r5
  401fc4:	2800      	cmp	r0, #0
  401fc6:	d064      	beq.n	402092 <udc_process_setup+0x2ba>
  401fc8:	3401      	adds	r4, #1
  401fca:	b2e4      	uxtb	r4, r4
  401fcc:	6833      	ldr	r3, [r6, #0]
  401fce:	681b      	ldr	r3, [r3, #0]
  401fd0:	791b      	ldrb	r3, [r3, #4]
  401fd2:	42a3      	cmp	r3, r4
  401fd4:	d8f3      	bhi.n	401fbe <udc_process_setup+0x1e6>
  401fd6:	e05a      	b.n	40208e <udc_process_setup+0x2b6>
  401fd8:	2b01      	cmp	r3, #1
  401fda:	d115      	bne.n	402008 <udc_process_setup+0x230>
  401fdc:	7863      	ldrb	r3, [r4, #1]
  401fde:	2b0b      	cmp	r3, #11
  401fe0:	d157      	bne.n	402092 <udc_process_setup+0x2ba>
  401fe2:	88e3      	ldrh	r3, [r4, #6]
  401fe4:	2b00      	cmp	r3, #0
  401fe6:	d154      	bne.n	402092 <udc_process_setup+0x2ba>
  401fe8:	4b17      	ldr	r3, [pc, #92]	; (402048 <udc_process_setup+0x270>)
  401fea:	781b      	ldrb	r3, [r3, #0]
  401fec:	2b00      	cmp	r3, #0
  401fee:	d050      	beq.n	402092 <udc_process_setup+0x2ba>
  401ff0:	7925      	ldrb	r5, [r4, #4]
  401ff2:	4b1f      	ldr	r3, [pc, #124]	; (402070 <udc_process_setup+0x298>)
  401ff4:	4628      	mov	r0, r5
  401ff6:	8864      	ldrh	r4, [r4, #2]
  401ff8:	4798      	blx	r3
  401ffa:	2800      	cmp	r0, #0
  401ffc:	d049      	beq.n	402092 <udc_process_setup+0x2ba>
  401ffe:	4628      	mov	r0, r5
  402000:	b2e1      	uxtb	r1, r4
  402002:	4b1a      	ldr	r3, [pc, #104]	; (40206c <udc_process_setup+0x294>)
  402004:	4798      	blx	r3
  402006:	e041      	b.n	40208c <udc_process_setup+0x2b4>
  402008:	2b02      	cmp	r3, #2
  40200a:	d142      	bne.n	402092 <udc_process_setup+0x2ba>
  40200c:	7863      	ldrb	r3, [r4, #1]
  40200e:	2b01      	cmp	r3, #1
  402010:	d002      	beq.n	402018 <udc_process_setup+0x240>
  402012:	2b03      	cmp	r3, #3
  402014:	d13d      	bne.n	402092 <udc_process_setup+0x2ba>
  402016:	e02f      	b.n	402078 <udc_process_setup+0x2a0>
  402018:	88e3      	ldrh	r3, [r4, #6]
  40201a:	2b00      	cmp	r3, #0
  40201c:	d139      	bne.n	402092 <udc_process_setup+0x2ba>
  40201e:	8863      	ldrh	r3, [r4, #2]
  402020:	2b00      	cmp	r3, #0
  402022:	d136      	bne.n	402092 <udc_process_setup+0x2ba>
  402024:	7920      	ldrb	r0, [r4, #4]
  402026:	4b13      	ldr	r3, [pc, #76]	; (402074 <udc_process_setup+0x29c>)
  402028:	e02f      	b.n	40208a <udc_process_setup+0x2b2>
  40202a:	bf00      	nop
  40202c:	2000172c 	.word	0x2000172c
  402030:	20000f34 	.word	0x20000f34
  402034:	20000074 	.word	0x20000074
  402038:	004039d5 	.word	0x004039d5
  40203c:	200000e8 	.word	0x200000e8
  402040:	20000108 	.word	0x20000108
  402044:	200000f4 	.word	0x200000f4
  402048:	20000f36 	.word	0x20000f36
  40204c:	20000f2c 	.word	0x20000f2c
  402050:	00401c31 	.word	0x00401c31
  402054:	20000f30 	.word	0x20000f30
  402058:	00403aed 	.word	0x00403aed
  40205c:	20000f32 	.word	0x20000f32
  402060:	00401c19 	.word	0x00401c19
  402064:	004039a9 	.word	0x004039a9
  402068:	00401d61 	.word	0x00401d61
  40206c:	00401d05 	.word	0x00401d05
  402070:	00401cb1 	.word	0x00401cb1
  402074:	00403bcd 	.word	0x00403bcd
  402078:	88e3      	ldrh	r3, [r4, #6]
  40207a:	b953      	cbnz	r3, 402092 <udc_process_setup+0x2ba>
  40207c:	8863      	ldrh	r3, [r4, #2]
  40207e:	b943      	cbnz	r3, 402092 <udc_process_setup+0x2ba>
  402080:	7920      	ldrb	r0, [r4, #4]
  402082:	4b18      	ldr	r3, [pc, #96]	; (4020e4 <udc_process_setup+0x30c>)
  402084:	4798      	blx	r3
  402086:	7920      	ldrb	r0, [r4, #4]
  402088:	4b17      	ldr	r3, [pc, #92]	; (4020e8 <udc_process_setup+0x310>)
  40208a:	4798      	blx	r3
  40208c:	b108      	cbz	r0, 402092 <udc_process_setup+0x2ba>
  40208e:	2001      	movs	r0, #1
  402090:	bd70      	pop	{r4, r5, r6, pc}
  402092:	4b16      	ldr	r3, [pc, #88]	; (4020ec <udc_process_setup+0x314>)
  402094:	781a      	ldrb	r2, [r3, #0]
  402096:	f002 021f 	and.w	r2, r2, #31
  40209a:	2a01      	cmp	r2, #1
  40209c:	d11b      	bne.n	4020d6 <udc_process_setup+0x2fe>
  40209e:	4a14      	ldr	r2, [pc, #80]	; (4020f0 <udc_process_setup+0x318>)
  4020a0:	7812      	ldrb	r2, [r2, #0]
  4020a2:	b1c2      	cbz	r2, 4020d6 <udc_process_setup+0x2fe>
  4020a4:	791c      	ldrb	r4, [r3, #4]
  4020a6:	4b13      	ldr	r3, [pc, #76]	; (4020f4 <udc_process_setup+0x31c>)
  4020a8:	681e      	ldr	r6, [r3, #0]
  4020aa:	6833      	ldr	r3, [r6, #0]
  4020ac:	791b      	ldrb	r3, [r3, #4]
  4020ae:	42a3      	cmp	r3, r4
  4020b0:	d911      	bls.n	4020d6 <udc_process_setup+0x2fe>
  4020b2:	4620      	mov	r0, r4
  4020b4:	2100      	movs	r1, #0
  4020b6:	4d10      	ldr	r5, [pc, #64]	; (4020f8 <udc_process_setup+0x320>)
  4020b8:	47a8      	blx	r5
  4020ba:	b160      	cbz	r0, 4020d6 <udc_process_setup+0x2fe>
  4020bc:	6873      	ldr	r3, [r6, #4]
  4020be:	f853 6024 	ldr.w	r6, [r3, r4, lsl #2]
  4020c2:	68f3      	ldr	r3, [r6, #12]
  4020c4:	4798      	blx	r3
  4020c6:	4601      	mov	r1, r0
  4020c8:	4620      	mov	r0, r4
  4020ca:	47a8      	blx	r5
  4020cc:	b118      	cbz	r0, 4020d6 <udc_process_setup+0x2fe>
  4020ce:	68b3      	ldr	r3, [r6, #8]
  4020d0:	4798      	blx	r3
  4020d2:	2800      	cmp	r0, #0
  4020d4:	d1db      	bne.n	40208e <udc_process_setup+0x2b6>
  4020d6:	2000      	movs	r0, #0
  4020d8:	bd70      	pop	{r4, r5, r6, pc}
  4020da:	4a08      	ldr	r2, [pc, #32]	; (4020fc <udc_process_setup+0x324>)
  4020dc:	2103      	movs	r1, #3
  4020de:	2300      	movs	r3, #0
  4020e0:	4c07      	ldr	r4, [pc, #28]	; (402100 <udc_process_setup+0x328>)
  4020e2:	e6ce      	b.n	401e82 <udc_process_setup+0xaa>
  4020e4:	00403d89 	.word	0x00403d89
  4020e8:	00403b2d 	.word	0x00403b2d
  4020ec:	2000172c 	.word	0x2000172c
  4020f0:	20000f36 	.word	0x20000f36
  4020f4:	20000f2c 	.word	0x20000f2c
  4020f8:	00401c31 	.word	0x00401c31
  4020fc:	200000e4 	.word	0x200000e4
  402100:	200000f4 	.word	0x200000f4

00402104 <_read>:
  402104:	e92d 41f0 	stmdb	sp!, {r4, r5, r6, r7, r8, lr}
  402108:	4615      	mov	r5, r2
  40210a:	b990      	cbnz	r0, 402132 <_read+0x2e>
  40210c:	4614      	mov	r4, r2
  40210e:	188f      	adds	r7, r1, r2
  402110:	4e0a      	ldr	r6, [pc, #40]	; (40213c <_read+0x38>)
  402112:	f8df 802c 	ldr.w	r8, [pc, #44]	; 402140 <_read+0x3c>
  402116:	e004      	b.n	402122 <_read+0x1e>
  402118:	6830      	ldr	r0, [r6, #0]
  40211a:	f8d8 3000 	ldr.w	r3, [r8]
  40211e:	4798      	blx	r3
  402120:	3c01      	subs	r4, #1
  402122:	2c00      	cmp	r4, #0
  402124:	ebc4 0107 	rsb	r1, r4, r7
  402128:	dcf6      	bgt.n	402118 <_read+0x14>
  40212a:	ea25 70e5 	bic.w	r0, r5, r5, asr #31
  40212e:	e8bd 81f0 	ldmia.w	sp!, {r4, r5, r6, r7, r8, pc}
  402132:	f04f 30ff 	mov.w	r0, #4294967295
  402136:	e8bd 81f0 	ldmia.w	sp!, {r4, r5, r6, r7, r8, pc}
  40213a:	bf00      	nop
  40213c:	20001728 	.word	0x20001728
  402140:	20001720 	.word	0x20001720

00402144 <stdio_usb_getchar>:
  402144:	4b05      	ldr	r3, [pc, #20]	; (40215c <stdio_usb_getchar+0x18>)
  402146:	b510      	push	{r4, lr}
  402148:	781b      	ldrb	r3, [r3, #0]
  40214a:	460c      	mov	r4, r1
  40214c:	b90b      	cbnz	r3, 402152 <stdio_usb_getchar+0xe>
  40214e:	700b      	strb	r3, [r1, #0]
  402150:	bd10      	pop	{r4, pc}
  402152:	4b03      	ldr	r3, [pc, #12]	; (402160 <stdio_usb_getchar+0x1c>)
  402154:	4798      	blx	r3
  402156:	7020      	strb	r0, [r4, #0]
  402158:	bd10      	pop	{r4, pc}
  40215a:	bf00      	nop
  40215c:	20000f3c 	.word	0x20000f3c
  402160:	00401b11 	.word	0x00401b11

00402164 <stdio_usb_putchar>:
  402164:	b508      	push	{r3, lr}
  402166:	4b07      	ldr	r3, [pc, #28]	; (402184 <stdio_usb_putchar+0x20>)
  402168:	781b      	ldrb	r3, [r3, #0]
  40216a:	b143      	cbz	r3, 40217e <stdio_usb_putchar+0x1a>
  40216c:	4608      	mov	r0, r1
  40216e:	4b06      	ldr	r3, [pc, #24]	; (402188 <stdio_usb_putchar+0x24>)
  402170:	4798      	blx	r3
  402172:	2800      	cmp	r0, #0
  402174:	bf0c      	ite	eq
  402176:	f04f 30ff 	moveq.w	r0, #4294967295
  40217a:	2000      	movne	r0, #0
  40217c:	bd08      	pop	{r3, pc}
  40217e:	4618      	mov	r0, r3
  402180:	bd08      	pop	{r3, pc}
  402182:	bf00      	nop
  402184:	20000f3c 	.word	0x20000f3c
  402188:	00401c09 	.word	0x00401c09

0040218c <stdio_usb_enable>:
  40218c:	4b01      	ldr	r3, [pc, #4]	; (402194 <stdio_usb_enable+0x8>)
  40218e:	2001      	movs	r0, #1
  402190:	7018      	strb	r0, [r3, #0]
  402192:	4770      	bx	lr
  402194:	20000f3c 	.word	0x20000f3c

00402198 <stdio_usb_disable>:
  402198:	4b01      	ldr	r3, [pc, #4]	; (4021a0 <stdio_usb_disable+0x8>)
  40219a:	2200      	movs	r2, #0
  40219c:	701a      	strb	r2, [r3, #0]
  40219e:	4770      	bx	lr
  4021a0:	20000f3c 	.word	0x20000f3c

004021a4 <stdio_usb_init>:
  4021a4:	b538      	push	{r3, r4, r5, lr}
  4021a6:	4b0d      	ldr	r3, [pc, #52]	; (4021dc <stdio_usb_init+0x38>)
  4021a8:	2200      	movs	r2, #0
  4021aa:	601a      	str	r2, [r3, #0]
  4021ac:	4a0c      	ldr	r2, [pc, #48]	; (4021e0 <stdio_usb_init+0x3c>)
  4021ae:	4b0d      	ldr	r3, [pc, #52]	; (4021e4 <stdio_usb_init+0x40>)
  4021b0:	601a      	str	r2, [r3, #0]
  4021b2:	4a0d      	ldr	r2, [pc, #52]	; (4021e8 <stdio_usb_init+0x44>)
  4021b4:	4b0d      	ldr	r3, [pc, #52]	; (4021ec <stdio_usb_init+0x48>)
  4021b6:	601a      	str	r2, [r3, #0]
  4021b8:	4b0d      	ldr	r3, [pc, #52]	; (4021f0 <stdio_usb_init+0x4c>)
  4021ba:	4798      	blx	r3
  4021bc:	4b0d      	ldr	r3, [pc, #52]	; (4021f4 <stdio_usb_init+0x50>)
  4021be:	4798      	blx	r3
  4021c0:	b908      	cbnz	r0, 4021c6 <stdio_usb_init+0x22>
  4021c2:	4b0d      	ldr	r3, [pc, #52]	; (4021f8 <stdio_usb_init+0x54>)
  4021c4:	4798      	blx	r3
  4021c6:	4d0d      	ldr	r5, [pc, #52]	; (4021fc <stdio_usb_init+0x58>)
  4021c8:	2100      	movs	r1, #0
  4021ca:	682b      	ldr	r3, [r5, #0]
  4021cc:	4c0c      	ldr	r4, [pc, #48]	; (402200 <stdio_usb_init+0x5c>)
  4021ce:	6898      	ldr	r0, [r3, #8]
  4021d0:	47a0      	blx	r4
  4021d2:	682b      	ldr	r3, [r5, #0]
  4021d4:	2100      	movs	r1, #0
  4021d6:	6858      	ldr	r0, [r3, #4]
  4021d8:	47a0      	blx	r4
  4021da:	bd38      	pop	{r3, r4, r5, pc}
  4021dc:	20001728 	.word	0x20001728
  4021e0:	00402165 	.word	0x00402165
  4021e4:	20001724 	.word	0x20001724
  4021e8:	00402145 	.word	0x00402145
  4021ec:	20001720 	.word	0x20001720
  4021f0:	00401d55 	.word	0x00401d55
  4021f4:	00403885 	.word	0x00403885
  4021f8:	0040390d 	.word	0x0040390d
  4021fc:	20000110 	.word	0x20000110
  402200:	00405be9 	.word	0x00405be9

00402204 <_write>:
  402204:	3801      	subs	r0, #1
  402206:	2802      	cmp	r0, #2
  402208:	e92d 41f0 	stmdb	sp!, {r4, r5, r6, r7, r8, lr}
  40220c:	460d      	mov	r5, r1
  40220e:	4617      	mov	r7, r2
  402210:	d90b      	bls.n	40222a <_write+0x26>
  402212:	f04f 34ff 	mov.w	r4, #4294967295
  402216:	e00e      	b.n	402236 <_write+0x32>
  402218:	6830      	ldr	r0, [r6, #0]
  40221a:	f8d8 3000 	ldr.w	r3, [r8]
  40221e:	5d29      	ldrb	r1, [r5, r4]
  402220:	4798      	blx	r3
  402222:	2800      	cmp	r0, #0
  402224:	dbf5      	blt.n	402212 <_write+0xe>
  402226:	3401      	adds	r4, #1
  402228:	e003      	b.n	402232 <_write+0x2e>
  40222a:	4e04      	ldr	r6, [pc, #16]	; (40223c <_write+0x38>)
  40222c:	f8df 8010 	ldr.w	r8, [pc, #16]	; 402240 <_write+0x3c>
  402230:	2400      	movs	r4, #0
  402232:	42bc      	cmp	r4, r7
  402234:	d1f0      	bne.n	402218 <_write+0x14>
  402236:	4620      	mov	r0, r4
  402238:	e8bd 81f0 	ldmia.w	sp!, {r4, r5, r6, r7, r8, pc}
  40223c:	20001728 	.word	0x20001728
  402240:	20001724 	.word	0x20001724

00402244 <board_init>:
  402244:	b510      	push	{r4, lr}
  402246:	2010      	movs	r0, #16
  402248:	4c15      	ldr	r4, [pc, #84]	; (4022a0 <board_init+0x5c>)
  40224a:	f04f 5160 	mov.w	r1, #939524096	; 0x38000000
  40224e:	47a0      	blx	r4
  402250:	2003      	movs	r0, #3
  402252:	f04f 6100 	mov.w	r1, #134217728	; 0x8000000
  402256:	47a0      	blx	r4
  402258:	2004      	movs	r0, #4
  40225a:	f04f 6100 	mov.w	r1, #134217728	; 0x8000000
  40225e:	47a0      	blx	r4
  402260:	4b10      	ldr	r3, [pc, #64]	; (4022a4 <board_init+0x60>)
  402262:	f44f 4200 	mov.w	r2, #32768	; 0x8000
  402266:	605a      	str	r2, [r3, #4]
  402268:	201c      	movs	r0, #28
  40226a:	f04f 51c0 	mov.w	r1, #402653184	; 0x18000000
  40226e:	47a0      	blx	r4
  402270:	201d      	movs	r0, #29
  402272:	f04f 51c0 	mov.w	r1, #402653184	; 0x18000000
  402276:	47a0      	blx	r4
  402278:	201e      	movs	r0, #30
  40227a:	f04f 51c0 	mov.w	r1, #402653184	; 0x18000000
  40227e:	47a0      	blx	r4
  402280:	201f      	movs	r0, #31
  402282:	f04f 51c0 	mov.w	r1, #402653184	; 0x18000000
  402286:	47a0      	blx	r4
  402288:	201a      	movs	r0, #26
  40228a:	f04f 51c0 	mov.w	r1, #402653184	; 0x18000000
  40228e:	47a0      	blx	r4
  402290:	201b      	movs	r0, #27
  402292:	f04f 51c0 	mov.w	r1, #402653184	; 0x18000000
  402296:	47a0      	blx	r4
  402298:	2001      	movs	r0, #1
  40229a:	4903      	ldr	r1, [pc, #12]	; (4022a8 <board_init+0x64>)
  40229c:	47a0      	blx	r4
  40229e:	bd10      	pop	{r4, pc}
  4022a0:	004027e1 	.word	0x004027e1
  4022a4:	400e1450 	.word	0x400e1450
  4022a8:	28000001 	.word	0x28000001

004022ac <efc_perform_command>:
  4022ac:	f1a1 030e 	sub.w	r3, r1, #14
  4022b0:	2b01      	cmp	r3, #1
  4022b2:	b510      	push	{r4, lr}
  4022b4:	4604      	mov	r4, r0
  4022b6:	d910      	bls.n	4022da <efc_perform_command+0x2e>
  4022b8:	4b09      	ldr	r3, [pc, #36]	; (4022e0 <efc_perform_command+0x34>)
  4022ba:	480a      	ldr	r0, [pc, #40]	; (4022e4 <efc_perform_command+0x38>)
  4022bc:	681b      	ldr	r3, [r3, #0]
  4022be:	0212      	lsls	r2, r2, #8
  4022c0:	b2c9      	uxtb	r1, r1
  4022c2:	f022 427f 	bic.w	r2, r2, #4278190080	; 0xff000000
  4022c6:	f041 41b4 	orr.w	r1, r1, #1509949440	; 0x5a000000
  4022ca:	6003      	str	r3, [r0, #0]
  4022cc:	4311      	orrs	r1, r2
  4022ce:	2000      	movs	r0, #0
  4022d0:	4798      	blx	r3
  4022d2:	68a0      	ldr	r0, [r4, #8]
  4022d4:	f000 0006 	and.w	r0, r0, #6
  4022d8:	bd10      	pop	{r4, pc}
  4022da:	f04f 30ff 	mov.w	r0, #4294967295
  4022de:	bd10      	pop	{r4, pc}
  4022e0:	00800008 	.word	0x00800008
  4022e4:	20000f40 	.word	0x20000f40

004022e8 <efc_get_result>:
  4022e8:	68c0      	ldr	r0, [r0, #12]
  4022ea:	4770      	bx	lr

004022ec <hsmci_reset>:
  4022ec:	f04f 4380 	mov.w	r3, #1073741824	; 0x40000000
  4022f0:	b570      	push	{r4, r5, r6, lr}
  4022f2:	685d      	ldr	r5, [r3, #4]
  4022f4:	689c      	ldr	r4, [r3, #8]
  4022f6:	68d8      	ldr	r0, [r3, #12]
  4022f8:	69d9      	ldr	r1, [r3, #28]
  4022fa:	6d5a      	ldr	r2, [r3, #84]	; 0x54
  4022fc:	2680      	movs	r6, #128	; 0x80
  4022fe:	601e      	str	r6, [r3, #0]
  402300:	605d      	str	r5, [r3, #4]
  402302:	609c      	str	r4, [r3, #8]
  402304:	60d8      	str	r0, [r3, #12]
  402306:	61d9      	str	r1, [r3, #28]
  402308:	655a      	str	r2, [r3, #84]	; 0x54
  40230a:	2205      	movs	r2, #5
  40230c:	601a      	str	r2, [r3, #0]
  40230e:	bd70      	pop	{r4, r5, r6, pc}

00402310 <hsmci_send_cmd_execute>:
  402310:	f001 033f 	and.w	r3, r1, #63	; 0x3f
  402314:	4318      	orrs	r0, r3
  402316:	05cb      	lsls	r3, r1, #23
  402318:	b510      	push	{r4, lr}
  40231a:	d50a      	bpl.n	402332 <hsmci_send_cmd_execute+0x22>
  40231c:	050b      	lsls	r3, r1, #20
  40231e:	d502      	bpl.n	402326 <hsmci_send_cmd_execute+0x16>
  402320:	f440 5084 	orr.w	r0, r0, #4224	; 0x1080
  402324:	e005      	b.n	402332 <hsmci_send_cmd_execute+0x22>
  402326:	048b      	lsls	r3, r1, #18
  402328:	bf4c      	ite	mi
  40232a:	f440 5086 	orrmi.w	r0, r0, #4288	; 0x10c0
  40232e:	f440 5082 	orrpl.w	r0, r0, #4160	; 0x1040
  402332:	044b      	lsls	r3, r1, #17
  402334:	bf48      	it	mi
  402336:	f440 6000 	orrmi.w	r0, r0, #2048	; 0x800
  40233a:	f04f 4380 	mov.w	r3, #1073741824	; 0x40000000
  40233e:	611a      	str	r2, [r3, #16]
  402340:	6158      	str	r0, [r3, #20]
  402342:	461a      	mov	r2, r3
  402344:	f401 5080 	and.w	r0, r1, #4096	; 0x1000
  402348:	6c13      	ldr	r3, [r2, #64]	; 0x40
  40234a:	b130      	cbz	r0, 40235a <hsmci_send_cmd_execute+0x4a>
  40234c:	f413 0f1f 	tst.w	r3, #10420224	; 0x9f0000
  402350:	d006      	beq.n	402360 <hsmci_send_cmd_execute+0x50>
  402352:	4b0c      	ldr	r3, [pc, #48]	; (402384 <hsmci_send_cmd_execute+0x74>)
  402354:	4798      	blx	r3
  402356:	2000      	movs	r0, #0
  402358:	bd10      	pop	{r4, pc}
  40235a:	f413 0f1b 	tst.w	r3, #10158080	; 0x9b0000
  40235e:	e7f7      	b.n	402350 <hsmci_send_cmd_execute+0x40>
  402360:	07db      	lsls	r3, r3, #31
  402362:	d5f1      	bpl.n	402348 <hsmci_send_cmd_execute+0x38>
  402364:	048b      	lsls	r3, r1, #18
  402366:	d50a      	bpl.n	40237e <hsmci_send_cmd_execute+0x6e>
  402368:	4c07      	ldr	r4, [pc, #28]	; (402388 <hsmci_send_cmd_execute+0x78>)
  40236a:	f04f 4280 	mov.w	r2, #1073741824	; 0x40000000
  40236e:	3c01      	subs	r4, #1
  402370:	6c13      	ldr	r3, [r2, #64]	; 0x40
  402372:	d100      	bne.n	402376 <hsmci_send_cmd_execute+0x66>
  402374:	e7ed      	b.n	402352 <hsmci_send_cmd_execute+0x42>
  402376:	f003 0330 	and.w	r3, r3, #48	; 0x30
  40237a:	2b20      	cmp	r3, #32
  40237c:	d1f7      	bne.n	40236e <hsmci_send_cmd_execute+0x5e>
  40237e:	2001      	movs	r0, #1
  402380:	bd10      	pop	{r4, pc}
  402382:	bf00      	nop
  402384:	004022ed 	.word	0x004022ed
  402388:	000f4241 	.word	0x000f4241

0040238c <hsmci_init>:
  40238c:	b508      	push	{r3, lr}
  40238e:	2012      	movs	r0, #18
  402390:	4b07      	ldr	r3, [pc, #28]	; (4023b0 <hsmci_init+0x24>)
  402392:	4798      	blx	r3
  402394:	f04f 4380 	mov.w	r3, #1073741824	; 0x40000000
  402398:	2272      	movs	r2, #114	; 0x72
  40239a:	609a      	str	r2, [r3, #8]
  40239c:	61da      	str	r2, [r3, #28]
  40239e:	2211      	movs	r2, #17
  4023a0:	655a      	str	r2, [r3, #84]	; 0x54
  4023a2:	f44f 62e0 	mov.w	r2, #1792	; 0x700
  4023a6:	605a      	str	r2, [r3, #4]
  4023a8:	2205      	movs	r2, #5
  4023aa:	601a      	str	r2, [r3, #0]
  4023ac:	bd08      	pop	{r3, pc}
  4023ae:	bf00      	nop
  4023b0:	00402a75 	.word	0x00402a75

004023b4 <hsmci_get_bus_width>:
  4023b4:	2800      	cmp	r0, #0
  4023b6:	bf0c      	ite	eq
  4023b8:	2004      	moveq	r0, #4
  4023ba:	2000      	movne	r0, #0
  4023bc:	4770      	bx	lr

004023be <hsmci_is_high_speed_capable>:
  4023be:	2001      	movs	r0, #1
  4023c0:	4770      	bx	lr
	...

004023c4 <hsmci_select_device>:
  4023c4:	f04f 4080 	mov.w	r0, #1073741824	; 0x40000000
  4023c8:	b11b      	cbz	r3, 4023d2 <hsmci_select_device+0xe>
  4023ca:	6d43      	ldr	r3, [r0, #84]	; 0x54
  4023cc:	f443 7380 	orr.w	r3, r3, #256	; 0x100
  4023d0:	e002      	b.n	4023d8 <hsmci_select_device+0x14>
  4023d2:	6d43      	ldr	r3, [r0, #84]	; 0x54
  4023d4:	f423 7380 	bic.w	r3, r3, #256	; 0x100
  4023d8:	6543      	str	r3, [r0, #84]	; 0x54
  4023da:	b169      	cbz	r1, 4023f8 <hsmci_select_device+0x34>
  4023dc:	004b      	lsls	r3, r1, #1
  4023de:	4910      	ldr	r1, [pc, #64]	; (402420 <hsmci_select_device+0x5c>)
  4023e0:	fbb1 f1f3 	udiv	r1, r1, r3
  4023e4:	434b      	muls	r3, r1
  4023e6:	f1c3 7374 	rsb	r3, r3, #63963136	; 0x3d00000
  4023ea:	f503 4310 	add.w	r3, r3, #36864	; 0x9000
  4023ee:	b10b      	cbz	r3, 4023f4 <hsmci_select_device+0x30>
  4023f0:	3101      	adds	r1, #1
  4023f2:	e000      	b.n	4023f6 <hsmci_select_device+0x32>
  4023f4:	b101      	cbz	r1, 4023f8 <hsmci_select_device+0x34>
  4023f6:	3901      	subs	r1, #1
  4023f8:	f04f 4380 	mov.w	r3, #1073741824	; 0x40000000
  4023fc:	6858      	ldr	r0, [r3, #4]
  4023fe:	3a04      	subs	r2, #4
  402400:	f020 00ff 	bic.w	r0, r0, #255	; 0xff
  402404:	6058      	str	r0, [r3, #4]
  402406:	6858      	ldr	r0, [r3, #4]
  402408:	b2d2      	uxtb	r2, r2
  40240a:	b2c9      	uxtb	r1, r1
  40240c:	4301      	orrs	r1, r0
  40240e:	2a04      	cmp	r2, #4
  402410:	6059      	str	r1, [r3, #4]
  402412:	bf9a      	itte	ls
  402414:	4903      	ldrls	r1, [pc, #12]	; (402424 <hsmci_select_device+0x60>)
  402416:	5c8a      	ldrbls	r2, [r1, r2]
  402418:	2200      	movhi	r2, #0
  40241a:	60da      	str	r2, [r3, #12]
  40241c:	4770      	bx	lr
  40241e:	bf00      	nop
  402420:	03d09000 	.word	0x03d09000
  402424:	0040a252 	.word	0x0040a252

00402428 <hsmci_deselect_device>:
  402428:	4770      	bx	lr

0040242a <hsmci_send_clock>:
  40242a:	f04f 4380 	mov.w	r3, #1073741824	; 0x40000000
  40242e:	685a      	ldr	r2, [r3, #4]
  402430:	f422 5260 	bic.w	r2, r2, #14336	; 0x3800
  402434:	605a      	str	r2, [r3, #4]
  402436:	2200      	movs	r2, #0
  402438:	611a      	str	r2, [r3, #16]
  40243a:	f44f 6210 	mov.w	r2, #2304	; 0x900
  40243e:	615a      	str	r2, [r3, #20]
  402440:	6c1a      	ldr	r2, [r3, #64]	; 0x40
  402442:	07d2      	lsls	r2, r2, #31
  402444:	d5fc      	bpl.n	402440 <hsmci_send_clock+0x16>
  402446:	4770      	bx	lr

00402448 <hsmci_send_cmd>:
  402448:	f04f 4380 	mov.w	r3, #1073741824	; 0x40000000
  40244c:	460a      	mov	r2, r1
  40244e:	6859      	ldr	r1, [r3, #4]
  402450:	b510      	push	{r4, lr}
  402452:	f421 5160 	bic.w	r1, r1, #14336	; 0x3800
  402456:	6059      	str	r1, [r3, #4]
  402458:	6859      	ldr	r1, [r3, #4]
  40245a:	4604      	mov	r4, r0
  40245c:	f421 4100 	bic.w	r1, r1, #32768	; 0x8000
  402460:	2000      	movs	r0, #0
  402462:	6059      	str	r1, [r3, #4]
  402464:	6198      	str	r0, [r3, #24]
  402466:	4621      	mov	r1, r4
  402468:	4b01      	ldr	r3, [pc, #4]	; (402470 <hsmci_send_cmd+0x28>)
  40246a:	4798      	blx	r3
  40246c:	bd10      	pop	{r4, pc}
  40246e:	bf00      	nop
  402470:	00402311 	.word	0x00402311

00402474 <hsmci_get_response>:
  402474:	f04f 4380 	mov.w	r3, #1073741824	; 0x40000000
  402478:	6a18      	ldr	r0, [r3, #32]
  40247a:	4770      	bx	lr

0040247c <hsmci_get_response_128>:
  40247c:	b510      	push	{r4, lr}
  40247e:	f100 0210 	add.w	r2, r0, #16
  402482:	f04f 4480 	mov.w	r4, #1073741824	; 0x40000000
  402486:	6a23      	ldr	r3, [r4, #32]
  402488:	0e19      	lsrs	r1, r3, #24
  40248a:	7001      	strb	r1, [r0, #0]
  40248c:	0c19      	lsrs	r1, r3, #16
  40248e:	7041      	strb	r1, [r0, #1]
  402490:	0a19      	lsrs	r1, r3, #8
  402492:	7081      	strb	r1, [r0, #2]
  402494:	70c3      	strb	r3, [r0, #3]
  402496:	3004      	adds	r0, #4
  402498:	4290      	cmp	r0, r2
  40249a:	d1f4      	bne.n	402486 <hsmci_get_response_128+0xa>
  40249c:	bd10      	pop	{r4, pc}
	...

004024a0 <hsmci_adtc_start>:
  4024a0:	b570      	push	{r4, r5, r6, lr}
  4024a2:	460e      	mov	r6, r1
  4024a4:	f89d 1010 	ldrb.w	r1, [sp, #16]
  4024a8:	4604      	mov	r4, r0
  4024aa:	f04f 4080 	mov.w	r0, #1073741824	; 0x40000000
  4024ae:	b119      	cbz	r1, 4024b8 <hsmci_adtc_start+0x18>
  4024b0:	6841      	ldr	r1, [r0, #4]
  4024b2:	f441 4100 	orr.w	r1, r1, #32768	; 0x8000
  4024b6:	e002      	b.n	4024be <hsmci_adtc_start+0x1e>
  4024b8:	6841      	ldr	r1, [r0, #4]
  4024ba:	f421 4100 	bic.w	r1, r1, #32768	; 0x8000
  4024be:	6041      	str	r1, [r0, #4]
  4024c0:	f04f 4080 	mov.w	r0, #1073741824	; 0x40000000
  4024c4:	6841      	ldr	r1, [r0, #4]
  4024c6:	0795      	lsls	r5, r2, #30
  4024c8:	f441 51c0 	orr.w	r1, r1, #6144	; 0x1800
  4024cc:	6041      	str	r1, [r0, #4]
  4024ce:	6841      	ldr	r1, [r0, #4]
  4024d0:	f04f 4580 	mov.w	r5, #1073741824	; 0x40000000
  4024d4:	bf14      	ite	ne
  4024d6:	f441 5100 	orrne.w	r1, r1, #8192	; 0x2000
  4024da:	f421 5100 	biceq.w	r1, r1, #8192	; 0x2000
  4024de:	f414 4f00 	tst.w	r4, #32768	; 0x8000
  4024e2:	6041      	str	r1, [r0, #4]
  4024e4:	bf0c      	ite	eq
  4024e6:	f44f 20a0 	moveq.w	r0, #327680	; 0x50000
  4024ea:	f44f 3080 	movne.w	r0, #65536	; 0x10000
  4024ee:	f414 3f80 	tst.w	r4, #65536	; 0x10000
  4024f2:	d003      	beq.n	4024fc <hsmci_adtc_start+0x5c>
  4024f4:	f440 1000 	orr.w	r0, r0, #2097152	; 0x200000
  4024f8:	61aa      	str	r2, [r5, #24]
  4024fa:	e012      	b.n	402522 <hsmci_adtc_start+0x82>
  4024fc:	ea43 4102 	orr.w	r1, r3, r2, lsl #16
  402500:	61a9      	str	r1, [r5, #24]
  402502:	03a5      	lsls	r5, r4, #14
  402504:	d502      	bpl.n	40250c <hsmci_adtc_start+0x6c>
  402506:	f440 1020 	orr.w	r0, r0, #2621440	; 0x280000
  40250a:	e00a      	b.n	402522 <hsmci_adtc_start+0x82>
  40250c:	0361      	lsls	r1, r4, #13
  40250e:	d502      	bpl.n	402516 <hsmci_adtc_start+0x76>
  402510:	f440 1080 	orr.w	r0, r0, #1048576	; 0x100000
  402514:	e005      	b.n	402522 <hsmci_adtc_start+0x82>
  402516:	0325      	lsls	r5, r4, #12
  402518:	d403      	bmi.n	402522 <hsmci_adtc_start+0x82>
  40251a:	02e1      	lsls	r1, r4, #11
  40251c:	bf48      	it	mi
  40251e:	f440 2000 	orrmi.w	r0, r0, #524288	; 0x80000
  402522:	4906      	ldr	r1, [pc, #24]	; (40253c <hsmci_adtc_start+0x9c>)
  402524:	2500      	movs	r5, #0
  402526:	600d      	str	r5, [r1, #0]
  402528:	4905      	ldr	r1, [pc, #20]	; (402540 <hsmci_adtc_start+0xa0>)
  40252a:	800a      	strh	r2, [r1, #0]
  40252c:	4a05      	ldr	r2, [pc, #20]	; (402544 <hsmci_adtc_start+0xa4>)
  40252e:	4621      	mov	r1, r4
  402530:	8013      	strh	r3, [r2, #0]
  402532:	4632      	mov	r2, r6
  402534:	4b04      	ldr	r3, [pc, #16]	; (402548 <hsmci_adtc_start+0xa8>)
  402536:	4798      	blx	r3
  402538:	bd70      	pop	{r4, r5, r6, pc}
  40253a:	bf00      	nop
  40253c:	20000f48 	.word	0x20000f48
  402540:	20000f44 	.word	0x20000f44
  402544:	20000f46 	.word	0x20000f46
  402548:	00402311 	.word	0x00402311

0040254c <hsmci_read_word>:
  40254c:	b510      	push	{r4, lr}
  40254e:	f04f 4480 	mov.w	r4, #1073741824	; 0x40000000
  402552:	6c21      	ldr	r1, [r4, #64]	; 0x40
  402554:	4b10      	ldr	r3, [pc, #64]	; (402598 <hsmci_read_word+0x4c>)
  402556:	f04f 4280 	mov.w	r2, #1073741824	; 0x40000000
  40255a:	400b      	ands	r3, r1
  40255c:	b11b      	cbz	r3, 402566 <hsmci_read_word+0x1a>
  40255e:	4b0f      	ldr	r3, [pc, #60]	; (40259c <hsmci_read_word+0x50>)
  402560:	4798      	blx	r3
  402562:	2000      	movs	r0, #0
  402564:	bd10      	pop	{r4, pc}
  402566:	0789      	lsls	r1, r1, #30
  402568:	d5f3      	bpl.n	402552 <hsmci_read_word+0x6>
  40256a:	6b13      	ldr	r3, [r2, #48]	; 0x30
  40256c:	490c      	ldr	r1, [pc, #48]	; (4025a0 <hsmci_read_word+0x54>)
  40256e:	6003      	str	r3, [r0, #0]
  402570:	680b      	ldr	r3, [r1, #0]
  402572:	480c      	ldr	r0, [pc, #48]	; (4025a4 <hsmci_read_word+0x58>)
  402574:	3304      	adds	r3, #4
  402576:	600b      	str	r3, [r1, #0]
  402578:	490b      	ldr	r1, [pc, #44]	; (4025a8 <hsmci_read_word+0x5c>)
  40257a:	8800      	ldrh	r0, [r0, #0]
  40257c:	8809      	ldrh	r1, [r1, #0]
  40257e:	4341      	muls	r1, r0
  402580:	4299      	cmp	r1, r3
  402582:	d807      	bhi.n	402594 <hsmci_read_word+0x48>
  402584:	4611      	mov	r1, r2
  402586:	6c0a      	ldr	r2, [r1, #64]	; 0x40
  402588:	4b03      	ldr	r3, [pc, #12]	; (402598 <hsmci_read_word+0x4c>)
  40258a:	4013      	ands	r3, r2
  40258c:	2b00      	cmp	r3, #0
  40258e:	d1e6      	bne.n	40255e <hsmci_read_word+0x12>
  402590:	0113      	lsls	r3, r2, #4
  402592:	d5f8      	bpl.n	402586 <hsmci_read_word+0x3a>
  402594:	2001      	movs	r0, #1
  402596:	bd10      	pop	{r4, pc}
  402598:	c0600000 	.word	0xc0600000
  40259c:	004022ed 	.word	0x004022ed
  4025a0:	20000f48 	.word	0x20000f48
  4025a4:	20000f44 	.word	0x20000f44
  4025a8:	20000f46 	.word	0x20000f46

004025ac <hsmci_start_read_blocks>:
  4025ac:	4b0c      	ldr	r3, [pc, #48]	; (4025e0 <hsmci_start_read_blocks+0x34>)
  4025ae:	881b      	ldrh	r3, [r3, #0]
  4025b0:	4359      	muls	r1, r3
  4025b2:	f04f 4380 	mov.w	r3, #1073741824	; 0x40000000
  4025b6:	f8c3 0100 	str.w	r0, [r3, #256]	; 0x100
  4025ba:	685a      	ldr	r2, [r3, #4]
  4025bc:	0492      	lsls	r2, r2, #18
  4025be:	d401      	bmi.n	4025c4 <hsmci_start_read_blocks+0x18>
  4025c0:	088a      	lsrs	r2, r1, #2
  4025c2:	e000      	b.n	4025c6 <hsmci_start_read_blocks+0x1a>
  4025c4:	460a      	mov	r2, r1
  4025c6:	f8c3 2104 	str.w	r2, [r3, #260]	; 0x104
  4025ca:	2001      	movs	r0, #1
  4025cc:	2200      	movs	r2, #0
  4025ce:	f8c3 2114 	str.w	r2, [r3, #276]	; 0x114
  4025d2:	f8c3 0120 	str.w	r0, [r3, #288]	; 0x120
  4025d6:	4b03      	ldr	r3, [pc, #12]	; (4025e4 <hsmci_start_read_blocks+0x38>)
  4025d8:	681a      	ldr	r2, [r3, #0]
  4025da:	1889      	adds	r1, r1, r2
  4025dc:	6019      	str	r1, [r3, #0]
  4025de:	4770      	bx	lr
  4025e0:	20000f44 	.word	0x20000f44
  4025e4:	20000f48 	.word	0x20000f48

004025e8 <hsmci_wait_end_of_read_blocks>:
  4025e8:	b508      	push	{r3, lr}
  4025ea:	f04f 4080 	mov.w	r0, #1073741824	; 0x40000000
  4025ee:	6c01      	ldr	r1, [r0, #64]	; 0x40
  4025f0:	4b10      	ldr	r3, [pc, #64]	; (402634 <hsmci_wait_end_of_read_blocks+0x4c>)
  4025f2:	f04f 4280 	mov.w	r2, #1073741824	; 0x40000000
  4025f6:	400b      	ands	r3, r1
  4025f8:	b123      	cbz	r3, 402604 <hsmci_wait_end_of_read_blocks+0x1c>
  4025fa:	f240 2302 	movw	r3, #514	; 0x202
  4025fe:	f8c2 3120 	str.w	r3, [r2, #288]	; 0x120
  402602:	e00f      	b.n	402624 <hsmci_wait_end_of_read_blocks+0x3c>
  402604:	044b      	lsls	r3, r1, #17
  402606:	d5f2      	bpl.n	4025ee <hsmci_wait_end_of_read_blocks+0x6>
  402608:	4b0b      	ldr	r3, [pc, #44]	; (402638 <hsmci_wait_end_of_read_blocks+0x50>)
  40260a:	490c      	ldr	r1, [pc, #48]	; (40263c <hsmci_wait_end_of_read_blocks+0x54>)
  40260c:	881b      	ldrh	r3, [r3, #0]
  40260e:	8809      	ldrh	r1, [r1, #0]
  402610:	434b      	muls	r3, r1
  402612:	490b      	ldr	r1, [pc, #44]	; (402640 <hsmci_wait_end_of_read_blocks+0x58>)
  402614:	6809      	ldr	r1, [r1, #0]
  402616:	4299      	cmp	r1, r3
  402618:	d30a      	bcc.n	402630 <hsmci_wait_end_of_read_blocks+0x48>
  40261a:	4611      	mov	r1, r2
  40261c:	6c0a      	ldr	r2, [r1, #64]	; 0x40
  40261e:	4b05      	ldr	r3, [pc, #20]	; (402634 <hsmci_wait_end_of_read_blocks+0x4c>)
  402620:	4013      	ands	r3, r2
  402622:	b11b      	cbz	r3, 40262c <hsmci_wait_end_of_read_blocks+0x44>
  402624:	4b07      	ldr	r3, [pc, #28]	; (402644 <hsmci_wait_end_of_read_blocks+0x5c>)
  402626:	4798      	blx	r3
  402628:	2000      	movs	r0, #0
  40262a:	bd08      	pop	{r3, pc}
  40262c:	0110      	lsls	r0, r2, #4
  40262e:	d5f5      	bpl.n	40261c <hsmci_wait_end_of_read_blocks+0x34>
  402630:	2001      	movs	r0, #1
  402632:	bd08      	pop	{r3, pc}
  402634:	c0600000 	.word	0xc0600000
  402638:	20000f46 	.word	0x20000f46
  40263c:	20000f44 	.word	0x20000f44
  402640:	20000f48 	.word	0x20000f48
  402644:	004022ed 	.word	0x004022ed

00402648 <hsmci_start_write_blocks>:
  402648:	4b0d      	ldr	r3, [pc, #52]	; (402680 <hsmci_start_write_blocks+0x38>)
  40264a:	881b      	ldrh	r3, [r3, #0]
  40264c:	4359      	muls	r1, r3
  40264e:	f04f 4380 	mov.w	r3, #1073741824	; 0x40000000
  402652:	f8c3 0108 	str.w	r0, [r3, #264]	; 0x108
  402656:	685a      	ldr	r2, [r3, #4]
  402658:	0492      	lsls	r2, r2, #18
  40265a:	d401      	bmi.n	402660 <hsmci_start_write_blocks+0x18>
  40265c:	088a      	lsrs	r2, r1, #2
  40265e:	e000      	b.n	402662 <hsmci_start_write_blocks+0x1a>
  402660:	460a      	mov	r2, r1
  402662:	f8c3 210c 	str.w	r2, [r3, #268]	; 0x10c
  402666:	2200      	movs	r2, #0
  402668:	f8c3 211c 	str.w	r2, [r3, #284]	; 0x11c
  40266c:	f44f 7280 	mov.w	r2, #256	; 0x100
  402670:	f8c3 2120 	str.w	r2, [r3, #288]	; 0x120
  402674:	4b03      	ldr	r3, [pc, #12]	; (402684 <hsmci_start_write_blocks+0x3c>)
  402676:	2001      	movs	r0, #1
  402678:	681a      	ldr	r2, [r3, #0]
  40267a:	1889      	adds	r1, r1, r2
  40267c:	6019      	str	r1, [r3, #0]
  40267e:	4770      	bx	lr
  402680:	20000f44 	.word	0x20000f44
  402684:	20000f48 	.word	0x20000f48

00402688 <hsmci_wait_end_of_write_blocks>:
  402688:	b510      	push	{r4, lr}
  40268a:	f04f 4180 	mov.w	r1, #1073741824	; 0x40000000
  40268e:	6c0a      	ldr	r2, [r1, #64]	; 0x40
  402690:	4b11      	ldr	r3, [pc, #68]	; (4026d8 <hsmci_wait_end_of_write_blocks+0x50>)
  402692:	f04f 4480 	mov.w	r4, #1073741824	; 0x40000000
  402696:	4013      	ands	r3, r2
  402698:	b133      	cbz	r3, 4026a8 <hsmci_wait_end_of_write_blocks+0x20>
  40269a:	4b10      	ldr	r3, [pc, #64]	; (4026dc <hsmci_wait_end_of_write_blocks+0x54>)
  40269c:	4798      	blx	r3
  40269e:	f240 2302 	movw	r3, #514	; 0x202
  4026a2:	f8c4 3120 	str.w	r3, [r4, #288]	; 0x120
  4026a6:	e010      	b.n	4026ca <hsmci_wait_end_of_write_blocks+0x42>
  4026a8:	0410      	lsls	r0, r2, #16
  4026aa:	d5f0      	bpl.n	40268e <hsmci_wait_end_of_write_blocks+0x6>
  4026ac:	4b0c      	ldr	r3, [pc, #48]	; (4026e0 <hsmci_wait_end_of_write_blocks+0x58>)
  4026ae:	4a0d      	ldr	r2, [pc, #52]	; (4026e4 <hsmci_wait_end_of_write_blocks+0x5c>)
  4026b0:	881b      	ldrh	r3, [r3, #0]
  4026b2:	8812      	ldrh	r2, [r2, #0]
  4026b4:	4353      	muls	r3, r2
  4026b6:	4a0c      	ldr	r2, [pc, #48]	; (4026e8 <hsmci_wait_end_of_write_blocks+0x60>)
  4026b8:	6812      	ldr	r2, [r2, #0]
  4026ba:	429a      	cmp	r2, r3
  4026bc:	d309      	bcc.n	4026d2 <hsmci_wait_end_of_write_blocks+0x4a>
  4026be:	6c22      	ldr	r2, [r4, #64]	; 0x40
  4026c0:	4b05      	ldr	r3, [pc, #20]	; (4026d8 <hsmci_wait_end_of_write_blocks+0x50>)
  4026c2:	4013      	ands	r3, r2
  4026c4:	b11b      	cbz	r3, 4026ce <hsmci_wait_end_of_write_blocks+0x46>
  4026c6:	4b05      	ldr	r3, [pc, #20]	; (4026dc <hsmci_wait_end_of_write_blocks+0x54>)
  4026c8:	4798      	blx	r3
  4026ca:	2000      	movs	r0, #0
  4026cc:	bd10      	pop	{r4, pc}
  4026ce:	0691      	lsls	r1, r2, #26
  4026d0:	d5f5      	bpl.n	4026be <hsmci_wait_end_of_write_blocks+0x36>
  4026d2:	2001      	movs	r0, #1
  4026d4:	bd10      	pop	{r4, pc}
  4026d6:	bf00      	nop
  4026d8:	c0600000 	.word	0xc0600000
  4026dc:	004022ed 	.word	0x004022ed
  4026e0:	20000f46 	.word	0x20000f46
  4026e4:	20000f44 	.word	0x20000f44
  4026e8:	20000f48 	.word	0x20000f48

004026ec <pio_set_peripheral>:
  4026ec:	f1b1 5fc0 	cmp.w	r1, #402653184	; 0x18000000
  4026f0:	b510      	push	{r4, lr}
  4026f2:	6442      	str	r2, [r0, #68]	; 0x44
  4026f4:	d02c      	beq.n	402750 <pio_set_peripheral+0x64>
  4026f6:	d808      	bhi.n	40270a <pio_set_peripheral+0x1e>
  4026f8:	f1b1 6f00 	cmp.w	r1, #134217728	; 0x8000000
  4026fc:	d014      	beq.n	402728 <pio_set_peripheral+0x3c>
  4026fe:	f1b1 5f80 	cmp.w	r1, #268435456	; 0x10000000
  402702:	d01c      	beq.n	40273e <pio_set_peripheral+0x52>
  402704:	2900      	cmp	r1, #0
  402706:	d030      	beq.n	40276a <pio_set_peripheral+0x7e>
  402708:	e02e      	b.n	402768 <pio_set_peripheral+0x7c>
  40270a:	f1b1 5f20 	cmp.w	r1, #671088640	; 0x28000000
  40270e:	d02c      	beq.n	40276a <pio_set_peripheral+0x7e>
  402710:	d803      	bhi.n	40271a <pio_set_peripheral+0x2e>
  402712:	f1b1 5f00 	cmp.w	r1, #536870912	; 0x20000000
  402716:	d127      	bne.n	402768 <pio_set_peripheral+0x7c>
  402718:	e020      	b.n	40275c <pio_set_peripheral+0x70>
  40271a:	f1b1 5f40 	cmp.w	r1, #805306368	; 0x30000000
  40271e:	d024      	beq.n	40276a <pio_set_peripheral+0x7e>
  402720:	f1b1 5f60 	cmp.w	r1, #939524096	; 0x38000000
  402724:	d120      	bne.n	402768 <pio_set_peripheral+0x7c>
  402726:	bd10      	pop	{r4, pc}
  402728:	6f01      	ldr	r1, [r0, #112]	; 0x70
  40272a:	6f04      	ldr	r4, [r0, #112]	; 0x70
  40272c:	43d3      	mvns	r3, r2
  40272e:	4021      	ands	r1, r4
  402730:	4019      	ands	r1, r3
  402732:	6701      	str	r1, [r0, #112]	; 0x70
  402734:	6f41      	ldr	r1, [r0, #116]	; 0x74
  402736:	6f44      	ldr	r4, [r0, #116]	; 0x74
  402738:	4021      	ands	r1, r4
  40273a:	400b      	ands	r3, r1
  40273c:	e013      	b.n	402766 <pio_set_peripheral+0x7a>
  40273e:	6f03      	ldr	r3, [r0, #112]	; 0x70
  402740:	4313      	orrs	r3, r2
  402742:	6703      	str	r3, [r0, #112]	; 0x70
  402744:	6f43      	ldr	r3, [r0, #116]	; 0x74
  402746:	6f41      	ldr	r1, [r0, #116]	; 0x74
  402748:	400b      	ands	r3, r1
  40274a:	ea23 0302 	bic.w	r3, r3, r2
  40274e:	e00a      	b.n	402766 <pio_set_peripheral+0x7a>
  402750:	6f03      	ldr	r3, [r0, #112]	; 0x70
  402752:	6f01      	ldr	r1, [r0, #112]	; 0x70
  402754:	400b      	ands	r3, r1
  402756:	ea23 0302 	bic.w	r3, r3, r2
  40275a:	e001      	b.n	402760 <pio_set_peripheral+0x74>
  40275c:	6f03      	ldr	r3, [r0, #112]	; 0x70
  40275e:	4313      	orrs	r3, r2
  402760:	6703      	str	r3, [r0, #112]	; 0x70
  402762:	6f43      	ldr	r3, [r0, #116]	; 0x74
  402764:	4313      	orrs	r3, r2
  402766:	6743      	str	r3, [r0, #116]	; 0x74
  402768:	6042      	str	r2, [r0, #4]
  40276a:	bd10      	pop	{r4, pc}

0040276c <pio_set_input>:
  40276c:	07d3      	lsls	r3, r2, #31
  40276e:	6441      	str	r1, [r0, #68]	; 0x44
  402770:	bf4c      	ite	mi
  402772:	6641      	strmi	r1, [r0, #100]	; 0x64
  402774:	6601      	strpl	r1, [r0, #96]	; 0x60
  402776:	f012 0f0a 	tst.w	r2, #10
  40277a:	bf14      	ite	ne
  40277c:	6201      	strne	r1, [r0, #32]
  40277e:	6241      	streq	r1, [r0, #36]	; 0x24
  402780:	0793      	lsls	r3, r2, #30
  402782:	d502      	bpl.n	40278a <pio_set_input+0x1e>
  402784:	f8c0 1080 	str.w	r1, [r0, #128]	; 0x80
  402788:	e003      	b.n	402792 <pio_set_input+0x26>
  40278a:	0713      	lsls	r3, r2, #28
  40278c:	bf48      	it	mi
  40278e:	f8c0 1084 	strmi.w	r1, [r0, #132]	; 0x84
  402792:	6141      	str	r1, [r0, #20]
  402794:	6001      	str	r1, [r0, #0]
  402796:	4770      	bx	lr

00402798 <pio_set_output>:
  402798:	b510      	push	{r4, lr}
  40279a:	9c02      	ldr	r4, [sp, #8]
  40279c:	6441      	str	r1, [r0, #68]	; 0x44
  40279e:	b10c      	cbz	r4, 4027a4 <pio_set_output+0xc>
  4027a0:	6641      	str	r1, [r0, #100]	; 0x64
  4027a2:	e000      	b.n	4027a6 <pio_set_output+0xe>
  4027a4:	6601      	str	r1, [r0, #96]	; 0x60
  4027a6:	b10b      	cbz	r3, 4027ac <pio_set_output+0x14>
  4027a8:	6501      	str	r1, [r0, #80]	; 0x50
  4027aa:	e000      	b.n	4027ae <pio_set_output+0x16>
  4027ac:	6541      	str	r1, [r0, #84]	; 0x54
  4027ae:	b10a      	cbz	r2, 4027b4 <pio_set_output+0x1c>
  4027b0:	6301      	str	r1, [r0, #48]	; 0x30
  4027b2:	e000      	b.n	4027b6 <pio_set_output+0x1e>
  4027b4:	6341      	str	r1, [r0, #52]	; 0x34
  4027b6:	6101      	str	r1, [r0, #16]
  4027b8:	6001      	str	r1, [r0, #0]
  4027ba:	bd10      	pop	{r4, pc}

004027bc <pio_get_interrupt_status>:
  4027bc:	6cc0      	ldr	r0, [r0, #76]	; 0x4c
  4027be:	4770      	bx	lr

004027c0 <pio_get_interrupt_mask>:
  4027c0:	6c80      	ldr	r0, [r0, #72]	; 0x48
  4027c2:	4770      	bx	lr

004027c4 <pio_set_pin_high>:
  4027c4:	0943      	lsrs	r3, r0, #5
  4027c6:	2201      	movs	r2, #1
  4027c8:	f000 001f 	and.w	r0, r0, #31
  4027cc:	fa02 f000 	lsl.w	r0, r2, r0
  4027d0:	f503 1300 	add.w	r3, r3, #2097152	; 0x200000
  4027d4:	f203 7307 	addw	r3, r3, #1799	; 0x707
  4027d8:	025b      	lsls	r3, r3, #9
  4027da:	6318      	str	r0, [r3, #48]	; 0x30
  4027dc:	4770      	bx	lr
	...

004027e0 <pio_configure_pin>:
  4027e0:	b5f7      	push	{r0, r1, r2, r4, r5, r6, r7, lr}
  4027e2:	0944      	lsrs	r4, r0, #5
  4027e4:	f504 1400 	add.w	r4, r4, #2097152	; 0x200000
  4027e8:	460d      	mov	r5, r1
  4027ea:	f204 7407 	addw	r4, r4, #1799	; 0x707
  4027ee:	f001 41f0 	and.w	r1, r1, #2013265920	; 0x78000000
  4027f2:	0264      	lsls	r4, r4, #9
  4027f4:	f1b1 5f00 	cmp.w	r1, #536870912	; 0x20000000
  4027f8:	d017      	beq.n	40282a <pio_configure_pin+0x4a>
  4027fa:	d809      	bhi.n	402810 <pio_configure_pin+0x30>
  4027fc:	f1b1 5f80 	cmp.w	r1, #268435456	; 0x10000000
  402800:	d013      	beq.n	40282a <pio_configure_pin+0x4a>
  402802:	f1b1 5fc0 	cmp.w	r1, #402653184	; 0x18000000
  402806:	d010      	beq.n	40282a <pio_configure_pin+0x4a>
  402808:	f1b1 6f00 	cmp.w	r1, #134217728	; 0x8000000
  40280c:	d138      	bne.n	402880 <pio_configure_pin+0xa0>
  40280e:	e00c      	b.n	40282a <pio_configure_pin+0x4a>
  402810:	f1b1 5f40 	cmp.w	r1, #805306368	; 0x30000000
  402814:	d020      	beq.n	402858 <pio_configure_pin+0x78>
  402816:	f1b1 5f60 	cmp.w	r1, #939524096	; 0x38000000
  40281a:	d01d      	beq.n	402858 <pio_configure_pin+0x78>
  40281c:	f1b1 5f20 	cmp.w	r1, #671088640	; 0x28000000
  402820:	d12e      	bne.n	402880 <pio_configure_pin+0xa0>
  402822:	e00f      	b.n	402844 <pio_configure_pin+0x64>
  402824:	6627      	str	r7, [r4, #96]	; 0x60
  402826:	4630      	mov	r0, r6
  402828:	e02b      	b.n	402882 <pio_configure_pin+0xa2>
  40282a:	f000 001f 	and.w	r0, r0, #31
  40282e:	2601      	movs	r6, #1
  402830:	fa06 f700 	lsl.w	r7, r6, r0
  402834:	4b13      	ldr	r3, [pc, #76]	; (402884 <pio_configure_pin+0xa4>)
  402836:	4620      	mov	r0, r4
  402838:	463a      	mov	r2, r7
  40283a:	4798      	blx	r3
  40283c:	07eb      	lsls	r3, r5, #31
  40283e:	d5f1      	bpl.n	402824 <pio_configure_pin+0x44>
  402840:	6667      	str	r7, [r4, #100]	; 0x64
  402842:	e7f0      	b.n	402826 <pio_configure_pin+0x46>
  402844:	f000 011f 	and.w	r1, r0, #31
  402848:	2601      	movs	r6, #1
  40284a:	4620      	mov	r0, r4
  40284c:	fa06 f101 	lsl.w	r1, r6, r1
  402850:	462a      	mov	r2, r5
  402852:	4b0d      	ldr	r3, [pc, #52]	; (402888 <pio_configure_pin+0xa8>)
  402854:	4798      	blx	r3
  402856:	e7e6      	b.n	402826 <pio_configure_pin+0x46>
  402858:	f005 5260 	and.w	r2, r5, #939524096	; 0x38000000
  40285c:	2601      	movs	r6, #1
  40285e:	f000 011f 	and.w	r1, r0, #31
  402862:	4620      	mov	r0, r4
  402864:	f1b2 5460 	subs.w	r4, r2, #939524096	; 0x38000000
  402868:	ea05 0306 	and.w	r3, r5, r6
  40286c:	4262      	negs	r2, r4
  40286e:	9300      	str	r3, [sp, #0]
  402870:	4162      	adcs	r2, r4
  402872:	fa06 f101 	lsl.w	r1, r6, r1
  402876:	f3c5 0380 	ubfx	r3, r5, #2, #1
  40287a:	4c04      	ldr	r4, [pc, #16]	; (40288c <pio_configure_pin+0xac>)
  40287c:	47a0      	blx	r4
  40287e:	e7d2      	b.n	402826 <pio_configure_pin+0x46>
  402880:	2000      	movs	r0, #0
  402882:	bdfe      	pop	{r1, r2, r3, r4, r5, r6, r7, pc}
  402884:	004026ed 	.word	0x004026ed
  402888:	0040276d 	.word	0x0040276d
  40288c:	00402799 	.word	0x00402799

00402890 <pio_handler_process>:
  402890:	b570      	push	{r4, r5, r6, lr}
  402892:	4b0f      	ldr	r3, [pc, #60]	; (4028d0 <pio_handler_process+0x40>)
  402894:	4604      	mov	r4, r0
  402896:	460e      	mov	r6, r1
  402898:	4798      	blx	r3
  40289a:	4b0e      	ldr	r3, [pc, #56]	; (4028d4 <pio_handler_process+0x44>)
  40289c:	4605      	mov	r5, r0
  40289e:	4620      	mov	r0, r4
  4028a0:	4798      	blx	r3
  4028a2:	4005      	ands	r5, r0
  4028a4:	d012      	beq.n	4028cc <pio_handler_process+0x3c>
  4028a6:	4c0c      	ldr	r4, [pc, #48]	; (4028d8 <pio_handler_process+0x48>)
  4028a8:	f854 3c0c 	ldr.w	r3, [r4, #-12]
  4028ac:	42b3      	cmp	r3, r6
  4028ae:	d10a      	bne.n	4028c6 <pio_handler_process+0x36>
  4028b0:	f854 1c08 	ldr.w	r1, [r4, #-8]
  4028b4:	4229      	tst	r1, r5
  4028b6:	d006      	beq.n	4028c6 <pio_handler_process+0x36>
  4028b8:	6823      	ldr	r3, [r4, #0]
  4028ba:	4630      	mov	r0, r6
  4028bc:	4798      	blx	r3
  4028be:	f854 3c08 	ldr.w	r3, [r4, #-8]
  4028c2:	ea25 0503 	bic.w	r5, r5, r3
  4028c6:	3410      	adds	r4, #16
  4028c8:	2d00      	cmp	r5, #0
  4028ca:	d1ed      	bne.n	4028a8 <pio_handler_process+0x18>
  4028cc:	bd70      	pop	{r4, r5, r6, pc}
  4028ce:	bf00      	nop
  4028d0:	004027bd 	.word	0x004027bd
  4028d4:	004027c1 	.word	0x004027c1
  4028d8:	20000f58 	.word	0x20000f58

004028dc <PIOA_Handler>:
  4028dc:	b508      	push	{r3, lr}
  4028de:	4802      	ldr	r0, [pc, #8]	; (4028e8 <PIOA_Handler+0xc>)
  4028e0:	210b      	movs	r1, #11
  4028e2:	4b02      	ldr	r3, [pc, #8]	; (4028ec <PIOA_Handler+0x10>)
  4028e4:	4798      	blx	r3
  4028e6:	bd08      	pop	{r3, pc}
  4028e8:	400e0e00 	.word	0x400e0e00
  4028ec:	00402891 	.word	0x00402891

004028f0 <PIOB_Handler>:
  4028f0:	b508      	push	{r3, lr}
  4028f2:	4802      	ldr	r0, [pc, #8]	; (4028fc <PIOB_Handler+0xc>)
  4028f4:	210c      	movs	r1, #12
  4028f6:	4b02      	ldr	r3, [pc, #8]	; (402900 <PIOB_Handler+0x10>)
  4028f8:	4798      	blx	r3
  4028fa:	bd08      	pop	{r3, pc}
  4028fc:	400e1000 	.word	0x400e1000
  402900:	00402891 	.word	0x00402891

00402904 <pmc_switch_mck_to_pllack>:
  402904:	4b10      	ldr	r3, [pc, #64]	; (402948 <pmc_switch_mck_to_pllack+0x44>)
  402906:	f640 0101 	movw	r1, #2049	; 0x801
  40290a:	6b1a      	ldr	r2, [r3, #48]	; 0x30
  40290c:	f022 0270 	bic.w	r2, r2, #112	; 0x70
  402910:	4310      	orrs	r0, r2
  402912:	6318      	str	r0, [r3, #48]	; 0x30
  402914:	e003      	b.n	40291e <pmc_switch_mck_to_pllack+0x1a>
  402916:	3901      	subs	r1, #1
  402918:	d101      	bne.n	40291e <pmc_switch_mck_to_pllack+0x1a>
  40291a:	2001      	movs	r0, #1
  40291c:	4770      	bx	lr
  40291e:	6e98      	ldr	r0, [r3, #104]	; 0x68
  402920:	4a09      	ldr	r2, [pc, #36]	; (402948 <pmc_switch_mck_to_pllack+0x44>)
  402922:	0700      	lsls	r0, r0, #28
  402924:	d5f7      	bpl.n	402916 <pmc_switch_mck_to_pllack+0x12>
  402926:	6b13      	ldr	r3, [r2, #48]	; 0x30
  402928:	f023 0303 	bic.w	r3, r3, #3
  40292c:	f043 0302 	orr.w	r3, r3, #2
  402930:	6313      	str	r3, [r2, #48]	; 0x30
  402932:	f640 0301 	movw	r3, #2049	; 0x801
  402936:	e001      	b.n	40293c <pmc_switch_mck_to_pllack+0x38>
  402938:	3b01      	subs	r3, #1
  40293a:	d0ee      	beq.n	40291a <pmc_switch_mck_to_pllack+0x16>
  40293c:	6e91      	ldr	r1, [r2, #104]	; 0x68
  40293e:	0708      	lsls	r0, r1, #28
  402940:	d5fa      	bpl.n	402938 <pmc_switch_mck_to_pllack+0x34>
  402942:	2000      	movs	r0, #0
  402944:	4770      	bx	lr
  402946:	bf00      	nop
  402948:	400e0400 	.word	0x400e0400

0040294c <pmc_switch_sclk_to_32kxtal>:
  40294c:	2801      	cmp	r0, #1
  40294e:	4b07      	ldr	r3, [pc, #28]	; (40296c <pmc_switch_sclk_to_32kxtal+0x20>)
  402950:	d105      	bne.n	40295e <pmc_switch_sclk_to_32kxtal+0x12>
  402952:	689a      	ldr	r2, [r3, #8]
  402954:	f042 4225 	orr.w	r2, r2, #2768240640	; 0xa5000000
  402958:	f442 1280 	orr.w	r2, r2, #1048576	; 0x100000
  40295c:	609a      	str	r2, [r3, #8]
  40295e:	681a      	ldr	r2, [r3, #0]
  402960:	f042 4225 	orr.w	r2, r2, #2768240640	; 0xa5000000
  402964:	f042 0208 	orr.w	r2, r2, #8
  402968:	601a      	str	r2, [r3, #0]
  40296a:	4770      	bx	lr
  40296c:	400e1410 	.word	0x400e1410

00402970 <pmc_switch_mainck_to_fastrc>:
  402970:	4b17      	ldr	r3, [pc, #92]	; (4029d0 <pmc_switch_mainck_to_fastrc+0x60>)
  402972:	6a1a      	ldr	r2, [r3, #32]
  402974:	f012 0f01 	tst.w	r2, #1
  402978:	6a1a      	ldr	r2, [r3, #32]
  40297a:	d00b      	beq.n	402994 <pmc_switch_mainck_to_fastrc+0x24>
  40297c:	f422 125c 	bic.w	r2, r2, #3604480	; 0x370000
  402980:	f022 0278 	bic.w	r2, r2, #120	; 0x78
  402984:	f442 125c 	orr.w	r2, r2, #3604480	; 0x370000
  402988:	f042 0208 	orr.w	r2, r2, #8
  40298c:	4310      	orrs	r0, r2
  40298e:	6218      	str	r0, [r3, #32]
  402990:	2200      	movs	r2, #0
  402992:	e006      	b.n	4029a2 <pmc_switch_mainck_to_fastrc+0x32>
  402994:	490f      	ldr	r1, [pc, #60]	; (4029d4 <pmc_switch_mainck_to_fastrc+0x64>)
  402996:	4011      	ands	r1, r2
  402998:	4a0f      	ldr	r2, [pc, #60]	; (4029d8 <pmc_switch_mainck_to_fastrc+0x68>)
  40299a:	430a      	orrs	r2, r1
  40299c:	4302      	orrs	r2, r0
  40299e:	621a      	str	r2, [r3, #32]
  4029a0:	2201      	movs	r2, #1
  4029a2:	480b      	ldr	r0, [pc, #44]	; (4029d0 <pmc_switch_mainck_to_fastrc+0x60>)
  4029a4:	6e81      	ldr	r1, [r0, #104]	; 0x68
  4029a6:	4b0a      	ldr	r3, [pc, #40]	; (4029d0 <pmc_switch_mainck_to_fastrc+0x60>)
  4029a8:	0389      	lsls	r1, r1, #14
  4029aa:	d5fb      	bpl.n	4029a4 <pmc_switch_mainck_to_fastrc+0x34>
  4029ac:	6a19      	ldr	r1, [r3, #32]
  4029ae:	f021 719b 	bic.w	r1, r1, #20316160	; 0x1360000
  4029b2:	f421 3180 	bic.w	r1, r1, #65536	; 0x10000
  4029b6:	f441 115c 	orr.w	r1, r1, #3604480	; 0x370000
  4029ba:	6219      	str	r1, [r3, #32]
  4029bc:	b13a      	cbz	r2, 4029ce <pmc_switch_mainck_to_fastrc+0x5e>
  4029be:	6a1a      	ldr	r2, [r3, #32]
  4029c0:	f422 125c 	bic.w	r2, r2, #3604480	; 0x370000
  4029c4:	f022 0201 	bic.w	r2, r2, #1
  4029c8:	f442 125c 	orr.w	r2, r2, #3604480	; 0x370000
  4029cc:	621a      	str	r2, [r3, #32]
  4029ce:	4770      	bx	lr
  4029d0:	400e0400 	.word	0x400e0400
  4029d4:	ffc80086 	.word	0xffc80086
  4029d8:	0037ff09 	.word	0x0037ff09

004029dc <pmc_switch_mainck_to_xtal>:
  4029dc:	4b0f      	ldr	r3, [pc, #60]	; (402a1c <pmc_switch_mainck_to_xtal+0x40>)
  4029de:	6a1a      	ldr	r2, [r3, #32]
  4029e0:	b128      	cbz	r0, 4029ee <pmc_switch_mainck_to_xtal+0x12>
  4029e2:	490f      	ldr	r1, [pc, #60]	; (402a20 <pmc_switch_mainck_to_xtal+0x44>)
  4029e4:	4011      	ands	r1, r2
  4029e6:	4a0f      	ldr	r2, [pc, #60]	; (402a24 <pmc_switch_mainck_to_xtal+0x48>)
  4029e8:	430a      	orrs	r2, r1
  4029ea:	621a      	str	r2, [r3, #32]
  4029ec:	4770      	bx	lr
  4029ee:	f422 125c 	bic.w	r2, r2, #3604480	; 0x370000
  4029f2:	f022 0203 	bic.w	r2, r2, #3
  4029f6:	f442 125c 	orr.w	r2, r2, #3604480	; 0x370000
  4029fa:	f042 0201 	orr.w	r2, r2, #1
  4029fe:	0609      	lsls	r1, r1, #24
  402a00:	ea42 4111 	orr.w	r1, r2, r1, lsr #16
  402a04:	6219      	str	r1, [r3, #32]
  402a06:	6e99      	ldr	r1, [r3, #104]	; 0x68
  402a08:	4a04      	ldr	r2, [pc, #16]	; (402a1c <pmc_switch_mainck_to_xtal+0x40>)
  402a0a:	07c9      	lsls	r1, r1, #31
  402a0c:	d5fb      	bpl.n	402a06 <pmc_switch_mainck_to_xtal+0x2a>
  402a0e:	6a13      	ldr	r3, [r2, #32]
  402a10:	f043 739b 	orr.w	r3, r3, #20316160	; 0x1360000
  402a14:	f443 3380 	orr.w	r3, r3, #65536	; 0x10000
  402a18:	6213      	str	r3, [r2, #32]
  402a1a:	4770      	bx	lr
  402a1c:	400e0400 	.word	0x400e0400
  402a20:	fec8fffc 	.word	0xfec8fffc
  402a24:	01370002 	.word	0x01370002

00402a28 <pmc_osc_is_ready_mainck>:
  402a28:	4b02      	ldr	r3, [pc, #8]	; (402a34 <pmc_osc_is_ready_mainck+0xc>)
  402a2a:	6e98      	ldr	r0, [r3, #104]	; 0x68
  402a2c:	f400 3080 	and.w	r0, r0, #65536	; 0x10000
  402a30:	4770      	bx	lr
  402a32:	bf00      	nop
  402a34:	400e0400 	.word	0x400e0400

00402a38 <pmc_disable_pllack>:
  402a38:	4b02      	ldr	r3, [pc, #8]	; (402a44 <pmc_disable_pllack+0xc>)
  402a3a:	f04f 5200 	mov.w	r2, #536870912	; 0x20000000
  402a3e:	629a      	str	r2, [r3, #40]	; 0x28
  402a40:	4770      	bx	lr
  402a42:	bf00      	nop
  402a44:	400e0400 	.word	0x400e0400

00402a48 <pmc_is_locked_pllack>:
  402a48:	4b02      	ldr	r3, [pc, #8]	; (402a54 <pmc_is_locked_pllack+0xc>)
  402a4a:	6e98      	ldr	r0, [r3, #104]	; 0x68
  402a4c:	f000 0002 	and.w	r0, r0, #2
  402a50:	4770      	bx	lr
  402a52:	bf00      	nop
  402a54:	400e0400 	.word	0x400e0400

00402a58 <pmc_disable_pllbck>:
  402a58:	4b01      	ldr	r3, [pc, #4]	; (402a60 <pmc_disable_pllbck+0x8>)
  402a5a:	2200      	movs	r2, #0
  402a5c:	62da      	str	r2, [r3, #44]	; 0x2c
  402a5e:	4770      	bx	lr
  402a60:	400e0400 	.word	0x400e0400

00402a64 <pmc_is_locked_pllbck>:
  402a64:	4b02      	ldr	r3, [pc, #8]	; (402a70 <pmc_is_locked_pllbck+0xc>)
  402a66:	6e98      	ldr	r0, [r3, #104]	; 0x68
  402a68:	f000 0004 	and.w	r0, r0, #4
  402a6c:	4770      	bx	lr
  402a6e:	bf00      	nop
  402a70:	400e0400 	.word	0x400e0400

00402a74 <pmc_enable_periph_clk>:
  402a74:	2822      	cmp	r0, #34	; 0x22
  402a76:	d819      	bhi.n	402aac <pmc_enable_periph_clk+0x38>
  402a78:	281f      	cmp	r0, #31
  402a7a:	4b0e      	ldr	r3, [pc, #56]	; (402ab4 <pmc_enable_periph_clk+0x40>)
  402a7c:	f04f 0201 	mov.w	r2, #1
  402a80:	d808      	bhi.n	402a94 <pmc_enable_periph_clk+0x20>
  402a82:	fa02 f000 	lsl.w	r0, r2, r0
  402a86:	6999      	ldr	r1, [r3, #24]
  402a88:	ea00 0201 	and.w	r2, r0, r1
  402a8c:	4282      	cmp	r2, r0
  402a8e:	d00f      	beq.n	402ab0 <pmc_enable_periph_clk+0x3c>
  402a90:	6118      	str	r0, [r3, #16]
  402a92:	e00d      	b.n	402ab0 <pmc_enable_periph_clk+0x3c>
  402a94:	3820      	subs	r0, #32
  402a96:	fa02 f000 	lsl.w	r0, r2, r0
  402a9a:	f8d3 1108 	ldr.w	r1, [r3, #264]	; 0x108
  402a9e:	ea00 0201 	and.w	r2, r0, r1
  402aa2:	4282      	cmp	r2, r0
  402aa4:	d004      	beq.n	402ab0 <pmc_enable_periph_clk+0x3c>
  402aa6:	f8c3 0100 	str.w	r0, [r3, #256]	; 0x100
  402aaa:	e001      	b.n	402ab0 <pmc_enable_periph_clk+0x3c>
  402aac:	2001      	movs	r0, #1
  402aae:	4770      	bx	lr
  402ab0:	2000      	movs	r0, #0
  402ab2:	4770      	bx	lr
  402ab4:	400e0400 	.word	0x400e0400

00402ab8 <pmc_disable_periph_clk>:
  402ab8:	2822      	cmp	r0, #34	; 0x22
  402aba:	d817      	bhi.n	402aec <pmc_disable_periph_clk+0x34>
  402abc:	281f      	cmp	r0, #31
  402abe:	4b0d      	ldr	r3, [pc, #52]	; (402af4 <pmc_disable_periph_clk+0x3c>)
  402ac0:	f04f 0101 	mov.w	r1, #1
  402ac4:	d807      	bhi.n	402ad6 <pmc_disable_periph_clk+0x1e>
  402ac6:	fa01 f000 	lsl.w	r0, r1, r0
  402aca:	699a      	ldr	r2, [r3, #24]
  402acc:	4002      	ands	r2, r0
  402ace:	4282      	cmp	r2, r0
  402ad0:	d10e      	bne.n	402af0 <pmc_disable_periph_clk+0x38>
  402ad2:	615a      	str	r2, [r3, #20]
  402ad4:	e00c      	b.n	402af0 <pmc_disable_periph_clk+0x38>
  402ad6:	3820      	subs	r0, #32
  402ad8:	fa01 f000 	lsl.w	r0, r1, r0
  402adc:	f8d3 2108 	ldr.w	r2, [r3, #264]	; 0x108
  402ae0:	4002      	ands	r2, r0
  402ae2:	4282      	cmp	r2, r0
  402ae4:	d104      	bne.n	402af0 <pmc_disable_periph_clk+0x38>
  402ae6:	f8c3 2104 	str.w	r2, [r3, #260]	; 0x104
  402aea:	e001      	b.n	402af0 <pmc_disable_periph_clk+0x38>
  402aec:	2001      	movs	r0, #1
  402aee:	4770      	bx	lr
  402af0:	2000      	movs	r0, #0
  402af2:	4770      	bx	lr
  402af4:	400e0400 	.word	0x400e0400

00402af8 <pmc_switch_udpck_to_pllbck>:
  402af8:	0200      	lsls	r0, r0, #8
  402afa:	f400 6270 	and.w	r2, r0, #3840	; 0xf00
  402afe:	4b02      	ldr	r3, [pc, #8]	; (402b08 <pmc_switch_udpck_to_pllbck+0x10>)
  402b00:	f042 0201 	orr.w	r2, r2, #1
  402b04:	639a      	str	r2, [r3, #56]	; 0x38
  402b06:	4770      	bx	lr
  402b08:	400e0400 	.word	0x400e0400

00402b0c <pmc_enable_udpck>:
  402b0c:	4b01      	ldr	r3, [pc, #4]	; (402b14 <pmc_enable_udpck+0x8>)
  402b0e:	2280      	movs	r2, #128	; 0x80
  402b10:	601a      	str	r2, [r3, #0]
  402b12:	4770      	bx	lr
  402b14:	400e0400 	.word	0x400e0400

00402b18 <pmc_set_fast_startup_input>:
  402b18:	4b04      	ldr	r3, [pc, #16]	; (402b2c <pmc_set_fast_startup_input+0x14>)
  402b1a:	f020 407f 	bic.w	r0, r0, #4278190080	; 0xff000000
  402b1e:	6f1a      	ldr	r2, [r3, #112]	; 0x70
  402b20:	f420 0078 	bic.w	r0, r0, #16252928	; 0xf80000
  402b24:	4302      	orrs	r2, r0
  402b26:	671a      	str	r2, [r3, #112]	; 0x70
  402b28:	4770      	bx	lr
  402b2a:	bf00      	nop
  402b2c:	400e0400 	.word	0x400e0400

00402b30 <rtc_get_time>:
  402b30:	b570      	push	{r4, r5, r6, lr}
  402b32:	6884      	ldr	r4, [r0, #8]
  402b34:	6885      	ldr	r5, [r0, #8]
  402b36:	42ac      	cmp	r4, r5
  402b38:	d1fb      	bne.n	402b32 <rtc_get_time+0x2>
  402b3a:	b169      	cbz	r1, 402b58 <rtc_get_time+0x28>
  402b3c:	f404 157c 	and.w	r5, r4, #4128768	; 0x3f0000
  402b40:	0d28      	lsrs	r0, r5, #20
  402b42:	260a      	movs	r6, #10
  402b44:	f3c5 4503 	ubfx	r5, r5, #16, #4
  402b48:	fb06 5000 	mla	r0, r6, r0, r5
  402b4c:	f414 0f80 	tst.w	r4, #4194304	; 0x400000
  402b50:	6008      	str	r0, [r1, #0]
  402b52:	d001      	beq.n	402b58 <rtc_get_time+0x28>
  402b54:	300c      	adds	r0, #12
  402b56:	6008      	str	r0, [r1, #0]
  402b58:	b142      	cbz	r2, 402b6c <rtc_get_time+0x3c>
  402b5a:	f404 41fe 	and.w	r1, r4, #32512	; 0x7f00
  402b5e:	0b0d      	lsrs	r5, r1, #12
  402b60:	f3c1 2003 	ubfx	r0, r1, #8, #4
  402b64:	210a      	movs	r1, #10
  402b66:	fb01 0105 	mla	r1, r1, r5, r0
  402b6a:	6011      	str	r1, [r2, #0]
  402b6c:	b13b      	cbz	r3, 402b7e <rtc_get_time+0x4e>
  402b6e:	f3c4 1102 	ubfx	r1, r4, #4, #3
  402b72:	f004 020f 	and.w	r2, r4, #15
  402b76:	240a      	movs	r4, #10
  402b78:	fb04 2401 	mla	r4, r4, r1, r2
  402b7c:	601c      	str	r4, [r3, #0]
  402b7e:	bd70      	pop	{r4, r5, r6, pc}

00402b80 <rtc_get_date>:
  402b80:	b5f0      	push	{r4, r5, r6, r7, lr}
  402b82:	9d05      	ldr	r5, [sp, #20]
  402b84:	68c4      	ldr	r4, [r0, #12]
  402b86:	68c6      	ldr	r6, [r0, #12]
  402b88:	42b4      	cmp	r4, r6
  402b8a:	d1fb      	bne.n	402b84 <rtc_get_date+0x4>
  402b8c:	b189      	cbz	r1, 402bb2 <rtc_get_date+0x32>
  402b8e:	f404 467f 	and.w	r6, r4, #65280	; 0xff00
  402b92:	0b37      	lsrs	r7, r6, #12
  402b94:	200a      	movs	r0, #10
  402b96:	f3c6 2603 	ubfx	r6, r6, #8, #4
  402b9a:	fb00 6607 	mla	r6, r0, r7, r6
  402b9e:	f3c4 1c02 	ubfx	ip, r4, #4, #3
  402ba2:	f004 070f 	and.w	r7, r4, #15
  402ba6:	fb00 700c 	mla	r0, r0, ip, r7
  402baa:	2764      	movs	r7, #100	; 0x64
  402bac:	fb07 6000 	mla	r0, r7, r0, r6
  402bb0:	6008      	str	r0, [r1, #0]
  402bb2:	b142      	cbz	r2, 402bc6 <rtc_get_date+0x46>
  402bb4:	f404 11f8 	and.w	r1, r4, #2031616	; 0x1f0000
  402bb8:	0d0e      	lsrs	r6, r1, #20
  402bba:	f3c1 4003 	ubfx	r0, r1, #16, #4
  402bbe:	210a      	movs	r1, #10
  402bc0:	fb01 0106 	mla	r1, r1, r6, r0
  402bc4:	6011      	str	r1, [r2, #0]
  402bc6:	b143      	cbz	r3, 402bda <rtc_get_date+0x5a>
  402bc8:	f004 527c 	and.w	r2, r4, #1056964608	; 0x3f000000
  402bcc:	0f10      	lsrs	r0, r2, #28
  402bce:	f3c2 6103 	ubfx	r1, r2, #24, #4
  402bd2:	220a      	movs	r2, #10
  402bd4:	fb02 1200 	mla	r2, r2, r0, r1
  402bd8:	601a      	str	r2, [r3, #0]
  402bda:	b115      	cbz	r5, 402be2 <rtc_get_date+0x62>
  402bdc:	f3c4 5442 	ubfx	r4, r4, #21, #3
  402be0:	602c      	str	r4, [r5, #0]
  402be2:	bdf0      	pop	{r4, r5, r6, r7, pc}

00402be4 <cpu_irq_save>:
  402be4:	4b03      	ldr	r3, [pc, #12]	; (402bf4 <cpu_irq_save+0x10>)
  402be6:	7818      	ldrb	r0, [r3, #0]
  402be8:	b672      	cpsid	i
  402bea:	f3bf 8f5f 	dmb	sy
  402bee:	2200      	movs	r2, #0
  402bf0:	701a      	strb	r2, [r3, #0]
  402bf2:	4770      	bx	lr
  402bf4:	2000010c 	.word	0x2000010c

00402bf8 <udd_ctrl_init>:
  402bf8:	4a04      	ldr	r2, [pc, #16]	; (402c0c <udd_ctrl_init+0x14>)
  402bfa:	2300      	movs	r3, #0
  402bfc:	4619      	mov	r1, r3
  402bfe:	6113      	str	r3, [r2, #16]
  402c00:	6153      	str	r3, [r2, #20]
  402c02:	8193      	strh	r3, [r2, #12]
  402c04:	4b02      	ldr	r3, [pc, #8]	; (402c10 <udd_ctrl_init+0x18>)
  402c06:	7019      	strb	r1, [r3, #0]
  402c08:	4770      	bx	lr
  402c0a:	bf00      	nop
  402c0c:	2000172c 	.word	0x2000172c
  402c10:	20001000 	.word	0x20001000

00402c14 <udd_ctrl_stall_data>:
  402c14:	4b0d      	ldr	r3, [pc, #52]	; (402c4c <udd_ctrl_stall_data+0x38>)
  402c16:	2205      	movs	r2, #5
  402c18:	701a      	strb	r2, [r3, #0]
  402c1a:	4b0d      	ldr	r3, [pc, #52]	; (402c50 <udd_ctrl_stall_data+0x3c>)
  402c1c:	b082      	sub	sp, #8
  402c1e:	6b1a      	ldr	r2, [r3, #48]	; 0x30
  402c20:	9200      	str	r2, [sp, #0]
  402c22:	9a00      	ldr	r2, [sp, #0]
  402c24:	f042 024f 	orr.w	r2, r2, #79	; 0x4f
  402c28:	9200      	str	r2, [sp, #0]
  402c2a:	9a00      	ldr	r2, [sp, #0]
  402c2c:	f042 0220 	orr.w	r2, r2, #32
  402c30:	9200      	str	r2, [sp, #0]
  402c32:	9a00      	ldr	r2, [sp, #0]
  402c34:	631a      	str	r2, [r3, #48]	; 0x30
  402c36:	2300      	movs	r3, #0
  402c38:	e002      	b.n	402c40 <udd_ctrl_stall_data+0x2c>
  402c3a:	bf00      	nop
  402c3c:	9b01      	ldr	r3, [sp, #4]
  402c3e:	3301      	adds	r3, #1
  402c40:	9301      	str	r3, [sp, #4]
  402c42:	9b01      	ldr	r3, [sp, #4]
  402c44:	2b0e      	cmp	r3, #14
  402c46:	d9f8      	bls.n	402c3a <udd_ctrl_stall_data+0x26>
  402c48:	b002      	add	sp, #8
  402c4a:	4770      	bx	lr
  402c4c:	20001000 	.word	0x20001000
  402c50:	40034000 	.word	0x40034000

00402c54 <udd_ctrl_send_zlp_in>:
  402c54:	4b0d      	ldr	r3, [pc, #52]	; (402c8c <udd_ctrl_send_zlp_in+0x38>)
  402c56:	2203      	movs	r2, #3
  402c58:	701a      	strb	r2, [r3, #0]
  402c5a:	4b0d      	ldr	r3, [pc, #52]	; (402c90 <udd_ctrl_send_zlp_in+0x3c>)
  402c5c:	b082      	sub	sp, #8
  402c5e:	6b1a      	ldr	r2, [r3, #48]	; 0x30
  402c60:	9200      	str	r2, [sp, #0]
  402c62:	9a00      	ldr	r2, [sp, #0]
  402c64:	f042 024f 	orr.w	r2, r2, #79	; 0x4f
  402c68:	9200      	str	r2, [sp, #0]
  402c6a:	9a00      	ldr	r2, [sp, #0]
  402c6c:	f042 0210 	orr.w	r2, r2, #16
  402c70:	9200      	str	r2, [sp, #0]
  402c72:	9a00      	ldr	r2, [sp, #0]
  402c74:	631a      	str	r2, [r3, #48]	; 0x30
  402c76:	2300      	movs	r3, #0
  402c78:	e002      	b.n	402c80 <udd_ctrl_send_zlp_in+0x2c>
  402c7a:	bf00      	nop
  402c7c:	9b01      	ldr	r3, [sp, #4]
  402c7e:	3301      	adds	r3, #1
  402c80:	9301      	str	r3, [sp, #4]
  402c82:	9b01      	ldr	r3, [sp, #4]
  402c84:	2b0e      	cmp	r3, #14
  402c86:	d9f8      	bls.n	402c7a <udd_ctrl_send_zlp_in+0x26>
  402c88:	b002      	add	sp, #8
  402c8a:	4770      	bx	lr
  402c8c:	20001000 	.word	0x20001000
  402c90:	40034000 	.word	0x40034000

00402c94 <udd_ctrl_endofrequest>:
  402c94:	b508      	push	{r3, lr}
  402c96:	4b02      	ldr	r3, [pc, #8]	; (402ca0 <udd_ctrl_endofrequest+0xc>)
  402c98:	691b      	ldr	r3, [r3, #16]
  402c9a:	b103      	cbz	r3, 402c9e <udd_ctrl_endofrequest+0xa>
  402c9c:	4798      	blx	r3
  402c9e:	bd08      	pop	{r3, pc}
  402ca0:	2000172c 	.word	0x2000172c

00402ca4 <udd_ep_ack_out_received>:
  402ca4:	4a1d      	ldr	r2, [pc, #116]	; (402d1c <udd_ep_ack_out_received+0x78>)
  402ca6:	2114      	movs	r1, #20
  402ca8:	1e43      	subs	r3, r0, #1
  402caa:	fb01 2303 	mla	r3, r1, r3, r2
  402cae:	4a1c      	ldr	r2, [pc, #112]	; (402d20 <udd_ep_ack_out_received+0x7c>)
  402cb0:	f100 010c 	add.w	r1, r0, #12
  402cb4:	b510      	push	{r4, lr}
  402cb6:	f852 4021 	ldr.w	r4, [r2, r1, lsl #2]
  402cba:	f004 0442 	and.w	r4, r4, #66	; 0x42
  402cbe:	2c42      	cmp	r4, #66	; 0x42
  402cc0:	d00c      	beq.n	402cdc <udd_ep_ack_out_received+0x38>
  402cc2:	f852 2021 	ldr.w	r2, [r2, r1, lsl #2]
  402cc6:	f012 0f02 	tst.w	r2, #2
  402cca:	7c5a      	ldrb	r2, [r3, #17]
  402ccc:	d002      	beq.n	402cd4 <udd_ep_ack_out_received+0x30>
  402cce:	f36f 0283 	bfc	r2, #2, #2
  402cd2:	e002      	b.n	402cda <udd_ep_ack_out_received+0x36>
  402cd4:	2101      	movs	r1, #1
  402cd6:	f361 0283 	bfi	r2, r1, #2, #2
  402cda:	745a      	strb	r2, [r3, #17]
  402cdc:	7c5a      	ldrb	r2, [r3, #17]
  402cde:	f100 010c 	add.w	r1, r0, #12
  402ce2:	f012 0f0c 	tst.w	r2, #12
  402ce6:	4a0e      	ldr	r2, [pc, #56]	; (402d20 <udd_ep_ack_out_received+0x7c>)
  402ce8:	d10d      	bne.n	402d06 <udd_ep_ack_out_received+0x62>
  402cea:	f852 4021 	ldr.w	r4, [r2, r1, lsl #2]
  402cee:	f024 0402 	bic.w	r4, r4, #2
  402cf2:	f842 4021 	str.w	r4, [r2, r1, lsl #2]
  402cf6:	b180      	cbz	r0, 402d1a <udd_ep_ack_out_received+0x76>
  402cf8:	2803      	cmp	r0, #3
  402cfa:	d00e      	beq.n	402d1a <udd_ep_ack_out_received+0x76>
  402cfc:	7c5a      	ldrb	r2, [r3, #17]
  402cfe:	2101      	movs	r1, #1
  402d00:	f361 0283 	bfi	r2, r1, #2, #2
  402d04:	e008      	b.n	402d18 <udd_ep_ack_out_received+0x74>
  402d06:	f852 0021 	ldr.w	r0, [r2, r1, lsl #2]
  402d0a:	f020 0040 	bic.w	r0, r0, #64	; 0x40
  402d0e:	f842 0021 	str.w	r0, [r2, r1, lsl #2]
  402d12:	7c5a      	ldrb	r2, [r3, #17]
  402d14:	f36f 0283 	bfc	r2, #2, #2
  402d18:	745a      	strb	r2, [r3, #17]
  402d1a:	bd10      	pop	{r4, pc}
  402d1c:	20000fc0 	.word	0x20000fc0
  402d20:	40034000 	.word	0x40034000

00402d24 <udd_ep_in_sent>:
  402d24:	4a57      	ldr	r2, [pc, #348]	; (402e84 <udd_ep_in_sent+0x160>)
  402d26:	e92d 4ff0 	stmdb	sp!, {r4, r5, r6, r7, r8, r9, sl, fp, lr}
  402d2a:	1e43      	subs	r3, r0, #1
  402d2c:	2414      	movs	r4, #20
  402d2e:	fb04 2303 	mla	r3, r4, r3, r2
  402d32:	f893 a011 	ldrb.w	sl, [r3, #17]
  402d36:	b085      	sub	sp, #20
  402d38:	f3ca 0a81 	ubfx	sl, sl, #2, #2
  402d3c:	b908      	cbnz	r0, 402d42 <udd_ep_in_sent+0x1e>
  402d3e:	2201      	movs	r2, #1
  402d40:	e002      	b.n	402d48 <udd_ep_in_sent+0x24>
  402d42:	2803      	cmp	r0, #3
  402d44:	d0fb      	beq.n	402d3e <udd_ep_in_sent+0x1a>
  402d46:	2202      	movs	r2, #2
  402d48:	4592      	cmp	sl, r2
  402d4a:	db01      	blt.n	402d50 <udd_ep_in_sent+0x2c>
  402d4c:	2001      	movs	r0, #1
  402d4e:	e095      	b.n	402e7c <udd_ep_in_sent+0x158>
  402d50:	68da      	ldr	r2, [r3, #12]
  402d52:	689f      	ldr	r7, [r3, #8]
  402d54:	42ba      	cmp	r2, r7
  402d56:	d306      	bcc.n	402d66 <udd_ep_in_sent+0x42>
  402d58:	7c5c      	ldrb	r4, [r3, #17]
  402d5a:	f004 0440 	and.w	r4, r4, #64	; 0x40
  402d5e:	b2e4      	uxtb	r4, r4
  402d60:	2c00      	cmp	r4, #0
  402d62:	f000 808a 	beq.w	402e7a <udd_ep_in_sent+0x156>
  402d66:	685c      	ldr	r4, [r3, #4]
  402d68:	1abe      	subs	r6, r7, r2
  402d6a:	eb04 0c02 	add.w	ip, r4, r2
  402d6e:	8a1c      	ldrh	r4, [r3, #16]
  402d70:	f3c4 0409 	ubfx	r4, r4, #0, #10
  402d74:	b2a4      	uxth	r4, r4
  402d76:	42a6      	cmp	r6, r4
  402d78:	bf28      	it	cs
  402d7a:	4626      	movcs	r6, r4
  402d7c:	eb06 0802 	add.w	r8, r6, r2
  402d80:	eb0c 0406 	add.w	r4, ip, r6
  402d84:	9401      	str	r4, [sp, #4]
  402d86:	bf2c      	ite	cs
  402d88:	f04f 0900 	movcs.w	r9, #0
  402d8c:	f04f 0901 	movcc.w	r9, #1
  402d90:	f8c3 800c 	str.w	r8, [r3, #12]
  402d94:	4662      	mov	r2, ip
  402d96:	4c3c      	ldr	r4, [pc, #240]	; (402e88 <udd_ep_in_sent+0x164>)
  402d98:	e022      	b.n	402de0 <udd_ep_in_sent+0xbc>
  402d9a:	f892 b000 	ldrb.w	fp, [r2]
  402d9e:	f100 0514 	add.w	r5, r0, #20
  402da2:	f844 b025 	str.w	fp, [r4, r5, lsl #2]
  402da6:	f892 b001 	ldrb.w	fp, [r2, #1]
  402daa:	f844 b025 	str.w	fp, [r4, r5, lsl #2]
  402dae:	f892 b002 	ldrb.w	fp, [r2, #2]
  402db2:	f844 b025 	str.w	fp, [r4, r5, lsl #2]
  402db6:	f892 b003 	ldrb.w	fp, [r2, #3]
  402dba:	f844 b025 	str.w	fp, [r4, r5, lsl #2]
  402dbe:	f892 b004 	ldrb.w	fp, [r2, #4]
  402dc2:	f844 b025 	str.w	fp, [r4, r5, lsl #2]
  402dc6:	f892 b005 	ldrb.w	fp, [r2, #5]
  402dca:	f844 b025 	str.w	fp, [r4, r5, lsl #2]
  402dce:	f892 b006 	ldrb.w	fp, [r2, #6]
  402dd2:	f844 b025 	str.w	fp, [r4, r5, lsl #2]
  402dd6:	f892 b007 	ldrb.w	fp, [r2, #7]
  402dda:	3208      	adds	r2, #8
  402ddc:	f844 b025 	str.w	fp, [r4, r5, lsl #2]
  402de0:	f8dd b004 	ldr.w	fp, [sp, #4]
  402de4:	ebc2 050b 	rsb	r5, r2, fp
  402de8:	2d07      	cmp	r5, #7
  402dea:	d8d6      	bhi.n	402d9a <udd_ep_in_sent+0x76>
  402dec:	f026 0207 	bic.w	r2, r6, #7
  402df0:	4462      	add	r2, ip
  402df2:	f006 0607 	and.w	r6, r6, #7
  402df6:	1996      	adds	r6, r2, r6
  402df8:	4c23      	ldr	r4, [pc, #140]	; (402e88 <udd_ep_in_sent+0x164>)
  402dfa:	e005      	b.n	402e08 <udd_ep_in_sent+0xe4>
  402dfc:	f812 cb01 	ldrb.w	ip, [r2], #1
  402e00:	f100 0514 	add.w	r5, r0, #20
  402e04:	f844 c025 	str.w	ip, [r4, r5, lsl #2]
  402e08:	42b2      	cmp	r2, r6
  402e0a:	d1f7      	bne.n	402dfc <udd_ep_in_sent+0xd8>
  402e0c:	7c5a      	ldrb	r2, [r3, #17]
  402e0e:	f10a 0a01 	add.w	sl, sl, #1
  402e12:	f36a 0283 	bfi	r2, sl, #2, #2
  402e16:	745a      	strb	r2, [r3, #17]
  402e18:	b919      	cbnz	r1, 402e22 <udd_ep_in_sent+0xfe>
  402e1a:	f1b9 0f00 	cmp.w	r9, #0
  402e1e:	d11a      	bne.n	402e56 <udd_ep_in_sent+0x132>
  402e20:	e01d      	b.n	402e5e <udd_ep_in_sent+0x13a>
  402e22:	4a19      	ldr	r2, [pc, #100]	; (402e88 <udd_ep_in_sent+0x164>)
  402e24:	300c      	adds	r0, #12
  402e26:	f852 1020 	ldr.w	r1, [r2, r0, lsl #2]
  402e2a:	9102      	str	r1, [sp, #8]
  402e2c:	9902      	ldr	r1, [sp, #8]
  402e2e:	f041 014f 	orr.w	r1, r1, #79	; 0x4f
  402e32:	9102      	str	r1, [sp, #8]
  402e34:	9902      	ldr	r1, [sp, #8]
  402e36:	f041 0110 	orr.w	r1, r1, #16
  402e3a:	9102      	str	r1, [sp, #8]
  402e3c:	9902      	ldr	r1, [sp, #8]
  402e3e:	f842 1020 	str.w	r1, [r2, r0, lsl #2]
  402e42:	2200      	movs	r2, #0
  402e44:	e002      	b.n	402e4c <udd_ep_in_sent+0x128>
  402e46:	bf00      	nop
  402e48:	9a03      	ldr	r2, [sp, #12]
  402e4a:	3201      	adds	r2, #1
  402e4c:	9203      	str	r2, [sp, #12]
  402e4e:	9a03      	ldr	r2, [sp, #12]
  402e50:	2a0e      	cmp	r2, #14
  402e52:	d9f8      	bls.n	402e46 <udd_ep_in_sent+0x122>
  402e54:	e7e1      	b.n	402e1a <udd_ep_in_sent+0xf6>
  402e56:	7c5a      	ldrb	r2, [r3, #17]
  402e58:	f36f 1286 	bfc	r2, #6, #1
  402e5c:	745a      	strb	r2, [r3, #17]
  402e5e:	45b8      	cmp	r8, r7
  402e60:	f4ff af74 	bcc.w	402d4c <udd_ep_in_sent+0x28>
  402e64:	7c5a      	ldrb	r2, [r3, #17]
  402e66:	f002 0040 	and.w	r0, r2, #64	; 0x40
  402e6a:	b2c0      	uxtb	r0, r0
  402e6c:	2800      	cmp	r0, #0
  402e6e:	f47f af6d 	bne.w	402d4c <udd_ep_in_sent+0x28>
  402e72:	f042 0280 	orr.w	r2, r2, #128	; 0x80
  402e76:	745a      	strb	r2, [r3, #17]
  402e78:	e000      	b.n	402e7c <udd_ep_in_sent+0x158>
  402e7a:	4620      	mov	r0, r4
  402e7c:	b005      	add	sp, #20
  402e7e:	e8bd 8ff0 	ldmia.w	sp!, {r4, r5, r6, r7, r8, r9, sl, fp, pc}
  402e82:	bf00      	nop
  402e84:	20000fc0 	.word	0x20000fc0
  402e88:	40034000 	.word	0x40034000

00402e8c <cpu_irq_restore>:
  402e8c:	b128      	cbz	r0, 402e9a <cpu_irq_restore+0xe>
  402e8e:	4b03      	ldr	r3, [pc, #12]	; (402e9c <cpu_irq_restore+0x10>)
  402e90:	2201      	movs	r2, #1
  402e92:	701a      	strb	r2, [r3, #0]
  402e94:	f3bf 8f5f 	dmb	sy
  402e98:	b662      	cpsie	i
  402e9a:	4770      	bx	lr
  402e9c:	2000010c 	.word	0x2000010c

00402ea0 <udd_sleep_mode>:
  402ea0:	4b0c      	ldr	r3, [pc, #48]	; (402ed4 <udd_sleep_mode+0x34>)
  402ea2:	b510      	push	{r4, lr}
  402ea4:	781b      	ldrb	r3, [r3, #0]
  402ea6:	4604      	mov	r4, r0
  402ea8:	b988      	cbnz	r0, 402ece <udd_sleep_mode+0x2e>
  402eaa:	b16b      	cbz	r3, 402ec8 <udd_sleep_mode+0x28>
  402eac:	4b0a      	ldr	r3, [pc, #40]	; (402ed8 <udd_sleep_mode+0x38>)
  402eae:	4798      	blx	r3
  402eb0:	4b0a      	ldr	r3, [pc, #40]	; (402edc <udd_sleep_mode+0x3c>)
  402eb2:	789a      	ldrb	r2, [r3, #2]
  402eb4:	3a01      	subs	r2, #1
  402eb6:	e004      	b.n	402ec2 <udd_sleep_mode+0x22>
  402eb8:	4b07      	ldr	r3, [pc, #28]	; (402ed8 <udd_sleep_mode+0x38>)
  402eba:	4798      	blx	r3
  402ebc:	4b07      	ldr	r3, [pc, #28]	; (402edc <udd_sleep_mode+0x3c>)
  402ebe:	789a      	ldrb	r2, [r3, #2]
  402ec0:	3201      	adds	r2, #1
  402ec2:	709a      	strb	r2, [r3, #2]
  402ec4:	4b06      	ldr	r3, [pc, #24]	; (402ee0 <udd_sleep_mode+0x40>)
  402ec6:	4798      	blx	r3
  402ec8:	4b02      	ldr	r3, [pc, #8]	; (402ed4 <udd_sleep_mode+0x34>)
  402eca:	701c      	strb	r4, [r3, #0]
  402ecc:	bd10      	pop	{r4, pc}
  402ece:	2b00      	cmp	r3, #0
  402ed0:	d1fa      	bne.n	402ec8 <udd_sleep_mode+0x28>
  402ed2:	e7f1      	b.n	402eb8 <udd_sleep_mode+0x18>
  402ed4:	20000ffc 	.word	0x20000ffc
  402ed8:	00402be5 	.word	0x00402be5
  402edc:	2000171a 	.word	0x2000171a
  402ee0:	00402e8d 	.word	0x00402e8d

00402ee4 <udd_ctrl_in_sent>:
  402ee4:	b5f0      	push	{r4, r5, r6, r7, lr}
  402ee6:	4b60      	ldr	r3, [pc, #384]	; (403068 <udd_ctrl_in_sent+0x184>)
  402ee8:	b08b      	sub	sp, #44	; 0x2c
  402eea:	781b      	ldrb	r3, [r3, #0]
  402eec:	2b03      	cmp	r3, #3
  402eee:	d11a      	bne.n	402f26 <udd_ctrl_in_sent+0x42>
  402ef0:	4b5e      	ldr	r3, [pc, #376]	; (40306c <udd_ctrl_in_sent+0x188>)
  402ef2:	6b1a      	ldr	r2, [r3, #48]	; 0x30
  402ef4:	9200      	str	r2, [sp, #0]
  402ef6:	9a00      	ldr	r2, [sp, #0]
  402ef8:	f042 024f 	orr.w	r2, r2, #79	; 0x4f
  402efc:	9200      	str	r2, [sp, #0]
  402efe:	9a00      	ldr	r2, [sp, #0]
  402f00:	f022 0201 	bic.w	r2, r2, #1
  402f04:	9200      	str	r2, [sp, #0]
  402f06:	9a00      	ldr	r2, [sp, #0]
  402f08:	631a      	str	r2, [r3, #48]	; 0x30
  402f0a:	2300      	movs	r3, #0
  402f0c:	e002      	b.n	402f14 <udd_ctrl_in_sent+0x30>
  402f0e:	bf00      	nop
  402f10:	9b01      	ldr	r3, [sp, #4]
  402f12:	3301      	adds	r3, #1
  402f14:	9301      	str	r3, [sp, #4]
  402f16:	9b01      	ldr	r3, [sp, #4]
  402f18:	2b0e      	cmp	r3, #14
  402f1a:	d9f8      	bls.n	402f0e <udd_ctrl_in_sent+0x2a>
  402f1c:	4b54      	ldr	r3, [pc, #336]	; (403070 <udd_ctrl_in_sent+0x18c>)
  402f1e:	4798      	blx	r3
  402f20:	4b54      	ldr	r3, [pc, #336]	; (403074 <udd_ctrl_in_sent+0x190>)
  402f22:	4798      	blx	r3
  402f24:	e09e      	b.n	403064 <udd_ctrl_in_sent+0x180>
  402f26:	4e54      	ldr	r6, [pc, #336]	; (403078 <udd_ctrl_in_sent+0x194>)
  402f28:	4d54      	ldr	r5, [pc, #336]	; (40307c <udd_ctrl_in_sent+0x198>)
  402f2a:	8833      	ldrh	r3, [r6, #0]
  402f2c:	89ac      	ldrh	r4, [r5, #12]
  402f2e:	1ae4      	subs	r4, r4, r3
  402f30:	b2a4      	uxth	r4, r4
  402f32:	2c00      	cmp	r4, #0
  402f34:	d12a      	bne.n	402f8c <udd_ctrl_in_sent+0xa8>
  402f36:	4a52      	ldr	r2, [pc, #328]	; (403080 <udd_ctrl_in_sent+0x19c>)
  402f38:	8811      	ldrh	r1, [r2, #0]
  402f3a:	185b      	adds	r3, r3, r1
  402f3c:	b29b      	uxth	r3, r3
  402f3e:	8013      	strh	r3, [r2, #0]
  402f40:	88ea      	ldrh	r2, [r5, #6]
  402f42:	429a      	cmp	r2, r3
  402f44:	d002      	beq.n	402f4c <udd_ctrl_in_sent+0x68>
  402f46:	4b4f      	ldr	r3, [pc, #316]	; (403084 <udd_ctrl_in_sent+0x1a0>)
  402f48:	781b      	ldrb	r3, [r3, #0]
  402f4a:	b1cb      	cbz	r3, 402f80 <udd_ctrl_in_sent+0x9c>
  402f4c:	4b46      	ldr	r3, [pc, #280]	; (403068 <udd_ctrl_in_sent+0x184>)
  402f4e:	2204      	movs	r2, #4
  402f50:	701a      	strb	r2, [r3, #0]
  402f52:	4b46      	ldr	r3, [pc, #280]	; (40306c <udd_ctrl_in_sent+0x188>)
  402f54:	6b1a      	ldr	r2, [r3, #48]	; 0x30
  402f56:	9202      	str	r2, [sp, #8]
  402f58:	9a02      	ldr	r2, [sp, #8]
  402f5a:	f042 024f 	orr.w	r2, r2, #79	; 0x4f
  402f5e:	9202      	str	r2, [sp, #8]
  402f60:	9a02      	ldr	r2, [sp, #8]
  402f62:	f022 0201 	bic.w	r2, r2, #1
  402f66:	9202      	str	r2, [sp, #8]
  402f68:	9a02      	ldr	r2, [sp, #8]
  402f6a:	631a      	str	r2, [r3, #48]	; 0x30
  402f6c:	2300      	movs	r3, #0
  402f6e:	e002      	b.n	402f76 <udd_ctrl_in_sent+0x92>
  402f70:	bf00      	nop
  402f72:	9b03      	ldr	r3, [sp, #12]
  402f74:	3301      	adds	r3, #1
  402f76:	9303      	str	r3, [sp, #12]
  402f78:	9b03      	ldr	r3, [sp, #12]
  402f7a:	2b0e      	cmp	r3, #14
  402f7c:	d9f8      	bls.n	402f70 <udd_ctrl_in_sent+0x8c>
  402f7e:	e071      	b.n	403064 <udd_ctrl_in_sent+0x180>
  402f80:	696b      	ldr	r3, [r5, #20]
  402f82:	b153      	cbz	r3, 402f9a <udd_ctrl_in_sent+0xb6>
  402f84:	4798      	blx	r3
  402f86:	b140      	cbz	r0, 402f9a <udd_ctrl_in_sent+0xb6>
  402f88:	8034      	strh	r4, [r6, #0]
  402f8a:	89ac      	ldrh	r4, [r5, #12]
  402f8c:	2c3f      	cmp	r4, #63	; 0x3f
  402f8e:	d904      	bls.n	402f9a <udd_ctrl_in_sent+0xb6>
  402f90:	4b3c      	ldr	r3, [pc, #240]	; (403084 <udd_ctrl_in_sent+0x1a0>)
  402f92:	2200      	movs	r2, #0
  402f94:	701a      	strb	r2, [r3, #0]
  402f96:	2440      	movs	r4, #64	; 0x40
  402f98:	e002      	b.n	402fa0 <udd_ctrl_in_sent+0xbc>
  402f9a:	4b3a      	ldr	r3, [pc, #232]	; (403084 <udd_ctrl_in_sent+0x1a0>)
  402f9c:	2201      	movs	r2, #1
  402f9e:	701a      	strb	r2, [r3, #0]
  402fa0:	4b36      	ldr	r3, [pc, #216]	; (40307c <udd_ctrl_in_sent+0x198>)
  402fa2:	4d32      	ldr	r5, [pc, #200]	; (40306c <udd_ctrl_in_sent+0x188>)
  402fa4:	689f      	ldr	r7, [r3, #8]
  402fa6:	4b34      	ldr	r3, [pc, #208]	; (403078 <udd_ctrl_in_sent+0x194>)
  402fa8:	881e      	ldrh	r6, [r3, #0]
  402faa:	4b37      	ldr	r3, [pc, #220]	; (403088 <udd_ctrl_in_sent+0x1a4>)
  402fac:	4798      	blx	r3
  402fae:	6b2b      	ldr	r3, [r5, #48]	; 0x30
  402fb0:	4686      	mov	lr, r0
  402fb2:	079b      	lsls	r3, r3, #30
  402fb4:	d402      	bmi.n	402fbc <udd_ctrl_in_sent+0xd8>
  402fb6:	19b9      	adds	r1, r7, r6
  402fb8:	460b      	mov	r3, r1
  402fba:	e01d      	b.n	402ff8 <udd_ctrl_in_sent+0x114>
  402fbc:	4b33      	ldr	r3, [pc, #204]	; (40308c <udd_ctrl_in_sent+0x1a8>)
  402fbe:	4798      	blx	r3
  402fc0:	4b29      	ldr	r3, [pc, #164]	; (403068 <udd_ctrl_in_sent+0x184>)
  402fc2:	2204      	movs	r2, #4
  402fc4:	701a      	strb	r2, [r3, #0]
  402fc6:	6b2b      	ldr	r3, [r5, #48]	; 0x30
  402fc8:	9304      	str	r3, [sp, #16]
  402fca:	9b04      	ldr	r3, [sp, #16]
  402fcc:	f043 034f 	orr.w	r3, r3, #79	; 0x4f
  402fd0:	9304      	str	r3, [sp, #16]
  402fd2:	9b04      	ldr	r3, [sp, #16]
  402fd4:	f023 0301 	bic.w	r3, r3, #1
  402fd8:	9304      	str	r3, [sp, #16]
  402fda:	9b04      	ldr	r3, [sp, #16]
  402fdc:	632b      	str	r3, [r5, #48]	; 0x30
  402fde:	2300      	movs	r3, #0
  402fe0:	e002      	b.n	402fe8 <udd_ctrl_in_sent+0x104>
  402fe2:	bf00      	nop
  402fe4:	9b05      	ldr	r3, [sp, #20]
  402fe6:	3301      	adds	r3, #1
  402fe8:	9305      	str	r3, [sp, #20]
  402fea:	9b05      	ldr	r3, [sp, #20]
  402fec:	2b0e      	cmp	r3, #14
  402fee:	d9f8      	bls.n	402fe2 <udd_ctrl_in_sent+0xfe>
  402ff0:	e038      	b.n	403064 <udd_ctrl_in_sent+0x180>
  402ff2:	f813 2b01 	ldrb.w	r2, [r3], #1
  402ff6:	652a      	str	r2, [r5, #80]	; 0x50
  402ff8:	1a5a      	subs	r2, r3, r1
  402ffa:	b2d2      	uxtb	r2, r2
  402ffc:	42a2      	cmp	r2, r4
  402ffe:	4a1b      	ldr	r2, [pc, #108]	; (40306c <udd_ctrl_in_sent+0x188>)
  403000:	d3f7      	bcc.n	402ff2 <udd_ctrl_in_sent+0x10e>
  403002:	4b1d      	ldr	r3, [pc, #116]	; (403078 <udd_ctrl_in_sent+0x194>)
  403004:	19a4      	adds	r4, r4, r6
  403006:	801c      	strh	r4, [r3, #0]
  403008:	6b13      	ldr	r3, [r2, #48]	; 0x30
  40300a:	9306      	str	r3, [sp, #24]
  40300c:	9b06      	ldr	r3, [sp, #24]
  40300e:	f043 034f 	orr.w	r3, r3, #79	; 0x4f
  403012:	9306      	str	r3, [sp, #24]
  403014:	9b06      	ldr	r3, [sp, #24]
  403016:	f043 0310 	orr.w	r3, r3, #16
  40301a:	9306      	str	r3, [sp, #24]
  40301c:	9b06      	ldr	r3, [sp, #24]
  40301e:	6313      	str	r3, [r2, #48]	; 0x30
  403020:	2300      	movs	r3, #0
  403022:	e002      	b.n	40302a <udd_ctrl_in_sent+0x146>
  403024:	bf00      	nop
  403026:	9b07      	ldr	r3, [sp, #28]
  403028:	3301      	adds	r3, #1
  40302a:	9307      	str	r3, [sp, #28]
  40302c:	9b07      	ldr	r3, [sp, #28]
  40302e:	2b0e      	cmp	r3, #14
  403030:	d9f8      	bls.n	403024 <udd_ctrl_in_sent+0x140>
  403032:	4b0e      	ldr	r3, [pc, #56]	; (40306c <udd_ctrl_in_sent+0x188>)
  403034:	6b1a      	ldr	r2, [r3, #48]	; 0x30
  403036:	9208      	str	r2, [sp, #32]
  403038:	9a08      	ldr	r2, [sp, #32]
  40303a:	f042 024f 	orr.w	r2, r2, #79	; 0x4f
  40303e:	9208      	str	r2, [sp, #32]
  403040:	9a08      	ldr	r2, [sp, #32]
  403042:	f022 0201 	bic.w	r2, r2, #1
  403046:	9208      	str	r2, [sp, #32]
  403048:	9a08      	ldr	r2, [sp, #32]
  40304a:	631a      	str	r2, [r3, #48]	; 0x30
  40304c:	2300      	movs	r3, #0
  40304e:	e002      	b.n	403056 <udd_ctrl_in_sent+0x172>
  403050:	bf00      	nop
  403052:	9b09      	ldr	r3, [sp, #36]	; 0x24
  403054:	3301      	adds	r3, #1
  403056:	9309      	str	r3, [sp, #36]	; 0x24
  403058:	9b09      	ldr	r3, [sp, #36]	; 0x24
  40305a:	2b0e      	cmp	r3, #14
  40305c:	d9f8      	bls.n	403050 <udd_ctrl_in_sent+0x16c>
  40305e:	4670      	mov	r0, lr
  403060:	4b0a      	ldr	r3, [pc, #40]	; (40308c <udd_ctrl_in_sent+0x1a8>)
  403062:	4798      	blx	r3
  403064:	b00b      	add	sp, #44	; 0x2c
  403066:	bdf0      	pop	{r4, r5, r6, r7, pc}
  403068:	20001000 	.word	0x20001000
  40306c:	40034000 	.word	0x40034000
  403070:	00402c95 	.word	0x00402c95
  403074:	00402bf9 	.word	0x00402bf9
  403078:	20000ffe 	.word	0x20000ffe
  40307c:	2000172c 	.word	0x2000172c
  403080:	20000fbc 	.word	0x20000fbc
  403084:	20000fbe 	.word	0x20000fbe
  403088:	00402be5 	.word	0x00402be5
  40308c:	00402e8d 	.word	0x00402e8d

00403090 <udd_ep_finish_job>:
  403090:	b538      	push	{r3, r4, r5, lr}
  403092:	7c44      	ldrb	r4, [r0, #17]
  403094:	4603      	mov	r3, r0
  403096:	f004 0010 	and.w	r0, r4, #16
  40309a:	b2c0      	uxtb	r0, r0
  40309c:	b198      	cbz	r0, 4030c6 <udd_ep_finish_job+0x36>
  40309e:	f36f 1404 	bfc	r4, #4, #1
  4030a2:	745c      	strb	r4, [r3, #17]
  4030a4:	681c      	ldr	r4, [r3, #0]
  4030a6:	b174      	cbz	r4, 4030c6 <udd_ep_finish_job+0x36>
  4030a8:	4807      	ldr	r0, [pc, #28]	; (4030c8 <udd_ep_finish_job+0x38>)
  4030aa:	f102 050c 	add.w	r5, r2, #12
  4030ae:	f850 0025 	ldr.w	r0, [r0, r5, lsl #2]
  4030b2:	f010 0f80 	tst.w	r0, #128	; 0x80
  4030b6:	bf18      	it	ne
  4030b8:	f042 0280 	orrne.w	r2, r2, #128	; 0x80
  4030bc:	3901      	subs	r1, #1
  4030be:	4248      	negs	r0, r1
  4030c0:	4148      	adcs	r0, r1
  4030c2:	6899      	ldr	r1, [r3, #8]
  4030c4:	47a0      	blx	r4
  4030c6:	bd38      	pop	{r3, r4, r5, pc}
  4030c8:	40034000 	.word	0x40034000

004030cc <UDP_Handler>:
  4030cc:	e92d 47f0 	stmdb	sp!, {r4, r5, r6, r7, r8, r9, sl, lr}
  4030d0:	2022      	movs	r0, #34	; 0x22
  4030d2:	4b8d      	ldr	r3, [pc, #564]	; (403308 <UDP_Handler+0x23c>)
  4030d4:	b0a2      	sub	sp, #136	; 0x88
  4030d6:	4798      	blx	r3
  4030d8:	4b8c      	ldr	r3, [pc, #560]	; (40330c <UDP_Handler+0x240>)
  4030da:	699a      	ldr	r2, [r3, #24]
  4030dc:	f412 6f00 	tst.w	r2, #2048	; 0x800
  4030e0:	461a      	mov	r2, r3
  4030e2:	d008      	beq.n	4030f6 <UDP_Handler+0x2a>
  4030e4:	69d9      	ldr	r1, [r3, #28]
  4030e6:	0508      	lsls	r0, r1, #20
  4030e8:	d505      	bpl.n	4030f6 <UDP_Handler+0x2a>
  4030ea:	f44f 6200 	mov.w	r2, #2048	; 0x800
  4030ee:	621a      	str	r2, [r3, #32]
  4030f0:	4b87      	ldr	r3, [pc, #540]	; (403310 <UDP_Handler+0x244>)
  4030f2:	4798      	blx	r3
  4030f4:	e3ae      	b.n	403854 <UDP_Handler+0x788>
  4030f6:	69d2      	ldr	r2, [r2, #28]
  4030f8:	4b84      	ldr	r3, [pc, #528]	; (40330c <UDP_Handler+0x240>)
  4030fa:	07d1      	lsls	r1, r2, #31
  4030fc:	f140 8143 	bpl.w	403386 <UDP_Handler+0x2ba>
  403100:	6b1a      	ldr	r2, [r3, #48]	; 0x30
  403102:	0752      	lsls	r2, r2, #29
  403104:	f140 80a1 	bpl.w	40324a <UDP_Handler+0x17e>
  403108:	4b82      	ldr	r3, [pc, #520]	; (403314 <UDP_Handler+0x248>)
  40310a:	781b      	ldrb	r3, [r3, #0]
  40310c:	b11b      	cbz	r3, 403116 <UDP_Handler+0x4a>
  40310e:	4b82      	ldr	r3, [pc, #520]	; (403318 <UDP_Handler+0x24c>)
  403110:	4798      	blx	r3
  403112:	4b82      	ldr	r3, [pc, #520]	; (40331c <UDP_Handler+0x250>)
  403114:	4798      	blx	r3
  403116:	4a7d      	ldr	r2, [pc, #500]	; (40330c <UDP_Handler+0x240>)
  403118:	6b13      	ldr	r3, [r2, #48]	; 0x30
  40311a:	f3c3 430a 	ubfx	r3, r3, #16, #11
  40311e:	2b08      	cmp	r3, #8
  403120:	d016      	beq.n	403150 <UDP_Handler+0x84>
  403122:	6b13      	ldr	r3, [r2, #48]	; 0x30
  403124:	9302      	str	r3, [sp, #8]
  403126:	9b02      	ldr	r3, [sp, #8]
  403128:	f043 034f 	orr.w	r3, r3, #79	; 0x4f
  40312c:	9302      	str	r3, [sp, #8]
  40312e:	9b02      	ldr	r3, [sp, #8]
  403130:	f023 0304 	bic.w	r3, r3, #4
  403134:	9302      	str	r3, [sp, #8]
  403136:	9b02      	ldr	r3, [sp, #8]
  403138:	6313      	str	r3, [r2, #48]	; 0x30
  40313a:	2300      	movs	r3, #0
  40313c:	e002      	b.n	403144 <UDP_Handler+0x78>
  40313e:	bf00      	nop
  403140:	9b03      	ldr	r3, [sp, #12]
  403142:	3301      	adds	r3, #1
  403144:	9303      	str	r3, [sp, #12]
  403146:	9b03      	ldr	r3, [sp, #12]
  403148:	2b0e      	cmp	r3, #14
  40314a:	d9f8      	bls.n	40313e <UDP_Handler+0x72>
  40314c:	4b74      	ldr	r3, [pc, #464]	; (403320 <UDP_Handler+0x254>)
  40314e:	e059      	b.n	403204 <UDP_Handler+0x138>
  403150:	4974      	ldr	r1, [pc, #464]	; (403324 <UDP_Handler+0x258>)
  403152:	2300      	movs	r3, #0
  403154:	6d10      	ldr	r0, [r2, #80]	; 0x50
  403156:	4c6d      	ldr	r4, [pc, #436]	; (40330c <UDP_Handler+0x240>)
  403158:	5458      	strb	r0, [r3, r1]
  40315a:	3301      	adds	r3, #1
  40315c:	2b08      	cmp	r3, #8
  40315e:	d1f9      	bne.n	403154 <UDP_Handler+0x88>
  403160:	4b71      	ldr	r3, [pc, #452]	; (403328 <UDP_Handler+0x25c>)
  403162:	4798      	blx	r3
  403164:	b9a8      	cbnz	r0, 403192 <UDP_Handler+0xc6>
  403166:	6b23      	ldr	r3, [r4, #48]	; 0x30
  403168:	9304      	str	r3, [sp, #16]
  40316a:	9b04      	ldr	r3, [sp, #16]
  40316c:	f043 034f 	orr.w	r3, r3, #79	; 0x4f
  403170:	9304      	str	r3, [sp, #16]
  403172:	9b04      	ldr	r3, [sp, #16]
  403174:	f023 0304 	bic.w	r3, r3, #4
  403178:	9304      	str	r3, [sp, #16]
  40317a:	9b04      	ldr	r3, [sp, #16]
  40317c:	6323      	str	r3, [r4, #48]	; 0x30
  40317e:	9005      	str	r0, [sp, #20]
  403180:	e003      	b.n	40318a <UDP_Handler+0xbe>
  403182:	bf00      	nop
  403184:	9b05      	ldr	r3, [sp, #20]
  403186:	3301      	adds	r3, #1
  403188:	9305      	str	r3, [sp, #20]
  40318a:	9b05      	ldr	r3, [sp, #20]
  40318c:	2b0e      	cmp	r3, #14
  40318e:	d9f8      	bls.n	403182 <UDP_Handler+0xb6>
  403190:	e7dc      	b.n	40314c <UDP_Handler+0x80>
  403192:	4b64      	ldr	r3, [pc, #400]	; (403324 <UDP_Handler+0x258>)
  403194:	f993 3000 	ldrsb.w	r3, [r3]
  403198:	2b00      	cmp	r3, #0
  40319a:	6b23      	ldr	r3, [r4, #48]	; 0x30
  40319c:	da34      	bge.n	403208 <UDP_Handler+0x13c>
  40319e:	9306      	str	r3, [sp, #24]
  4031a0:	9b06      	ldr	r3, [sp, #24]
  4031a2:	f043 034f 	orr.w	r3, r3, #79	; 0x4f
  4031a6:	9306      	str	r3, [sp, #24]
  4031a8:	9b06      	ldr	r3, [sp, #24]
  4031aa:	f043 0380 	orr.w	r3, r3, #128	; 0x80
  4031ae:	9306      	str	r3, [sp, #24]
  4031b0:	9b06      	ldr	r3, [sp, #24]
  4031b2:	6323      	str	r3, [r4, #48]	; 0x30
  4031b4:	2300      	movs	r3, #0
  4031b6:	e002      	b.n	4031be <UDP_Handler+0xf2>
  4031b8:	bf00      	nop
  4031ba:	9b07      	ldr	r3, [sp, #28]
  4031bc:	3301      	adds	r3, #1
  4031be:	9307      	str	r3, [sp, #28]
  4031c0:	9b07      	ldr	r3, [sp, #28]
  4031c2:	2b0e      	cmp	r3, #14
  4031c4:	d9f8      	bls.n	4031b8 <UDP_Handler+0xec>
  4031c6:	4b51      	ldr	r3, [pc, #324]	; (40330c <UDP_Handler+0x240>)
  4031c8:	6b1a      	ldr	r2, [r3, #48]	; 0x30
  4031ca:	9208      	str	r2, [sp, #32]
  4031cc:	9a08      	ldr	r2, [sp, #32]
  4031ce:	f042 024f 	orr.w	r2, r2, #79	; 0x4f
  4031d2:	9208      	str	r2, [sp, #32]
  4031d4:	9a08      	ldr	r2, [sp, #32]
  4031d6:	f022 0204 	bic.w	r2, r2, #4
  4031da:	9208      	str	r2, [sp, #32]
  4031dc:	9a08      	ldr	r2, [sp, #32]
  4031de:	631a      	str	r2, [r3, #48]	; 0x30
  4031e0:	2300      	movs	r3, #0
  4031e2:	e002      	b.n	4031ea <UDP_Handler+0x11e>
  4031e4:	bf00      	nop
  4031e6:	9b09      	ldr	r3, [sp, #36]	; 0x24
  4031e8:	3301      	adds	r3, #1
  4031ea:	9309      	str	r3, [sp, #36]	; 0x24
  4031ec:	9b09      	ldr	r3, [sp, #36]	; 0x24
  4031ee:	2b0e      	cmp	r3, #14
  4031f0:	d9f8      	bls.n	4031e4 <UDP_Handler+0x118>
  4031f2:	4a4e      	ldr	r2, [pc, #312]	; (40332c <UDP_Handler+0x260>)
  4031f4:	2300      	movs	r3, #0
  4031f6:	8013      	strh	r3, [r2, #0]
  4031f8:	4a4d      	ldr	r2, [pc, #308]	; (403330 <UDP_Handler+0x264>)
  4031fa:	8013      	strh	r3, [r2, #0]
  4031fc:	4b45      	ldr	r3, [pc, #276]	; (403314 <UDP_Handler+0x248>)
  4031fe:	2202      	movs	r2, #2
  403200:	701a      	strb	r2, [r3, #0]
  403202:	4b4c      	ldr	r3, [pc, #304]	; (403334 <UDP_Handler+0x268>)
  403204:	4798      	blx	r3
  403206:	e325      	b.n	403854 <UDP_Handler+0x788>
  403208:	930a      	str	r3, [sp, #40]	; 0x28
  40320a:	9b0a      	ldr	r3, [sp, #40]	; 0x28
  40320c:	f043 034f 	orr.w	r3, r3, #79	; 0x4f
  403210:	930a      	str	r3, [sp, #40]	; 0x28
  403212:	9b0a      	ldr	r3, [sp, #40]	; 0x28
  403214:	f023 0304 	bic.w	r3, r3, #4
  403218:	930a      	str	r3, [sp, #40]	; 0x28
  40321a:	9b0a      	ldr	r3, [sp, #40]	; 0x28
  40321c:	6323      	str	r3, [r4, #48]	; 0x30
  40321e:	2300      	movs	r3, #0
  403220:	e002      	b.n	403228 <UDP_Handler+0x15c>
  403222:	bf00      	nop
  403224:	9b0b      	ldr	r3, [sp, #44]	; 0x2c
  403226:	3301      	adds	r3, #1
  403228:	930b      	str	r3, [sp, #44]	; 0x2c
  40322a:	9b0b      	ldr	r3, [sp, #44]	; 0x2c
  40322c:	2b0e      	cmp	r3, #14
  40322e:	d9f8      	bls.n	403222 <UDP_Handler+0x156>
  403230:	4b3c      	ldr	r3, [pc, #240]	; (403324 <UDP_Handler+0x258>)
  403232:	88db      	ldrh	r3, [r3, #6]
  403234:	b903      	cbnz	r3, 403238 <UDP_Handler+0x16c>
  403236:	e054      	b.n	4032e2 <UDP_Handler+0x216>
  403238:	4a3c      	ldr	r2, [pc, #240]	; (40332c <UDP_Handler+0x260>)
  40323a:	2300      	movs	r3, #0
  40323c:	8013      	strh	r3, [r2, #0]
  40323e:	4a3c      	ldr	r2, [pc, #240]	; (403330 <UDP_Handler+0x264>)
  403240:	8013      	strh	r3, [r2, #0]
  403242:	4b34      	ldr	r3, [pc, #208]	; (403314 <UDP_Handler+0x248>)
  403244:	2201      	movs	r2, #1
  403246:	701a      	strb	r2, [r3, #0]
  403248:	e304      	b.n	403854 <UDP_Handler+0x788>
  40324a:	6b1a      	ldr	r2, [r3, #48]	; 0x30
  40324c:	07d0      	lsls	r0, r2, #31
  40324e:	d500      	bpl.n	403252 <UDP_Handler+0x186>
  403250:	e7d7      	b.n	403202 <UDP_Handler+0x136>
  403252:	6b1a      	ldr	r2, [r3, #48]	; 0x30
  403254:	f012 0202 	ands.w	r2, r2, #2
  403258:	d07c      	beq.n	403354 <UDP_Handler+0x288>
  40325a:	4a2e      	ldr	r2, [pc, #184]	; (403314 <UDP_Handler+0x248>)
  40325c:	7812      	ldrb	r2, [r2, #0]
  40325e:	2a01      	cmp	r2, #1
  403260:	d00e      	beq.n	403280 <UDP_Handler+0x1b4>
  403262:	2a02      	cmp	r2, #2
  403264:	d001      	beq.n	40326a <UDP_Handler+0x19e>
  403266:	2a04      	cmp	r2, #4
  403268:	d101      	bne.n	40326e <UDP_Handler+0x1a2>
  40326a:	4b2b      	ldr	r3, [pc, #172]	; (403318 <UDP_Handler+0x24c>)
  40326c:	e000      	b.n	403270 <UDP_Handler+0x1a4>
  40326e:	4b2c      	ldr	r3, [pc, #176]	; (403320 <UDP_Handler+0x254>)
  403270:	4798      	blx	r3
  403272:	4b26      	ldr	r3, [pc, #152]	; (40330c <UDP_Handler+0x240>)
  403274:	6b1a      	ldr	r2, [r3, #48]	; 0x30
  403276:	f022 0202 	bic.w	r2, r2, #2
  40327a:	631a      	str	r2, [r3, #48]	; 0x30
  40327c:	4b27      	ldr	r3, [pc, #156]	; (40331c <UDP_Handler+0x250>)
  40327e:	e7c1      	b.n	403204 <UDP_Handler+0x138>
  403280:	4a2b      	ldr	r2, [pc, #172]	; (403330 <UDP_Handler+0x264>)
  403282:	4828      	ldr	r0, [pc, #160]	; (403324 <UDP_Handler+0x258>)
  403284:	6b1b      	ldr	r3, [r3, #48]	; 0x30
  403286:	8812      	ldrh	r2, [r2, #0]
  403288:	8981      	ldrh	r1, [r0, #12]
  40328a:	f3c3 430a 	ubfx	r3, r3, #16, #11
  40328e:	18d4      	adds	r4, r2, r3
  403290:	6880      	ldr	r0, [r0, #8]
  403292:	42a1      	cmp	r1, r4
  403294:	bfb8      	it	lt
  403296:	ebc2 0301 	rsblt	r3, r2, r1
  40329a:	1880      	adds	r0, r0, r2
  40329c:	b29b      	uxth	r3, r3
  40329e:	4601      	mov	r1, r0
  4032a0:	4d1a      	ldr	r5, [pc, #104]	; (40330c <UDP_Handler+0x240>)
  4032a2:	e002      	b.n	4032aa <UDP_Handler+0x1de>
  4032a4:	6d2c      	ldr	r4, [r5, #80]	; 0x50
  4032a6:	f801 4b01 	strb.w	r4, [r1], #1
  4032aa:	1a0c      	subs	r4, r1, r0
  4032ac:	b2e4      	uxtb	r4, r4
  4032ae:	429c      	cmp	r4, r3
  4032b0:	d3f8      	bcc.n	4032a4 <UDP_Handler+0x1d8>
  4032b2:	189a      	adds	r2, r3, r2
  4032b4:	4d1e      	ldr	r5, [pc, #120]	; (403330 <UDP_Handler+0x264>)
  4032b6:	b292      	uxth	r2, r2
  4032b8:	2b40      	cmp	r3, #64	; 0x40
  4032ba:	802a      	strh	r2, [r5, #0]
  4032bc:	4b19      	ldr	r3, [pc, #100]	; (403324 <UDP_Handler+0x258>)
  4032be:	d105      	bne.n	4032cc <UDP_Handler+0x200>
  4032c0:	4e1a      	ldr	r6, [pc, #104]	; (40332c <UDP_Handler+0x260>)
  4032c2:	88d8      	ldrh	r0, [r3, #6]
  4032c4:	8831      	ldrh	r1, [r6, #0]
  4032c6:	1889      	adds	r1, r1, r2
  4032c8:	4288      	cmp	r0, r1
  4032ca:	dc0c      	bgt.n	4032e6 <UDP_Handler+0x21a>
  4032cc:	819a      	strh	r2, [r3, #12]
  4032ce:	695b      	ldr	r3, [r3, #20]
  4032d0:	4c0e      	ldr	r4, [pc, #56]	; (40330c <UDP_Handler+0x240>)
  4032d2:	b113      	cbz	r3, 4032da <UDP_Handler+0x20e>
  4032d4:	4798      	blx	r3
  4032d6:	b900      	cbnz	r0, 4032da <UDP_Handler+0x20e>
  4032d8:	e00e      	b.n	4032f8 <UDP_Handler+0x22c>
  4032da:	6b23      	ldr	r3, [r4, #48]	; 0x30
  4032dc:	f023 0302 	bic.w	r3, r3, #2
  4032e0:	6323      	str	r3, [r4, #48]	; 0x30
  4032e2:	4b15      	ldr	r3, [pc, #84]	; (403338 <UDP_Handler+0x26c>)
  4032e4:	e78e      	b.n	403204 <UDP_Handler+0x138>
  4032e6:	8999      	ldrh	r1, [r3, #12]
  4032e8:	4291      	cmp	r1, r2
  4032ea:	d12d      	bne.n	403348 <UDP_Handler+0x27c>
  4032ec:	695b      	ldr	r3, [r3, #20]
  4032ee:	4c07      	ldr	r4, [pc, #28]	; (40330c <UDP_Handler+0x240>)
  4032f0:	b903      	cbnz	r3, 4032f4 <UDP_Handler+0x228>
  4032f2:	e001      	b.n	4032f8 <UDP_Handler+0x22c>
  4032f4:	4798      	blx	r3
  4032f6:	bb08      	cbnz	r0, 40333c <UDP_Handler+0x270>
  4032f8:	4b09      	ldr	r3, [pc, #36]	; (403320 <UDP_Handler+0x254>)
  4032fa:	4798      	blx	r3
  4032fc:	6b23      	ldr	r3, [r4, #48]	; 0x30
  4032fe:	f023 0302 	bic.w	r3, r3, #2
  403302:	6323      	str	r3, [r4, #48]	; 0x30
  403304:	e2a6      	b.n	403854 <UDP_Handler+0x788>
  403306:	bf00      	nop
  403308:	00402a75 	.word	0x00402a75
  40330c:	40034000 	.word	0x40034000
  403310:	00401da5 	.word	0x00401da5
  403314:	20001000 	.word	0x20001000
  403318:	00402c95 	.word	0x00402c95
  40331c:	00402bf9 	.word	0x00402bf9
  403320:	00402c15 	.word	0x00402c15
  403324:	2000172c 	.word	0x2000172c
  403328:	00401dd9 	.word	0x00401dd9
  40332c:	20000fbc 	.word	0x20000fbc
  403330:	20000ffe 	.word	0x20000ffe
  403334:	00402ee5 	.word	0x00402ee5
  403338:	00402c55 	.word	0x00402c55
  40333c:	882a      	ldrh	r2, [r5, #0]
  40333e:	8833      	ldrh	r3, [r6, #0]
  403340:	18d3      	adds	r3, r2, r3
  403342:	8033      	strh	r3, [r6, #0]
  403344:	2300      	movs	r3, #0
  403346:	802b      	strh	r3, [r5, #0]
  403348:	4ba2      	ldr	r3, [pc, #648]	; (4035d4 <UDP_Handler+0x508>)
  40334a:	6b1a      	ldr	r2, [r3, #48]	; 0x30
  40334c:	f022 0202 	bic.w	r2, r2, #2
  403350:	631a      	str	r2, [r3, #48]	; 0x30
  403352:	e27f      	b.n	403854 <UDP_Handler+0x788>
  403354:	6b19      	ldr	r1, [r3, #48]	; 0x30
  403356:	0709      	lsls	r1, r1, #28
  403358:	d515      	bpl.n	403386 <UDP_Handler+0x2ba>
  40335a:	6b19      	ldr	r1, [r3, #48]	; 0x30
  40335c:	9100      	str	r1, [sp, #0]
  40335e:	9900      	ldr	r1, [sp, #0]
  403360:	f041 014f 	orr.w	r1, r1, #79	; 0x4f
  403364:	9100      	str	r1, [sp, #0]
  403366:	9900      	ldr	r1, [sp, #0]
  403368:	f021 0108 	bic.w	r1, r1, #8
  40336c:	9100      	str	r1, [sp, #0]
  40336e:	9900      	ldr	r1, [sp, #0]
  403370:	6319      	str	r1, [r3, #48]	; 0x30
  403372:	9201      	str	r2, [sp, #4]
  403374:	e003      	b.n	40337e <UDP_Handler+0x2b2>
  403376:	bf00      	nop
  403378:	9b01      	ldr	r3, [sp, #4]
  40337a:	3301      	adds	r3, #1
  40337c:	9301      	str	r3, [sp, #4]
  40337e:	9b01      	ldr	r3, [sp, #4]
  403380:	2b0e      	cmp	r3, #14
  403382:	d9f8      	bls.n	403376 <UDP_Handler+0x2aa>
  403384:	e266      	b.n	403854 <UDP_Handler+0x788>
  403386:	4993      	ldr	r1, [pc, #588]	; (4035d4 <UDP_Handler+0x508>)
  403388:	f8df 925c 	ldr.w	r9, [pc, #604]	; 4035e8 <UDP_Handler+0x51c>
  40338c:	2501      	movs	r5, #1
  40338e:	f04f 0c01 	mov.w	ip, #1
  403392:	f04f 0a14 	mov.w	sl, #20
  403396:	fa0c f805 	lsl.w	r8, ip, r5
  40339a:	698b      	ldr	r3, [r1, #24]
  40339c:	b2ee      	uxtb	r6, r5
  40339e:	ea18 0f03 	tst.w	r8, r3
  4033a2:	4a8c      	ldr	r2, [pc, #560]	; (4035d4 <UDP_Handler+0x508>)
  4033a4:	f000 81b7 	beq.w	403716 <UDP_Handler+0x64a>
  4033a8:	f105 030c 	add.w	r3, r5, #12
  4033ac:	f851 0023 	ldr.w	r0, [r1, r3, lsl #2]
  4033b0:	1e6c      	subs	r4, r5, #1
  4033b2:	f010 0742 	ands.w	r7, r0, #66	; 0x42
  4033b6:	fb0a 9404 	mla	r4, sl, r4, r9
  4033ba:	d043      	beq.n	403444 <UDP_Handler+0x378>
  4033bc:	f8b4 a010 	ldrh.w	sl, [r4, #16]
  4033c0:	f852 7023 	ldr.w	r7, [r2, r3, lsl #2]
  4033c4:	f3ca 0a09 	ubfx	sl, sl, #0, #10
  4033c8:	f3c7 470a 	ubfx	r7, r7, #16, #11
  4033cc:	f8d4 e008 	ldr.w	lr, [r4, #8]
  4033d0:	68e1      	ldr	r1, [r4, #12]
  4033d2:	fa1f fa8a 	uxth.w	sl, sl
  4033d6:	6860      	ldr	r0, [r4, #4]
  4033d8:	b1cf      	cbz	r7, 40340e <UDP_Handler+0x342>
  4033da:	ebc1 030e 	rsb	r3, r1, lr
  4033de:	429f      	cmp	r7, r3
  4033e0:	bf38      	it	cc
  4033e2:	463b      	movcc	r3, r7
  4033e4:	4408      	add	r0, r1
  4033e6:	4419      	add	r1, r3
  4033e8:	bf34      	ite	cc
  4033ea:	f04f 0900 	movcc.w	r9, #0
  4033ee:	f04f 0901 	movcs.w	r9, #1
  4033f2:	60e1      	str	r1, [r4, #12]
  4033f4:	2200      	movs	r2, #0
  4033f6:	4977      	ldr	r1, [pc, #476]	; (4035d4 <UDP_Handler+0x508>)
  4033f8:	e006      	b.n	403408 <UDP_Handler+0x33c>
  4033fa:	f105 0e14 	add.w	lr, r5, #20
  4033fe:	f851 e02e 	ldr.w	lr, [r1, lr, lsl #2]
  403402:	f800 e002 	strb.w	lr, [r0, r2]
  403406:	3201      	adds	r2, #1
  403408:	429a      	cmp	r2, r3
  40340a:	d1f6      	bne.n	4033fa <UDP_Handler+0x32e>
  40340c:	e000      	b.n	403410 <UDP_Handler+0x344>
  40340e:	46b9      	mov	r9, r7
  403410:	4630      	mov	r0, r6
  403412:	4b71      	ldr	r3, [pc, #452]	; (4035d8 <UDP_Handler+0x50c>)
  403414:	4798      	blx	r3
  403416:	f1b9 0f00 	cmp.w	r9, #0
  40341a:	d102      	bne.n	403422 <UDP_Handler+0x356>
  40341c:	4557      	cmp	r7, sl
  40341e:	f080 8219 	bcs.w	403854 <UDP_Handler+0x788>
  403422:	4b6c      	ldr	r3, [pc, #432]	; (4035d4 <UDP_Handler+0x508>)
  403424:	350c      	adds	r5, #12
  403426:	f853 1025 	ldr.w	r1, [r3, r5, lsl #2]
  40342a:	f011 0120 	ands.w	r1, r1, #32
  40342e:	f040 8211 	bne.w	403854 <UDP_Handler+0x788>
  403432:	f8c3 8014 	str.w	r8, [r3, #20]
  403436:	68e3      	ldr	r3, [r4, #12]
  403438:	4620      	mov	r0, r4
  40343a:	60a3      	str	r3, [r4, #8]
  40343c:	4632      	mov	r2, r6
  40343e:	4b67      	ldr	r3, [pc, #412]	; (4035dc <UDP_Handler+0x510>)
  403440:	4798      	blx	r3
  403442:	e207      	b.n	403854 <UDP_Handler+0x788>
  403444:	f851 0023 	ldr.w	r0, [r1, r3, lsl #2]
  403448:	f010 0001 	ands.w	r0, r0, #1
  40344c:	f000 813a 	beq.w	4036c4 <UDP_Handler+0x5f8>
  403450:	7c60      	ldrb	r0, [r4, #17]
  403452:	f3c0 0181 	ubfx	r1, r0, #2, #2
  403456:	3103      	adds	r1, #3
  403458:	f361 0083 	bfi	r0, r1, #2, #2
  40345c:	7460      	strb	r0, [r4, #17]
  40345e:	b2c0      	uxtb	r0, r0
  403460:	f000 0120 	and.w	r1, r0, #32
  403464:	b2c9      	uxtb	r1, r1
  403466:	2900      	cmp	r1, #0
  403468:	d066      	beq.n	403538 <UDP_Handler+0x46c>
  40346a:	f010 000c 	ands.w	r0, r0, #12
  40346e:	f852 1023 	ldr.w	r1, [r2, r3, lsl #2]
  403472:	d02e      	beq.n	4034d2 <UDP_Handler+0x406>
  403474:	910c      	str	r1, [sp, #48]	; 0x30
  403476:	990c      	ldr	r1, [sp, #48]	; 0x30
  403478:	f041 014f 	orr.w	r1, r1, #79	; 0x4f
  40347c:	910c      	str	r1, [sp, #48]	; 0x30
  40347e:	990c      	ldr	r1, [sp, #48]	; 0x30
  403480:	f041 0110 	orr.w	r1, r1, #16
  403484:	910c      	str	r1, [sp, #48]	; 0x30
  403486:	990c      	ldr	r1, [sp, #48]	; 0x30
  403488:	f842 1023 	str.w	r1, [r2, r3, lsl #2]
  40348c:	970d      	str	r7, [sp, #52]	; 0x34
  40348e:	e003      	b.n	403498 <UDP_Handler+0x3cc>
  403490:	bf00      	nop
  403492:	9b0d      	ldr	r3, [sp, #52]	; 0x34
  403494:	3301      	adds	r3, #1
  403496:	930d      	str	r3, [sp, #52]	; 0x34
  403498:	9b0d      	ldr	r3, [sp, #52]	; 0x34
  40349a:	2b0e      	cmp	r3, #14
  40349c:	d9f8      	bls.n	403490 <UDP_Handler+0x3c4>
  40349e:	4b4d      	ldr	r3, [pc, #308]	; (4035d4 <UDP_Handler+0x508>)
  4034a0:	350c      	adds	r5, #12
  4034a2:	f853 2025 	ldr.w	r2, [r3, r5, lsl #2]
  4034a6:	920e      	str	r2, [sp, #56]	; 0x38
  4034a8:	9a0e      	ldr	r2, [sp, #56]	; 0x38
  4034aa:	f042 024f 	orr.w	r2, r2, #79	; 0x4f
  4034ae:	920e      	str	r2, [sp, #56]	; 0x38
  4034b0:	9a0e      	ldr	r2, [sp, #56]	; 0x38
  4034b2:	f022 0201 	bic.w	r2, r2, #1
  4034b6:	920e      	str	r2, [sp, #56]	; 0x38
  4034b8:	9a0e      	ldr	r2, [sp, #56]	; 0x38
  4034ba:	f843 2025 	str.w	r2, [r3, r5, lsl #2]
  4034be:	2300      	movs	r3, #0
  4034c0:	e002      	b.n	4034c8 <UDP_Handler+0x3fc>
  4034c2:	bf00      	nop
  4034c4:	9b0f      	ldr	r3, [sp, #60]	; 0x3c
  4034c6:	3301      	adds	r3, #1
  4034c8:	930f      	str	r3, [sp, #60]	; 0x3c
  4034ca:	9b0f      	ldr	r3, [sp, #60]	; 0x3c
  4034cc:	2b0e      	cmp	r3, #14
  4034ce:	d9f8      	bls.n	4034c2 <UDP_Handler+0x3f6>
  4034d0:	e1c0      	b.n	403854 <UDP_Handler+0x788>
  4034d2:	9110      	str	r1, [sp, #64]	; 0x40
  4034d4:	9910      	ldr	r1, [sp, #64]	; 0x40
  4034d6:	f041 014f 	orr.w	r1, r1, #79	; 0x4f
  4034da:	9110      	str	r1, [sp, #64]	; 0x40
  4034dc:	9910      	ldr	r1, [sp, #64]	; 0x40
  4034de:	f021 0101 	bic.w	r1, r1, #1
  4034e2:	9110      	str	r1, [sp, #64]	; 0x40
  4034e4:	9910      	ldr	r1, [sp, #64]	; 0x40
  4034e6:	f842 1023 	str.w	r1, [r2, r3, lsl #2]
  4034ea:	9011      	str	r0, [sp, #68]	; 0x44
  4034ec:	e003      	b.n	4034f6 <UDP_Handler+0x42a>
  4034ee:	bf00      	nop
  4034f0:	9b11      	ldr	r3, [sp, #68]	; 0x44
  4034f2:	3301      	adds	r3, #1
  4034f4:	9311      	str	r3, [sp, #68]	; 0x44
  4034f6:	9b11      	ldr	r3, [sp, #68]	; 0x44
  4034f8:	2b0e      	cmp	r3, #14
  4034fa:	d9f8      	bls.n	4034ee <UDP_Handler+0x422>
  4034fc:	4b35      	ldr	r3, [pc, #212]	; (4035d4 <UDP_Handler+0x508>)
  4034fe:	350c      	adds	r5, #12
  403500:	f853 2025 	ldr.w	r2, [r3, r5, lsl #2]
  403504:	9212      	str	r2, [sp, #72]	; 0x48
  403506:	9a12      	ldr	r2, [sp, #72]	; 0x48
  403508:	f042 024f 	orr.w	r2, r2, #79	; 0x4f
  40350c:	9212      	str	r2, [sp, #72]	; 0x48
  40350e:	9a12      	ldr	r2, [sp, #72]	; 0x48
  403510:	f042 0220 	orr.w	r2, r2, #32
  403514:	9212      	str	r2, [sp, #72]	; 0x48
  403516:	9a12      	ldr	r2, [sp, #72]	; 0x48
  403518:	f843 2025 	str.w	r2, [r3, r5, lsl #2]
  40351c:	2300      	movs	r3, #0
  40351e:	e002      	b.n	403526 <UDP_Handler+0x45a>
  403520:	bf00      	nop
  403522:	9b13      	ldr	r3, [sp, #76]	; 0x4c
  403524:	3301      	adds	r3, #1
  403526:	9313      	str	r3, [sp, #76]	; 0x4c
  403528:	9b13      	ldr	r3, [sp, #76]	; 0x4c
  40352a:	2b0e      	cmp	r3, #14
  40352c:	d9f8      	bls.n	403520 <UDP_Handler+0x454>
  40352e:	7c63      	ldrb	r3, [r4, #17]
  403530:	f36f 1345 	bfc	r3, #5, #1
  403534:	7463      	strb	r3, [r4, #17]
  403536:	e18d      	b.n	403854 <UDP_Handler+0x788>
  403538:	f000 0380 	and.w	r3, r0, #128	; 0x80
  40353c:	b2db      	uxtb	r3, r3
  40353e:	b143      	cbz	r3, 403552 <UDP_Handler+0x486>
  403540:	68e3      	ldr	r3, [r4, #12]
  403542:	f361 10c7 	bfi	r0, r1, #7, #1
  403546:	7460      	strb	r0, [r4, #17]
  403548:	60a3      	str	r3, [r4, #8]
  40354a:	4620      	mov	r0, r4
  40354c:	4632      	mov	r2, r6
  40354e:	4b23      	ldr	r3, [pc, #140]	; (4035dc <UDP_Handler+0x510>)
  403550:	4798      	blx	r3
  403552:	68e2      	ldr	r2, [r4, #12]
  403554:	68a3      	ldr	r3, [r4, #8]
  403556:	429a      	cmp	r2, r3
  403558:	d323      	bcc.n	4035a2 <UDP_Handler+0x4d6>
  40355a:	7c63      	ldrb	r3, [r4, #17]
  40355c:	f013 074c 	ands.w	r7, r3, #76	; 0x4c
  403560:	d11f      	bne.n	4035a2 <UDP_Handler+0x4d6>
  403562:	4c1c      	ldr	r4, [pc, #112]	; (4035d4 <UDP_Handler+0x508>)
  403564:	4b1e      	ldr	r3, [pc, #120]	; (4035e0 <UDP_Handler+0x514>)
  403566:	4798      	blx	r3
  403568:	350c      	adds	r5, #12
  40356a:	4b1e      	ldr	r3, [pc, #120]	; (4035e4 <UDP_Handler+0x518>)
  40356c:	f8c4 8014 	str.w	r8, [r4, #20]
  403570:	4798      	blx	r3
  403572:	f854 3025 	ldr.w	r3, [r4, r5, lsl #2]
  403576:	9314      	str	r3, [sp, #80]	; 0x50
  403578:	9b14      	ldr	r3, [sp, #80]	; 0x50
  40357a:	f043 034f 	orr.w	r3, r3, #79	; 0x4f
  40357e:	9314      	str	r3, [sp, #80]	; 0x50
  403580:	9b14      	ldr	r3, [sp, #80]	; 0x50
  403582:	f023 0301 	bic.w	r3, r3, #1
  403586:	9314      	str	r3, [sp, #80]	; 0x50
  403588:	9b14      	ldr	r3, [sp, #80]	; 0x50
  40358a:	f844 3025 	str.w	r3, [r4, r5, lsl #2]
  40358e:	9715      	str	r7, [sp, #84]	; 0x54
  403590:	e003      	b.n	40359a <UDP_Handler+0x4ce>
  403592:	bf00      	nop
  403594:	9b15      	ldr	r3, [sp, #84]	; 0x54
  403596:	3301      	adds	r3, #1
  403598:	9315      	str	r3, [sp, #84]	; 0x54
  40359a:	9b15      	ldr	r3, [sp, #84]	; 0x54
  40359c:	2b0e      	cmp	r3, #14
  40359e:	d9f8      	bls.n	403592 <UDP_Handler+0x4c6>
  4035a0:	e158      	b.n	403854 <UDP_Handler+0x788>
  4035a2:	2e03      	cmp	r6, #3
  4035a4:	4f0b      	ldr	r7, [pc, #44]	; (4035d4 <UDP_Handler+0x508>)
  4035a6:	d070      	beq.n	40368a <UDP_Handler+0x5be>
  4035a8:	7c63      	ldrb	r3, [r4, #17]
  4035aa:	f013 0f0c 	tst.w	r3, #12
  4035ae:	d03e      	beq.n	40362e <UDP_Handler+0x562>
  4035b0:	f105 030c 	add.w	r3, r5, #12
  4035b4:	f857 2023 	ldr.w	r2, [r7, r3, lsl #2]
  4035b8:	9216      	str	r2, [sp, #88]	; 0x58
  4035ba:	9a16      	ldr	r2, [sp, #88]	; 0x58
  4035bc:	f042 024f 	orr.w	r2, r2, #79	; 0x4f
  4035c0:	9216      	str	r2, [sp, #88]	; 0x58
  4035c2:	9a16      	ldr	r2, [sp, #88]	; 0x58
  4035c4:	f042 0210 	orr.w	r2, r2, #16
  4035c8:	9216      	str	r2, [sp, #88]	; 0x58
  4035ca:	9a16      	ldr	r2, [sp, #88]	; 0x58
  4035cc:	f847 2023 	str.w	r2, [r7, r3, lsl #2]
  4035d0:	2300      	movs	r3, #0
  4035d2:	e00e      	b.n	4035f2 <UDP_Handler+0x526>
  4035d4:	40034000 	.word	0x40034000
  4035d8:	00402ca5 	.word	0x00402ca5
  4035dc:	00403091 	.word	0x00403091
  4035e0:	00402be5 	.word	0x00402be5
  4035e4:	00402e8d 	.word	0x00402e8d
  4035e8:	20000fc0 	.word	0x20000fc0
  4035ec:	bf00      	nop
  4035ee:	9b17      	ldr	r3, [sp, #92]	; 0x5c
  4035f0:	3301      	adds	r3, #1
  4035f2:	9317      	str	r3, [sp, #92]	; 0x5c
  4035f4:	9b17      	ldr	r3, [sp, #92]	; 0x5c
  4035f6:	2b0e      	cmp	r3, #14
  4035f8:	d9f8      	bls.n	4035ec <UDP_Handler+0x520>
  4035fa:	4b98      	ldr	r3, [pc, #608]	; (40385c <UDP_Handler+0x790>)
  4035fc:	350c      	adds	r5, #12
  4035fe:	f853 2025 	ldr.w	r2, [r3, r5, lsl #2]
  403602:	9218      	str	r2, [sp, #96]	; 0x60
  403604:	9a18      	ldr	r2, [sp, #96]	; 0x60
  403606:	f042 024f 	orr.w	r2, r2, #79	; 0x4f
  40360a:	9218      	str	r2, [sp, #96]	; 0x60
  40360c:	9a18      	ldr	r2, [sp, #96]	; 0x60
  40360e:	f022 0201 	bic.w	r2, r2, #1
  403612:	9218      	str	r2, [sp, #96]	; 0x60
  403614:	9a18      	ldr	r2, [sp, #96]	; 0x60
  403616:	f843 2025 	str.w	r2, [r3, r5, lsl #2]
  40361a:	2300      	movs	r3, #0
  40361c:	e002      	b.n	403624 <UDP_Handler+0x558>
  40361e:	bf00      	nop
  403620:	9b19      	ldr	r3, [sp, #100]	; 0x64
  403622:	3301      	adds	r3, #1
  403624:	9319      	str	r3, [sp, #100]	; 0x64
  403626:	9b19      	ldr	r3, [sp, #100]	; 0x64
  403628:	2b0e      	cmp	r3, #14
  40362a:	d9f8      	bls.n	40361e <UDP_Handler+0x552>
  40362c:	e028      	b.n	403680 <UDP_Handler+0x5b4>
  40362e:	2101      	movs	r1, #1
  403630:	4630      	mov	r0, r6
  403632:	4b8b      	ldr	r3, [pc, #556]	; (403860 <UDP_Handler+0x794>)
  403634:	4798      	blx	r3
  403636:	4601      	mov	r1, r0
  403638:	b948      	cbnz	r0, 40364e <UDP_Handler+0x582>
  40363a:	7c63      	ldrb	r3, [r4, #17]
  40363c:	4632      	mov	r2, r6
  40363e:	f360 13c7 	bfi	r3, r0, #7, #1
  403642:	7463      	strb	r3, [r4, #17]
  403644:	68e3      	ldr	r3, [r4, #12]
  403646:	4620      	mov	r0, r4
  403648:	60a3      	str	r3, [r4, #8]
  40364a:	4b86      	ldr	r3, [pc, #536]	; (403864 <UDP_Handler+0x798>)
  40364c:	4798      	blx	r3
  40364e:	4b83      	ldr	r3, [pc, #524]	; (40385c <UDP_Handler+0x790>)
  403650:	350c      	adds	r5, #12
  403652:	f853 2025 	ldr.w	r2, [r3, r5, lsl #2]
  403656:	921a      	str	r2, [sp, #104]	; 0x68
  403658:	9a1a      	ldr	r2, [sp, #104]	; 0x68
  40365a:	f042 024f 	orr.w	r2, r2, #79	; 0x4f
  40365e:	921a      	str	r2, [sp, #104]	; 0x68
  403660:	9a1a      	ldr	r2, [sp, #104]	; 0x68
  403662:	f022 0201 	bic.w	r2, r2, #1
  403666:	921a      	str	r2, [sp, #104]	; 0x68
  403668:	9a1a      	ldr	r2, [sp, #104]	; 0x68
  40366a:	f843 2025 	str.w	r2, [r3, r5, lsl #2]
  40366e:	2300      	movs	r3, #0
  403670:	e002      	b.n	403678 <UDP_Handler+0x5ac>
  403672:	bf00      	nop
  403674:	9b1b      	ldr	r3, [sp, #108]	; 0x6c
  403676:	3301      	adds	r3, #1
  403678:	931b      	str	r3, [sp, #108]	; 0x6c
  40367a:	9b1b      	ldr	r3, [sp, #108]	; 0x6c
  40367c:	2b0e      	cmp	r3, #14
  40367e:	d9f8      	bls.n	403672 <UDP_Handler+0x5a6>
  403680:	4630      	mov	r0, r6
  403682:	2100      	movs	r1, #0
  403684:	4b76      	ldr	r3, [pc, #472]	; (403860 <UDP_Handler+0x794>)
  403686:	4798      	blx	r3
  403688:	e0e4      	b.n	403854 <UDP_Handler+0x788>
  40368a:	4b75      	ldr	r3, [pc, #468]	; (403860 <UDP_Handler+0x794>)
  40368c:	350c      	adds	r5, #12
  40368e:	4630      	mov	r0, r6
  403690:	2101      	movs	r1, #1
  403692:	4798      	blx	r3
  403694:	f857 3025 	ldr.w	r3, [r7, r5, lsl #2]
  403698:	931c      	str	r3, [sp, #112]	; 0x70
  40369a:	9b1c      	ldr	r3, [sp, #112]	; 0x70
  40369c:	f043 034f 	orr.w	r3, r3, #79	; 0x4f
  4036a0:	931c      	str	r3, [sp, #112]	; 0x70
  4036a2:	9b1c      	ldr	r3, [sp, #112]	; 0x70
  4036a4:	f023 0301 	bic.w	r3, r3, #1
  4036a8:	931c      	str	r3, [sp, #112]	; 0x70
  4036aa:	9b1c      	ldr	r3, [sp, #112]	; 0x70
  4036ac:	f847 3025 	str.w	r3, [r7, r5, lsl #2]
  4036b0:	2300      	movs	r3, #0
  4036b2:	e002      	b.n	4036ba <UDP_Handler+0x5ee>
  4036b4:	bf00      	nop
  4036b6:	9b1d      	ldr	r3, [sp, #116]	; 0x74
  4036b8:	3301      	adds	r3, #1
  4036ba:	931d      	str	r3, [sp, #116]	; 0x74
  4036bc:	9b1d      	ldr	r3, [sp, #116]	; 0x74
  4036be:	2b0e      	cmp	r3, #14
  4036c0:	d9f8      	bls.n	4036b4 <UDP_Handler+0x5e8>
  4036c2:	e0c7      	b.n	403854 <UDP_Handler+0x788>
  4036c4:	f851 4023 	ldr.w	r4, [r1, r3, lsl #2]
  4036c8:	f014 0f08 	tst.w	r4, #8
  4036cc:	d023      	beq.n	403716 <UDP_Handler+0x64a>
  4036ce:	f852 1023 	ldr.w	r1, [r2, r3, lsl #2]
  4036d2:	911e      	str	r1, [sp, #120]	; 0x78
  4036d4:	991e      	ldr	r1, [sp, #120]	; 0x78
  4036d6:	f041 014f 	orr.w	r1, r1, #79	; 0x4f
  4036da:	911e      	str	r1, [sp, #120]	; 0x78
  4036dc:	991e      	ldr	r1, [sp, #120]	; 0x78
  4036de:	f021 0108 	bic.w	r1, r1, #8
  4036e2:	911e      	str	r1, [sp, #120]	; 0x78
  4036e4:	991e      	ldr	r1, [sp, #120]	; 0x78
  4036e6:	f842 1023 	str.w	r1, [r2, r3, lsl #2]
  4036ea:	901f      	str	r0, [sp, #124]	; 0x7c
  4036ec:	e003      	b.n	4036f6 <UDP_Handler+0x62a>
  4036ee:	bf00      	nop
  4036f0:	9b1f      	ldr	r3, [sp, #124]	; 0x7c
  4036f2:	3301      	adds	r3, #1
  4036f4:	931f      	str	r3, [sp, #124]	; 0x7c
  4036f6:	9b1f      	ldr	r3, [sp, #124]	; 0x7c
  4036f8:	2b0e      	cmp	r3, #14
  4036fa:	d9f8      	bls.n	4036ee <UDP_Handler+0x622>
  4036fc:	4b57      	ldr	r3, [pc, #348]	; (40385c <UDP_Handler+0x790>)
  4036fe:	350c      	adds	r5, #12
  403700:	f853 2025 	ldr.w	r2, [r3, r5, lsl #2]
  403704:	f402 62e0 	and.w	r2, r2, #1792	; 0x700
  403708:	f5b2 7f80 	cmp.w	r2, #256	; 0x100
  40370c:	f000 80a2 	beq.w	403854 <UDP_Handler+0x788>
  403710:	f853 3025 	ldr.w	r3, [r3, r5, lsl #2]
  403714:	e09e      	b.n	403854 <UDP_Handler+0x788>
  403716:	3501      	adds	r5, #1
  403718:	2d04      	cmp	r5, #4
  40371a:	f47f ae3c 	bne.w	403396 <UDP_Handler+0x2ca>
  40371e:	e093      	b.n	403848 <UDP_Handler+0x77c>
  403720:	69da      	ldr	r2, [r3, #28]
  403722:	0491      	lsls	r1, r2, #18
  403724:	d40d      	bmi.n	403742 <UDP_Handler+0x676>
  403726:	699b      	ldr	r3, [r3, #24]
  403728:	059a      	lsls	r2, r3, #22
  40372a:	d503      	bpl.n	403734 <UDP_Handler+0x668>
  40372c:	4b4b      	ldr	r3, [pc, #300]	; (40385c <UDP_Handler+0x790>)
  40372e:	69db      	ldr	r3, [r3, #28]
  403730:	059b      	lsls	r3, r3, #22
  403732:	d406      	bmi.n	403742 <UDP_Handler+0x676>
  403734:	4a49      	ldr	r2, [pc, #292]	; (40385c <UDP_Handler+0x790>)
  403736:	6993      	ldr	r3, [r2, #24]
  403738:	0558      	lsls	r0, r3, #21
  40373a:	d513      	bpl.n	403764 <UDP_Handler+0x698>
  40373c:	69d3      	ldr	r3, [r2, #28]
  40373e:	0559      	lsls	r1, r3, #21
  403740:	d510      	bpl.n	403764 <UDP_Handler+0x698>
  403742:	4c46      	ldr	r4, [pc, #280]	; (40385c <UDP_Handler+0x790>)
  403744:	f44f 5100 	mov.w	r1, #8192	; 0x2000
  403748:	f44f 7200 	mov.w	r2, #512	; 0x200
  40374c:	f44f 6380 	mov.w	r3, #1024	; 0x400
  403750:	6221      	str	r1, [r4, #32]
  403752:	2001      	movs	r0, #1
  403754:	6222      	str	r2, [r4, #32]
  403756:	6223      	str	r3, [r4, #32]
  403758:	6161      	str	r1, [r4, #20]
  40375a:	6162      	str	r2, [r4, #20]
  40375c:	6163      	str	r3, [r4, #20]
  40375e:	4b42      	ldr	r3, [pc, #264]	; (403868 <UDP_Handler+0x79c>)
  403760:	4798      	blx	r3
  403762:	e06a      	b.n	40383a <UDP_Handler+0x76e>
  403764:	6992      	ldr	r2, [r2, #24]
  403766:	4b3d      	ldr	r3, [pc, #244]	; (40385c <UDP_Handler+0x790>)
  403768:	05d2      	lsls	r2, r2, #23
  40376a:	d516      	bpl.n	40379a <UDP_Handler+0x6ce>
  40376c:	69da      	ldr	r2, [r3, #28]
  40376e:	05d0      	lsls	r0, r2, #23
  403770:	d513      	bpl.n	40379a <UDP_Handler+0x6ce>
  403772:	f44f 7280 	mov.w	r2, #256	; 0x100
  403776:	621a      	str	r2, [r3, #32]
  403778:	615a      	str	r2, [r3, #20]
  40377a:	f44f 5200 	mov.w	r2, #8192	; 0x2000
  40377e:	611a      	str	r2, [r3, #16]
  403780:	f44f 7200 	mov.w	r2, #512	; 0x200
  403784:	611a      	str	r2, [r3, #16]
  403786:	f44f 6280 	mov.w	r2, #1024	; 0x400
  40378a:	611a      	str	r2, [r3, #16]
  40378c:	2022      	movs	r0, #34	; 0x22
  40378e:	4b37      	ldr	r3, [pc, #220]	; (40386c <UDP_Handler+0x7a0>)
  403790:	4798      	blx	r3
  403792:	2000      	movs	r0, #0
  403794:	4b34      	ldr	r3, [pc, #208]	; (403868 <UDP_Handler+0x79c>)
  403796:	4798      	blx	r3
  403798:	e05c      	b.n	403854 <UDP_Handler+0x788>
  40379a:	4b30      	ldr	r3, [pc, #192]	; (40385c <UDP_Handler+0x790>)
  40379c:	69da      	ldr	r2, [r3, #28]
  40379e:	04d1      	lsls	r1, r2, #19
  4037a0:	d558      	bpl.n	403854 <UDP_Handler+0x788>
  4037a2:	f44f 5280 	mov.w	r2, #4096	; 0x1000
  4037a6:	4e32      	ldr	r6, [pc, #200]	; (403870 <UDP_Handler+0x7a4>)
  4037a8:	4d2e      	ldr	r5, [pc, #184]	; (403864 <UDP_Handler+0x798>)
  4037aa:	621a      	str	r2, [r3, #32]
  4037ac:	2000      	movs	r0, #0
  4037ae:	2714      	movs	r7, #20
  4037b0:	1c44      	adds	r4, r0, #1
  4037b2:	2101      	movs	r1, #1
  4037b4:	fb07 6000 	mla	r0, r7, r0, r6
  4037b8:	b2e2      	uxtb	r2, r4
  4037ba:	47a8      	blx	r5
  4037bc:	2c03      	cmp	r4, #3
  4037be:	4620      	mov	r0, r4
  4037c0:	d1f6      	bne.n	4037b0 <UDP_Handler+0x6e4>
  4037c2:	4b2c      	ldr	r3, [pc, #176]	; (403874 <UDP_Handler+0x7a8>)
  4037c4:	4798      	blx	r3
  4037c6:	4b25      	ldr	r3, [pc, #148]	; (40385c <UDP_Handler+0x790>)
  4037c8:	685a      	ldr	r2, [r3, #4]
  4037ca:	461c      	mov	r4, r3
  4037cc:	f022 0201 	bic.w	r2, r2, #1
  4037d0:	605a      	str	r2, [r3, #4]
  4037d2:	685a      	ldr	r2, [r3, #4]
  4037d4:	f022 0202 	bic.w	r2, r2, #2
  4037d8:	605a      	str	r2, [r3, #4]
  4037da:	689a      	ldr	r2, [r3, #8]
  4037dc:	f442 7280 	orr.w	r2, r2, #256	; 0x100
  4037e0:	609a      	str	r2, [r3, #8]
  4037e2:	689a      	ldr	r2, [r3, #8]
  4037e4:	f022 027f 	bic.w	r2, r2, #127	; 0x7f
  4037e8:	609a      	str	r2, [r3, #8]
  4037ea:	6b1a      	ldr	r2, [r3, #48]	; 0x30
  4037ec:	9220      	str	r2, [sp, #128]	; 0x80
  4037ee:	9a20      	ldr	r2, [sp, #128]	; 0x80
  4037f0:	f042 024f 	orr.w	r2, r2, #79	; 0x4f
  4037f4:	9220      	str	r2, [sp, #128]	; 0x80
  4037f6:	9a20      	ldr	r2, [sp, #128]	; 0x80
  4037f8:	f422 4207 	bic.w	r2, r2, #34560	; 0x8700
  4037fc:	f022 0280 	bic.w	r2, r2, #128	; 0x80
  403800:	9220      	str	r2, [sp, #128]	; 0x80
  403802:	9a20      	ldr	r2, [sp, #128]	; 0x80
  403804:	f442 4200 	orr.w	r2, r2, #32768	; 0x8000
  403808:	9220      	str	r2, [sp, #128]	; 0x80
  40380a:	9a20      	ldr	r2, [sp, #128]	; 0x80
  40380c:	631a      	str	r2, [r3, #48]	; 0x30
  40380e:	2200      	movs	r2, #0
  403810:	9221      	str	r2, [sp, #132]	; 0x84
  403812:	e003      	b.n	40381c <UDP_Handler+0x750>
  403814:	bf00      	nop
  403816:	9b21      	ldr	r3, [sp, #132]	; 0x84
  403818:	3301      	adds	r3, #1
  40381a:	9321      	str	r3, [sp, #132]	; 0x84
  40381c:	9b21      	ldr	r3, [sp, #132]	; 0x84
  40381e:	2b0e      	cmp	r3, #14
  403820:	d9f8      	bls.n	403814 <UDP_Handler+0x748>
  403822:	6b23      	ldr	r3, [r4, #48]	; 0x30
  403824:	f443 4300 	orr.w	r3, r3, #32768	; 0x8000
  403828:	6323      	str	r3, [r4, #48]	; 0x30
  40382a:	4b13      	ldr	r3, [pc, #76]	; (403878 <UDP_Handler+0x7ac>)
  40382c:	4798      	blx	r3
  40382e:	2301      	movs	r3, #1
  403830:	6123      	str	r3, [r4, #16]
  403832:	4b12      	ldr	r3, [pc, #72]	; (40387c <UDP_Handler+0x7b0>)
  403834:	4798      	blx	r3
  403836:	4b12      	ldr	r3, [pc, #72]	; (403880 <UDP_Handler+0x7b4>)
  403838:	4798      	blx	r3
  40383a:	f44f 7380 	mov.w	r3, #256	; 0x100
  40383e:	6123      	str	r3, [r4, #16]
  403840:	f44f 6300 	mov.w	r3, #2048	; 0x800
  403844:	6123      	str	r3, [r4, #16]
  403846:	e005      	b.n	403854 <UDP_Handler+0x788>
  403848:	4b04      	ldr	r3, [pc, #16]	; (40385c <UDP_Handler+0x790>)
  40384a:	699a      	ldr	r2, [r3, #24]
  40384c:	0492      	lsls	r2, r2, #18
  40384e:	f53f af67 	bmi.w	403720 <UDP_Handler+0x654>
  403852:	e768      	b.n	403726 <UDP_Handler+0x65a>
  403854:	b022      	add	sp, #136	; 0x88
  403856:	e8bd 87f0 	ldmia.w	sp!, {r4, r5, r6, r7, r8, r9, sl, pc}
  40385a:	bf00      	nop
  40385c:	40034000 	.word	0x40034000
  403860:	00402d25 	.word	0x00402d25
  403864:	00403091 	.word	0x00403091
  403868:	00402ea1 	.word	0x00402ea1
  40386c:	00402ab9 	.word	0x00402ab9
  403870:	20000fc0 	.word	0x20000fc0
  403874:	00401d61 	.word	0x00401d61
  403878:	00402be5 	.word	0x00402be5
  40387c:	00402e8d 	.word	0x00402e8d
  403880:	00402bf9 	.word	0x00402bf9

00403884 <udd_include_vbus_monitoring>:
  403884:	2000      	movs	r0, #0
  403886:	4770      	bx	lr

00403888 <udd_enable>:
  403888:	b538      	push	{r3, r4, r5, lr}
  40388a:	4b17      	ldr	r3, [pc, #92]	; (4038e8 <udd_enable+0x60>)
  40388c:	4798      	blx	r3
  40388e:	4b17      	ldr	r3, [pc, #92]	; (4038ec <udd_enable+0x64>)
  403890:	4605      	mov	r5, r0
  403892:	2022      	movs	r0, #34	; 0x22
  403894:	4798      	blx	r3
  403896:	4b16      	ldr	r3, [pc, #88]	; (4038f0 <udd_enable+0x68>)
  403898:	4798      	blx	r3
  40389a:	4b16      	ldr	r3, [pc, #88]	; (4038f4 <udd_enable+0x6c>)
  40389c:	2250      	movs	r2, #80	; 0x50
  40389e:	f883 2322 	strb.w	r2, [r3, #802]	; 0x322
  4038a2:	4815      	ldr	r0, [pc, #84]	; (4038f8 <udd_enable+0x70>)
  4038a4:	2204      	movs	r2, #4
  4038a6:	605a      	str	r2, [r3, #4]
  4038a8:	2414      	movs	r4, #20
  4038aa:	2300      	movs	r3, #0
  4038ac:	fb04 0203 	mla	r2, r4, r3, r0
  4038b0:	7c51      	ldrb	r1, [r2, #17]
  4038b2:	3301      	adds	r3, #1
  4038b4:	f001 0183 	and.w	r1, r1, #131	; 0x83
  4038b8:	f36f 11c7 	bfc	r1, #7, #1
  4038bc:	2b03      	cmp	r3, #3
  4038be:	7451      	strb	r1, [r2, #17]
  4038c0:	d1f4      	bne.n	4038ac <udd_enable+0x24>
  4038c2:	f44f 2080 	mov.w	r0, #262144	; 0x40000
  4038c6:	4b0d      	ldr	r3, [pc, #52]	; (4038fc <udd_enable+0x74>)
  4038c8:	4798      	blx	r3
  4038ca:	4b0d      	ldr	r3, [pc, #52]	; (403900 <udd_enable+0x78>)
  4038cc:	2200      	movs	r2, #0
  4038ce:	701a      	strb	r2, [r3, #0]
  4038d0:	4b05      	ldr	r3, [pc, #20]	; (4038e8 <udd_enable+0x60>)
  4038d2:	4798      	blx	r3
  4038d4:	4b0b      	ldr	r3, [pc, #44]	; (403904 <udd_enable+0x7c>)
  4038d6:	4c0c      	ldr	r4, [pc, #48]	; (403908 <udd_enable+0x80>)
  4038d8:	78da      	ldrb	r2, [r3, #3]
  4038da:	3201      	adds	r2, #1
  4038dc:	70da      	strb	r2, [r3, #3]
  4038de:	47a0      	blx	r4
  4038e0:	4628      	mov	r0, r5
  4038e2:	47a0      	blx	r4
  4038e4:	bd38      	pop	{r3, r4, r5, pc}
  4038e6:	bf00      	nop
  4038e8:	00402be5 	.word	0x00402be5
  4038ec:	00402a75 	.word	0x00402a75
  4038f0:	00401591 	.word	0x00401591
  4038f4:	e000e100 	.word	0xe000e100
  4038f8:	20000fc0 	.word	0x20000fc0
  4038fc:	00402b19 	.word	0x00402b19
  403900:	20000ffc 	.word	0x20000ffc
  403904:	2000171a 	.word	0x2000171a
  403908:	00402e8d 	.word	0x00402e8d

0040390c <udd_attach>:
  40390c:	b510      	push	{r4, lr}
  40390e:	4b12      	ldr	r3, [pc, #72]	; (403958 <udd_attach+0x4c>)
  403910:	4798      	blx	r3
  403912:	4b12      	ldr	r3, [pc, #72]	; (40395c <udd_attach+0x50>)
  403914:	4604      	mov	r4, r0
  403916:	2001      	movs	r0, #1
  403918:	4798      	blx	r3
  40391a:	2022      	movs	r0, #34	; 0x22
  40391c:	4b10      	ldr	r3, [pc, #64]	; (403960 <udd_attach+0x54>)
  40391e:	4798      	blx	r3
  403920:	4b10      	ldr	r3, [pc, #64]	; (403964 <udd_attach+0x58>)
  403922:	4620      	mov	r0, r4
  403924:	6f5a      	ldr	r2, [r3, #116]	; 0x74
  403926:	f422 7280 	bic.w	r2, r2, #256	; 0x100
  40392a:	675a      	str	r2, [r3, #116]	; 0x74
  40392c:	6f5a      	ldr	r2, [r3, #116]	; 0x74
  40392e:	f442 7200 	orr.w	r2, r2, #512	; 0x200
  403932:	675a      	str	r2, [r3, #116]	; 0x74
  403934:	f44f 7280 	mov.w	r2, #256	; 0x100
  403938:	611a      	str	r2, [r3, #16]
  40393a:	f44f 5200 	mov.w	r2, #8192	; 0x2000
  40393e:	611a      	str	r2, [r3, #16]
  403940:	f44f 7200 	mov.w	r2, #512	; 0x200
  403944:	611a      	str	r2, [r3, #16]
  403946:	f44f 6280 	mov.w	r2, #1024	; 0x400
  40394a:	611a      	str	r2, [r3, #16]
  40394c:	f44f 6200 	mov.w	r2, #2048	; 0x800
  403950:	611a      	str	r2, [r3, #16]
  403952:	4b05      	ldr	r3, [pc, #20]	; (403968 <udd_attach+0x5c>)
  403954:	4798      	blx	r3
  403956:	bd10      	pop	{r4, pc}
  403958:	00402be5 	.word	0x00402be5
  40395c:	00402ea1 	.word	0x00402ea1
  403960:	00402a75 	.word	0x00402a75
  403964:	40034000 	.word	0x40034000
  403968:	00402e8d 	.word	0x00402e8d

0040396c <udd_is_high_speed>:
  40396c:	2000      	movs	r0, #0
  40396e:	4770      	bx	lr

00403970 <udd_set_address>:
  403970:	4b0c      	ldr	r3, [pc, #48]	; (4039a4 <udd_set_address+0x34>)
  403972:	685a      	ldr	r2, [r3, #4]
  403974:	f022 0201 	bic.w	r2, r2, #1
  403978:	605a      	str	r2, [r3, #4]
  40397a:	689a      	ldr	r2, [r3, #8]
  40397c:	f422 7280 	bic.w	r2, r2, #256	; 0x100
  403980:	609a      	str	r2, [r3, #8]
  403982:	b170      	cbz	r0, 4039a2 <udd_set_address+0x32>
  403984:	689a      	ldr	r2, [r3, #8]
  403986:	f000 007f 	and.w	r0, r0, #127	; 0x7f
  40398a:	f022 027f 	bic.w	r2, r2, #127	; 0x7f
  40398e:	4310      	orrs	r0, r2
  403990:	6098      	str	r0, [r3, #8]
  403992:	689a      	ldr	r2, [r3, #8]
  403994:	f442 7280 	orr.w	r2, r2, #256	; 0x100
  403998:	609a      	str	r2, [r3, #8]
  40399a:	685a      	ldr	r2, [r3, #4]
  40399c:	f042 0201 	orr.w	r2, r2, #1
  4039a0:	605a      	str	r2, [r3, #4]
  4039a2:	4770      	bx	lr
  4039a4:	40034000 	.word	0x40034000

004039a8 <udd_getaddress>:
  4039a8:	4b04      	ldr	r3, [pc, #16]	; (4039bc <udd_getaddress+0x14>)
  4039aa:	6858      	ldr	r0, [r3, #4]
  4039ac:	f010 0001 	ands.w	r0, r0, #1
  4039b0:	bf1c      	itt	ne
  4039b2:	6898      	ldrne	r0, [r3, #8]
  4039b4:	f000 007f 	andne.w	r0, r0, #127	; 0x7f
  4039b8:	4770      	bx	lr
  4039ba:	bf00      	nop
  4039bc:	40034000 	.word	0x40034000

004039c0 <udd_get_frame_number>:
  4039c0:	4b02      	ldr	r3, [pc, #8]	; (4039cc <udd_get_frame_number+0xc>)
  4039c2:	6818      	ldr	r0, [r3, #0]
  4039c4:	0540      	lsls	r0, r0, #21
  4039c6:	0d40      	lsrs	r0, r0, #21
  4039c8:	4770      	bx	lr
  4039ca:	bf00      	nop
  4039cc:	40034000 	.word	0x40034000

004039d0 <udd_get_micro_frame_number>:
  4039d0:	2000      	movs	r0, #0
  4039d2:	4770      	bx	lr

004039d4 <udd_set_setup_payload>:
  4039d4:	4b01      	ldr	r3, [pc, #4]	; (4039dc <udd_set_setup_payload+0x8>)
  4039d6:	6098      	str	r0, [r3, #8]
  4039d8:	8199      	strh	r1, [r3, #12]
  4039da:	4770      	bx	lr
  4039dc:	2000172c 	.word	0x2000172c

004039e0 <udd_ep_alloc>:
  4039e0:	f000 030f 	and.w	r3, r0, #15
  4039e4:	2b03      	cmp	r3, #3
  4039e6:	b573      	push	{r0, r1, r4, r5, r6, lr}
  4039e8:	d85b      	bhi.n	403aa2 <udd_ep_alloc+0xc2>
  4039ea:	4c2f      	ldr	r4, [pc, #188]	; (403aa8 <udd_ep_alloc+0xc8>)
  4039ec:	f103 050c 	add.w	r5, r3, #12
  4039f0:	f854 4025 	ldr.w	r4, [r4, r5, lsl #2]
  4039f4:	f414 4400 	ands.w	r4, r4, #32768	; 0x8000
  4039f8:	d153      	bne.n	403aa2 <udd_ep_alloc+0xc2>
  4039fa:	f001 0503 	and.w	r5, r1, #3
  4039fe:	2d01      	cmp	r5, #1
  403a00:	d103      	bne.n	403a0a <udd_ep_alloc+0x2a>
  403a02:	2b00      	cmp	r3, #0
  403a04:	d04d      	beq.n	403aa2 <udd_ep_alloc+0xc2>
  403a06:	2b03      	cmp	r3, #3
  403a08:	d04b      	beq.n	403aa2 <udd_ep_alloc+0xc2>
  403a0a:	2a40      	cmp	r2, #64	; 0x40
  403a0c:	dc49      	bgt.n	403aa2 <udd_ep_alloc+0xc2>
  403a0e:	4d27      	ldr	r5, [pc, #156]	; (403aac <udd_ep_alloc+0xcc>)
  403a10:	1e5c      	subs	r4, r3, #1
  403a12:	2614      	movs	r6, #20
  403a14:	fb06 5404 	mla	r4, r6, r4, r5
  403a18:	8a25      	ldrh	r5, [r4, #16]
  403a1a:	09c0      	lsrs	r0, r0, #7
  403a1c:	f362 0509 	bfi	r5, r2, #0, #10
  403a20:	8225      	strh	r5, [r4, #16]
  403a22:	7c62      	ldrb	r2, [r4, #17]
  403a24:	f002 027f 	and.w	r2, r2, #127	; 0x7f
  403a28:	f36f 1245 	bfc	r2, #5, #1
  403a2c:	7462      	strb	r2, [r4, #17]
  403a2e:	d003      	beq.n	403a38 <udd_ep_alloc+0x58>
  403a30:	b2d2      	uxtb	r2, r2
  403a32:	f36f 0283 	bfc	r2, #2, #2
  403a36:	7462      	strb	r2, [r4, #17]
  403a38:	2401      	movs	r4, #1
  403a3a:	fa04 f403 	lsl.w	r4, r4, r3
  403a3e:	4a1a      	ldr	r2, [pc, #104]	; (403aa8 <udd_ep_alloc+0xc8>)
  403a40:	6a95      	ldr	r5, [r2, #40]	; 0x28
  403a42:	4325      	orrs	r5, r4
  403a44:	6295      	str	r5, [r2, #40]	; 0x28
  403a46:	6a95      	ldr	r5, [r2, #40]	; 0x28
  403a48:	ea25 0404 	bic.w	r4, r5, r4
  403a4c:	6294      	str	r4, [r2, #40]	; 0x28
  403a4e:	f103 040c 	add.w	r4, r3, #12
  403a52:	f852 2024 	ldr.w	r2, [r2, r4, lsl #2]
  403a56:	9200      	str	r2, [sp, #0]
  403a58:	9a00      	ldr	r2, [sp, #0]
  403a5a:	f042 024f 	orr.w	r2, r2, #79	; 0x4f
  403a5e:	9200      	str	r2, [sp, #0]
  403a60:	9a00      	ldr	r2, [sp, #0]
  403a62:	f422 4207 	bic.w	r2, r2, #34560	; 0x8700
  403a66:	f022 0280 	bic.w	r2, r2, #128	; 0x80
  403a6a:	9200      	str	r2, [sp, #0]
  403a6c:	9a00      	ldr	r2, [sp, #0]
  403a6e:	b108      	cbz	r0, 403a74 <udd_ep_alloc+0x94>
  403a70:	f041 0104 	orr.w	r1, r1, #4
  403a74:	0209      	lsls	r1, r1, #8
  403a76:	f401 61e0 	and.w	r1, r1, #1792	; 0x700
  403a7a:	f441 4100 	orr.w	r1, r1, #32768	; 0x8000
  403a7e:	4311      	orrs	r1, r2
  403a80:	9100      	str	r1, [sp, #0]
  403a82:	9900      	ldr	r1, [sp, #0]
  403a84:	4a08      	ldr	r2, [pc, #32]	; (403aa8 <udd_ep_alloc+0xc8>)
  403a86:	330c      	adds	r3, #12
  403a88:	f842 1023 	str.w	r1, [r2, r3, lsl #2]
  403a8c:	2300      	movs	r3, #0
  403a8e:	e002      	b.n	403a96 <udd_ep_alloc+0xb6>
  403a90:	bf00      	nop
  403a92:	9b01      	ldr	r3, [sp, #4]
  403a94:	3301      	adds	r3, #1
  403a96:	9301      	str	r3, [sp, #4]
  403a98:	9b01      	ldr	r3, [sp, #4]
  403a9a:	2b0e      	cmp	r3, #14
  403a9c:	d9f8      	bls.n	403a90 <udd_ep_alloc+0xb0>
  403a9e:	2001      	movs	r0, #1
  403aa0:	e000      	b.n	403aa4 <udd_ep_alloc+0xc4>
  403aa2:	2000      	movs	r0, #0
  403aa4:	bd7c      	pop	{r2, r3, r4, r5, r6, pc}
  403aa6:	bf00      	nop
  403aa8:	40034000 	.word	0x40034000
  403aac:	20000fc0 	.word	0x20000fc0

00403ab0 <udd_ep_free>:
  403ab0:	f000 020f 	and.w	r2, r0, #15
  403ab4:	2a03      	cmp	r2, #3
  403ab6:	b508      	push	{r3, lr}
  403ab8:	d810      	bhi.n	403adc <udd_ep_free+0x2c>
  403aba:	4b09      	ldr	r3, [pc, #36]	; (403ae0 <udd_ep_free+0x30>)
  403abc:	f102 010c 	add.w	r1, r2, #12
  403ac0:	f853 0021 	ldr.w	r0, [r3, r1, lsl #2]
  403ac4:	f420 4000 	bic.w	r0, r0, #32768	; 0x8000
  403ac8:	f843 0021 	str.w	r0, [r3, r1, lsl #2]
  403acc:	4b05      	ldr	r3, [pc, #20]	; (403ae4 <udd_ep_free+0x34>)
  403ace:	1e51      	subs	r1, r2, #1
  403ad0:	2014      	movs	r0, #20
  403ad2:	fb00 3001 	mla	r0, r0, r1, r3
  403ad6:	2101      	movs	r1, #1
  403ad8:	4b03      	ldr	r3, [pc, #12]	; (403ae8 <udd_ep_free+0x38>)
  403ada:	4798      	blx	r3
  403adc:	bd08      	pop	{r3, pc}
  403ade:	bf00      	nop
  403ae0:	40034000 	.word	0x40034000
  403ae4:	20000fc0 	.word	0x20000fc0
  403ae8:	00403091 	.word	0x00403091

00403aec <udd_ep_is_halted>:
  403aec:	f000 000f 	and.w	r0, r0, #15
  403af0:	2803      	cmp	r0, #3
  403af2:	d815      	bhi.n	403b20 <udd_ep_is_halted+0x34>
  403af4:	4a0b      	ldr	r2, [pc, #44]	; (403b24 <udd_ep_is_halted+0x38>)
  403af6:	1e43      	subs	r3, r0, #1
  403af8:	2114      	movs	r1, #20
  403afa:	fb01 2303 	mla	r3, r1, r3, r2
  403afe:	7c5b      	ldrb	r3, [r3, #17]
  403b00:	f003 0320 	and.w	r3, r3, #32
  403b04:	b2db      	uxtb	r3, r3
  403b06:	b94b      	cbnz	r3, 403b1c <udd_ep_is_halted+0x30>
  403b08:	4b07      	ldr	r3, [pc, #28]	; (403b28 <udd_ep_is_halted+0x3c>)
  403b0a:	300c      	adds	r0, #12
  403b0c:	f853 3020 	ldr.w	r3, [r3, r0, lsl #2]
  403b10:	f013 0f28 	tst.w	r3, #40	; 0x28
  403b14:	bf0c      	ite	eq
  403b16:	2000      	moveq	r0, #0
  403b18:	2001      	movne	r0, #1
  403b1a:	4770      	bx	lr
  403b1c:	2001      	movs	r0, #1
  403b1e:	4770      	bx	lr
  403b20:	2000      	movs	r0, #0
  403b22:	4770      	bx	lr
  403b24:	20000fc0 	.word	0x20000fc0
  403b28:	40034000 	.word	0x40034000

00403b2c <udd_ep_set_halt>:
  403b2c:	b537      	push	{r0, r1, r2, r4, r5, lr}
  403b2e:	f000 040f 	and.w	r4, r0, #15
  403b32:	2c03      	cmp	r4, #3
  403b34:	4605      	mov	r5, r0
  403b36:	d83e      	bhi.n	403bb6 <udd_ep_set_halt+0x8a>
  403b38:	f005 0580 	and.w	r5, r5, #128	; 0x80
  403b3c:	4b1f      	ldr	r3, [pc, #124]	; (403bbc <udd_ep_set_halt+0x90>)
  403b3e:	b2ed      	uxtb	r5, r5
  403b40:	4798      	blx	r3
  403b42:	b1ad      	cbz	r5, 403b70 <udd_ep_set_halt+0x44>
  403b44:	4a1e      	ldr	r2, [pc, #120]	; (403bc0 <udd_ep_set_halt+0x94>)
  403b46:	2114      	movs	r1, #20
  403b48:	1e63      	subs	r3, r4, #1
  403b4a:	fb01 2303 	mla	r3, r1, r3, r2
  403b4e:	4a1d      	ldr	r2, [pc, #116]	; (403bc4 <udd_ep_set_halt+0x98>)
  403b50:	f104 010c 	add.w	r1, r4, #12
  403b54:	f852 2021 	ldr.w	r2, [r2, r1, lsl #2]
  403b58:	06d5      	lsls	r5, r2, #27
  403b5a:	d404      	bmi.n	403b66 <udd_ep_set_halt+0x3a>
  403b5c:	7c5a      	ldrb	r2, [r3, #17]
  403b5e:	f3c2 0281 	ubfx	r2, r2, #2, #2
  403b62:	2a01      	cmp	r2, #1
  403b64:	dd04      	ble.n	403b70 <udd_ep_set_halt+0x44>
  403b66:	7c5a      	ldrb	r2, [r3, #17]
  403b68:	f042 0220 	orr.w	r2, r2, #32
  403b6c:	745a      	strb	r2, [r3, #17]
  403b6e:	e019      	b.n	403ba4 <udd_ep_set_halt+0x78>
  403b70:	4b14      	ldr	r3, [pc, #80]	; (403bc4 <udd_ep_set_halt+0x98>)
  403b72:	f104 020c 	add.w	r2, r4, #12
  403b76:	f853 1022 	ldr.w	r1, [r3, r2, lsl #2]
  403b7a:	9100      	str	r1, [sp, #0]
  403b7c:	9900      	ldr	r1, [sp, #0]
  403b7e:	f041 014f 	orr.w	r1, r1, #79	; 0x4f
  403b82:	9100      	str	r1, [sp, #0]
  403b84:	9900      	ldr	r1, [sp, #0]
  403b86:	f041 0120 	orr.w	r1, r1, #32
  403b8a:	9100      	str	r1, [sp, #0]
  403b8c:	9900      	ldr	r1, [sp, #0]
  403b8e:	f843 1022 	str.w	r1, [r3, r2, lsl #2]
  403b92:	2300      	movs	r3, #0
  403b94:	e002      	b.n	403b9c <udd_ep_set_halt+0x70>
  403b96:	bf00      	nop
  403b98:	9b01      	ldr	r3, [sp, #4]
  403b9a:	3301      	adds	r3, #1
  403b9c:	9301      	str	r3, [sp, #4]
  403b9e:	9b01      	ldr	r3, [sp, #4]
  403ba0:	2b0e      	cmp	r3, #14
  403ba2:	d9f8      	bls.n	403b96 <udd_ep_set_halt+0x6a>
  403ba4:	2501      	movs	r5, #1
  403ba6:	fa05 f404 	lsl.w	r4, r5, r4
  403baa:	4b06      	ldr	r3, [pc, #24]	; (403bc4 <udd_ep_set_halt+0x98>)
  403bac:	611c      	str	r4, [r3, #16]
  403bae:	4b06      	ldr	r3, [pc, #24]	; (403bc8 <udd_ep_set_halt+0x9c>)
  403bb0:	4798      	blx	r3
  403bb2:	4628      	mov	r0, r5
  403bb4:	e000      	b.n	403bb8 <udd_ep_set_halt+0x8c>
  403bb6:	2000      	movs	r0, #0
  403bb8:	bd3e      	pop	{r1, r2, r3, r4, r5, pc}
  403bba:	bf00      	nop
  403bbc:	00402be5 	.word	0x00402be5
  403bc0:	20000fc0 	.word	0x20000fc0
  403bc4:	40034000 	.word	0x40034000
  403bc8:	00402e8d 	.word	0x00402e8d

00403bcc <udd_ep_clear_halt>:
  403bcc:	b57f      	push	{r0, r1, r2, r3, r4, r5, r6, lr}
  403bce:	f000 000f 	and.w	r0, r0, #15
  403bd2:	2803      	cmp	r0, #3
  403bd4:	d857      	bhi.n	403c86 <udd_ep_clear_halt+0xba>
  403bd6:	1e43      	subs	r3, r0, #1
  403bd8:	2414      	movs	r4, #20
  403bda:	435c      	muls	r4, r3
  403bdc:	4d2b      	ldr	r5, [pc, #172]	; (403c8c <udd_ep_clear_halt+0xc0>)
  403bde:	f100 010c 	add.w	r1, r0, #12
  403be2:	192a      	adds	r2, r5, r4
  403be4:	7c53      	ldrb	r3, [r2, #17]
  403be6:	f36f 1345 	bfc	r3, #5, #1
  403bea:	7453      	strb	r3, [r2, #17]
  403bec:	4b28      	ldr	r3, [pc, #160]	; (403c90 <udd_ep_clear_halt+0xc4>)
  403bee:	f853 6021 	ldr.w	r6, [r3, r1, lsl #2]
  403bf2:	f016 0f20 	tst.w	r6, #32
  403bf6:	d100      	bne.n	403bfa <udd_ep_clear_halt+0x2e>
  403bf8:	e043      	b.n	403c82 <udd_ep_clear_halt+0xb6>
  403bfa:	f853 6021 	ldr.w	r6, [r3, r1, lsl #2]
  403bfe:	9600      	str	r6, [sp, #0]
  403c00:	9e00      	ldr	r6, [sp, #0]
  403c02:	f046 064f 	orr.w	r6, r6, #79	; 0x4f
  403c06:	9600      	str	r6, [sp, #0]
  403c08:	9e00      	ldr	r6, [sp, #0]
  403c0a:	f026 0620 	bic.w	r6, r6, #32
  403c0e:	9600      	str	r6, [sp, #0]
  403c10:	9e00      	ldr	r6, [sp, #0]
  403c12:	f843 6021 	str.w	r6, [r3, r1, lsl #2]
  403c16:	2300      	movs	r3, #0
  403c18:	e002      	b.n	403c20 <udd_ep_clear_halt+0x54>
  403c1a:	bf00      	nop
  403c1c:	9b01      	ldr	r3, [sp, #4]
  403c1e:	3301      	adds	r3, #1
  403c20:	9301      	str	r3, [sp, #4]
  403c22:	9b01      	ldr	r3, [sp, #4]
  403c24:	2b0e      	cmp	r3, #14
  403c26:	d9f8      	bls.n	403c1a <udd_ep_clear_halt+0x4e>
  403c28:	2101      	movs	r1, #1
  403c2a:	fa01 f100 	lsl.w	r1, r1, r0
  403c2e:	4b18      	ldr	r3, [pc, #96]	; (403c90 <udd_ep_clear_halt+0xc4>)
  403c30:	300c      	adds	r0, #12
  403c32:	6a9e      	ldr	r6, [r3, #40]	; 0x28
  403c34:	430e      	orrs	r6, r1
  403c36:	629e      	str	r6, [r3, #40]	; 0x28
  403c38:	6a9e      	ldr	r6, [r3, #40]	; 0x28
  403c3a:	ea26 0101 	bic.w	r1, r6, r1
  403c3e:	6299      	str	r1, [r3, #40]	; 0x28
  403c40:	f853 1020 	ldr.w	r1, [r3, r0, lsl #2]
  403c44:	9102      	str	r1, [sp, #8]
  403c46:	9902      	ldr	r1, [sp, #8]
  403c48:	f041 014f 	orr.w	r1, r1, #79	; 0x4f
  403c4c:	9102      	str	r1, [sp, #8]
  403c4e:	9902      	ldr	r1, [sp, #8]
  403c50:	f021 0108 	bic.w	r1, r1, #8
  403c54:	9102      	str	r1, [sp, #8]
  403c56:	9902      	ldr	r1, [sp, #8]
  403c58:	f843 1020 	str.w	r1, [r3, r0, lsl #2]
  403c5c:	2300      	movs	r3, #0
  403c5e:	e002      	b.n	403c66 <udd_ep_clear_halt+0x9a>
  403c60:	bf00      	nop
  403c62:	9b03      	ldr	r3, [sp, #12]
  403c64:	3301      	adds	r3, #1
  403c66:	9303      	str	r3, [sp, #12]
  403c68:	9b03      	ldr	r3, [sp, #12]
  403c6a:	2b0e      	cmp	r3, #14
  403c6c:	d9f8      	bls.n	403c60 <udd_ep_clear_halt+0x94>
  403c6e:	7c53      	ldrb	r3, [r2, #17]
  403c70:	f003 0110 	and.w	r1, r3, #16
  403c74:	b2c9      	uxtb	r1, r1
  403c76:	b121      	cbz	r1, 403c82 <udd_ep_clear_halt+0xb6>
  403c78:	f36f 1304 	bfc	r3, #4, #1
  403c7c:	7453      	strb	r3, [r2, #17]
  403c7e:	592b      	ldr	r3, [r5, r4]
  403c80:	4798      	blx	r3
  403c82:	2001      	movs	r0, #1
  403c84:	e000      	b.n	403c88 <udd_ep_clear_halt+0xbc>
  403c86:	2000      	movs	r0, #0
  403c88:	b004      	add	sp, #16
  403c8a:	bd70      	pop	{r4, r5, r6, pc}
  403c8c:	20000fc0 	.word	0x20000fc0
  403c90:	40034000 	.word	0x40034000

00403c94 <udd_ep_run>:
  403c94:	e92d 4ff7 	stmdb	sp!, {r0, r1, r2, r4, r5, r6, r7, r8, r9, sl, fp, lr}
  403c98:	f000 090f 	and.w	r9, r0, #15
  403c9c:	f1b9 0f03 	cmp.w	r9, #3
  403ca0:	4605      	mov	r5, r0
  403ca2:	9101      	str	r1, [sp, #4]
  403ca4:	4692      	mov	sl, r2
  403ca6:	461e      	mov	r6, r3
  403ca8:	d861      	bhi.n	403d6e <udd_ep_run+0xda>
  403caa:	4a32      	ldr	r2, [pc, #200]	; (403d74 <udd_ep_run+0xe0>)
  403cac:	f109 010c 	add.w	r1, r9, #12
  403cb0:	f852 0021 	ldr.w	r0, [r2, r1, lsl #2]
  403cb4:	f410 4000 	ands.w	r0, r0, #32768	; 0x8000
  403cb8:	d05a      	beq.n	403d70 <udd_ep_run+0xdc>
  403cba:	f109 30ff 	add.w	r0, r9, #4294967295
  403cbe:	2714      	movs	r7, #20
  403cc0:	4347      	muls	r7, r0
  403cc2:	f8df 80c0 	ldr.w	r8, [pc, #192]	; 403d84 <udd_ep_run+0xf0>
  403cc6:	eb08 0407 	add.w	r4, r8, r7
  403cca:	7c60      	ldrb	r0, [r4, #17]
  403ccc:	f000 0020 	and.w	r0, r0, #32
  403cd0:	b2c0      	uxtb	r0, r0
  403cd2:	2800      	cmp	r0, #0
  403cd4:	d14b      	bne.n	403d6e <udd_ep_run+0xda>
  403cd6:	f852 2021 	ldr.w	r2, [r2, r1, lsl #2]
  403cda:	f012 0b20 	ands.w	fp, r2, #32
  403cde:	d147      	bne.n	403d70 <udd_ep_run+0xdc>
  403ce0:	4a25      	ldr	r2, [pc, #148]	; (403d78 <udd_ep_run+0xe4>)
  403ce2:	4790      	blx	r2
  403ce4:	f894 e011 	ldrb.w	lr, [r4, #17]
  403ce8:	4924      	ldr	r1, [pc, #144]	; (403d7c <udd_ep_run+0xe8>)
  403cea:	f00e 0210 	and.w	r2, lr, #16
  403cee:	b2d2      	uxtb	r2, r2
  403cf0:	b10a      	cbz	r2, 403cf6 <udd_ep_run+0x62>
  403cf2:	4788      	blx	r1
  403cf4:	e03b      	b.n	403d6e <udd_ep_run+0xda>
  403cf6:	f04e 0e10 	orr.w	lr, lr, #16
  403cfa:	f884 e011 	strb.w	lr, [r4, #17]
  403cfe:	9200      	str	r2, [sp, #0]
  403d00:	4788      	blx	r1
  403d02:	9a00      	ldr	r2, [sp, #0]
  403d04:	9b01      	ldr	r3, [sp, #4]
  403d06:	60e2      	str	r2, [r4, #12]
  403d08:	9a0c      	ldr	r2, [sp, #48]	; 0x30
  403d0a:	f8c4 a004 	str.w	sl, [r4, #4]
  403d0e:	60a6      	str	r6, [r4, #8]
  403d10:	f848 2007 	str.w	r2, [r8, r7]
  403d14:	b923      	cbnz	r3, 403d20 <udd_ep_run+0x8c>
  403d16:	f1d6 0601 	rsbs	r6, r6, #1
  403d1a:	bf38      	it	cc
  403d1c:	2600      	movcc	r6, #0
  403d1e:	e000      	b.n	403d22 <udd_ep_run+0x8e>
  403d20:	2601      	movs	r6, #1
  403d22:	7c62      	ldrb	r2, [r4, #17]
  403d24:	f005 0580 	and.w	r5, r5, #128	; 0x80
  403d28:	f366 1286 	bfi	r2, r6, #6, #1
  403d2c:	f36f 12c7 	bfc	r2, #7, #1
  403d30:	7462      	strb	r2, [r4, #17]
  403d32:	4a11      	ldr	r2, [pc, #68]	; (403d78 <udd_ep_run+0xe4>)
  403d34:	4790      	blx	r2
  403d36:	2201      	movs	r2, #1
  403d38:	4606      	mov	r6, r0
  403d3a:	fa02 f009 	lsl.w	r0, r2, r9
  403d3e:	490d      	ldr	r1, [pc, #52]	; (403d74 <udd_ep_run+0xe0>)
  403d40:	b2ed      	uxtb	r5, r5
  403d42:	6108      	str	r0, [r1, #16]
  403d44:	b175      	cbz	r5, 403d64 <udd_ep_run+0xd0>
  403d46:	f109 000c 	add.w	r0, r9, #12
  403d4a:	f851 1020 	ldr.w	r1, [r1, r0, lsl #2]
  403d4e:	f011 0511 	ands.w	r5, r1, #17
  403d52:	d107      	bne.n	403d64 <udd_ep_run+0xd0>
  403d54:	4648      	mov	r0, r9
  403d56:	4611      	mov	r1, r2
  403d58:	4c09      	ldr	r4, [pc, #36]	; (403d80 <udd_ep_run+0xec>)
  403d5a:	47a0      	blx	r4
  403d5c:	b110      	cbz	r0, 403d64 <udd_ep_run+0xd0>
  403d5e:	4648      	mov	r0, r9
  403d60:	4629      	mov	r1, r5
  403d62:	47a0      	blx	r4
  403d64:	4630      	mov	r0, r6
  403d66:	4b05      	ldr	r3, [pc, #20]	; (403d7c <udd_ep_run+0xe8>)
  403d68:	4798      	blx	r3
  403d6a:	2001      	movs	r0, #1
  403d6c:	e000      	b.n	403d70 <udd_ep_run+0xdc>
  403d6e:	2000      	movs	r0, #0
  403d70:	e8bd 8ffe 	ldmia.w	sp!, {r1, r2, r3, r4, r5, r6, r7, r8, r9, sl, fp, pc}
  403d74:	40034000 	.word	0x40034000
  403d78:	00402be5 	.word	0x00402be5
  403d7c:	00402e8d 	.word	0x00402e8d
  403d80:	00402d25 	.word	0x00402d25
  403d84:	20000fc0 	.word	0x20000fc0

00403d88 <udd_ep_abort>:
  403d88:	b5f0      	push	{r4, r5, r6, r7, lr}
  403d8a:	f000 040f 	and.w	r4, r0, #15
  403d8e:	2c03      	cmp	r4, #3
  403d90:	b085      	sub	sp, #20
  403d92:	4607      	mov	r7, r0
  403d94:	f200 808d 	bhi.w	403eb2 <udd_ep_abort+0x12a>
  403d98:	2601      	movs	r6, #1
  403d9a:	fa06 f604 	lsl.w	r6, r6, r4
  403d9e:	4d46      	ldr	r5, [pc, #280]	; (403eb8 <udd_ep_abort+0x130>)
  403da0:	4b46      	ldr	r3, [pc, #280]	; (403ebc <udd_ep_abort+0x134>)
  403da2:	f007 0780 	and.w	r7, r7, #128	; 0x80
  403da6:	4798      	blx	r3
  403da8:	b2ff      	uxtb	r7, r7
  403daa:	616e      	str	r6, [r5, #20]
  403dac:	4b44      	ldr	r3, [pc, #272]	; (403ec0 <udd_ep_abort+0x138>)
  403dae:	4798      	blx	r3
  403db0:	2f00      	cmp	r7, #0
  403db2:	d065      	beq.n	403e80 <udd_ep_abort+0xf8>
  403db4:	f104 030c 	add.w	r3, r4, #12
  403db8:	f855 2023 	ldr.w	r2, [r5, r3, lsl #2]
  403dbc:	06d1      	lsls	r1, r2, #27
  403dbe:	d412      	bmi.n	403de6 <udd_ep_abort+0x5e>
  403dc0:	4b3d      	ldr	r3, [pc, #244]	; (403eb8 <udd_ep_abort+0x130>)
  403dc2:	f104 020c 	add.w	r2, r4, #12
  403dc6:	f853 1022 	ldr.w	r1, [r3, r2, lsl #2]
  403dca:	9102      	str	r1, [sp, #8]
  403dcc:	9902      	ldr	r1, [sp, #8]
  403dce:	f041 014f 	orr.w	r1, r1, #79	; 0x4f
  403dd2:	9102      	str	r1, [sp, #8]
  403dd4:	9902      	ldr	r1, [sp, #8]
  403dd6:	f021 0101 	bic.w	r1, r1, #1
  403dda:	9102      	str	r1, [sp, #8]
  403ddc:	9902      	ldr	r1, [sp, #8]
  403dde:	f843 1022 	str.w	r1, [r3, r2, lsl #2]
  403de2:	2300      	movs	r3, #0
  403de4:	e03b      	b.n	403e5e <udd_ep_abort+0xd6>
  403de6:	b994      	cbnz	r4, 403e0e <udd_ep_abort+0x86>
  403de8:	4b33      	ldr	r3, [pc, #204]	; (403eb8 <udd_ep_abort+0x130>)
  403dea:	f104 020c 	add.w	r2, r4, #12
  403dee:	f853 1022 	ldr.w	r1, [r3, r2, lsl #2]
  403df2:	9100      	str	r1, [sp, #0]
  403df4:	9900      	ldr	r1, [sp, #0]
  403df6:	f041 014f 	orr.w	r1, r1, #79	; 0x4f
  403dfa:	9100      	str	r1, [sp, #0]
  403dfc:	9900      	ldr	r1, [sp, #0]
  403dfe:	f021 0110 	bic.w	r1, r1, #16
  403e02:	9100      	str	r1, [sp, #0]
  403e04:	9900      	ldr	r1, [sp, #0]
  403e06:	f843 1022 	str.w	r1, [r3, r2, lsl #2]
  403e0a:	2300      	movs	r3, #0
  403e0c:	e01f      	b.n	403e4e <udd_ep_abort+0xc6>
  403e0e:	2c03      	cmp	r4, #3
  403e10:	d0ea      	beq.n	403de8 <udd_ep_abort+0x60>
  403e12:	f855 2023 	ldr.w	r2, [r5, r3, lsl #2]
  403e16:	f022 0210 	bic.w	r2, r2, #16
  403e1a:	f845 2023 	str.w	r2, [r5, r3, lsl #2]
  403e1e:	f104 020c 	add.w	r2, r4, #12
  403e22:	f855 3022 	ldr.w	r3, [r5, r2, lsl #2]
  403e26:	f013 0f10 	tst.w	r3, #16
  403e2a:	4b23      	ldr	r3, [pc, #140]	; (403eb8 <udd_ep_abort+0x130>)
  403e2c:	d1f7      	bne.n	403e1e <udd_ep_abort+0x96>
  403e2e:	f853 1022 	ldr.w	r1, [r3, r2, lsl #2]
  403e32:	f041 0110 	orr.w	r1, r1, #16
  403e36:	f843 1022 	str.w	r1, [r3, r2, lsl #2]
  403e3a:	f104 020c 	add.w	r2, r4, #12
  403e3e:	f853 2022 	ldr.w	r2, [r3, r2, lsl #2]
  403e42:	06d2      	lsls	r2, r2, #27
  403e44:	d5f9      	bpl.n	403e3a <udd_ep_abort+0xb2>
  403e46:	e7cf      	b.n	403de8 <udd_ep_abort+0x60>
  403e48:	bf00      	nop
  403e4a:	9b01      	ldr	r3, [sp, #4]
  403e4c:	3301      	adds	r3, #1
  403e4e:	9301      	str	r3, [sp, #4]
  403e50:	9b01      	ldr	r3, [sp, #4]
  403e52:	2b0e      	cmp	r3, #14
  403e54:	d9f8      	bls.n	403e48 <udd_ep_abort+0xc0>
  403e56:	e7b3      	b.n	403dc0 <udd_ep_abort+0x38>
  403e58:	bf00      	nop
  403e5a:	9b03      	ldr	r3, [sp, #12]
  403e5c:	3301      	adds	r3, #1
  403e5e:	9303      	str	r3, [sp, #12]
  403e60:	9b03      	ldr	r3, [sp, #12]
  403e62:	2b0e      	cmp	r3, #14
  403e64:	d9f8      	bls.n	403e58 <udd_ep_abort+0xd0>
  403e66:	4a17      	ldr	r2, [pc, #92]	; (403ec4 <udd_ep_abort+0x13c>)
  403e68:	1e63      	subs	r3, r4, #1
  403e6a:	2114      	movs	r1, #20
  403e6c:	fb01 2303 	mla	r3, r1, r3, r2
  403e70:	7c5a      	ldrb	r2, [r3, #17]
  403e72:	f36f 0283 	bfc	r2, #2, #2
  403e76:	745a      	strb	r2, [r3, #17]
  403e78:	e00a      	b.n	403e90 <udd_ep_abort+0x108>
  403e7a:	4620      	mov	r0, r4
  403e7c:	47b8      	blx	r7
  403e7e:	e000      	b.n	403e82 <udd_ep_abort+0xfa>
  403e80:	4f11      	ldr	r7, [pc, #68]	; (403ec8 <udd_ep_abort+0x140>)
  403e82:	f104 030c 	add.w	r3, r4, #12
  403e86:	f855 3023 	ldr.w	r3, [r5, r3, lsl #2]
  403e8a:	f013 0f42 	tst.w	r3, #66	; 0x42
  403e8e:	d1f4      	bne.n	403e7a <udd_ep_abort+0xf2>
  403e90:	4b09      	ldr	r3, [pc, #36]	; (403eb8 <udd_ep_abort+0x130>)
  403e92:	2014      	movs	r0, #20
  403e94:	6a9a      	ldr	r2, [r3, #40]	; 0x28
  403e96:	2101      	movs	r1, #1
  403e98:	4332      	orrs	r2, r6
  403e9a:	629a      	str	r2, [r3, #40]	; 0x28
  403e9c:	6a9a      	ldr	r2, [r3, #40]	; 0x28
  403e9e:	ea22 0606 	bic.w	r6, r2, r6
  403ea2:	629e      	str	r6, [r3, #40]	; 0x28
  403ea4:	4b07      	ldr	r3, [pc, #28]	; (403ec4 <udd_ep_abort+0x13c>)
  403ea6:	1e62      	subs	r2, r4, #1
  403ea8:	fb00 3002 	mla	r0, r0, r2, r3
  403eac:	4622      	mov	r2, r4
  403eae:	4b07      	ldr	r3, [pc, #28]	; (403ecc <udd_ep_abort+0x144>)
  403eb0:	4798      	blx	r3
  403eb2:	b005      	add	sp, #20
  403eb4:	bdf0      	pop	{r4, r5, r6, r7, pc}
  403eb6:	bf00      	nop
  403eb8:	40034000 	.word	0x40034000
  403ebc:	00402be5 	.word	0x00402be5
  403ec0:	00402e8d 	.word	0x00402e8d
  403ec4:	20000fc0 	.word	0x20000fc0
  403ec8:	00402ca5 	.word	0x00402ca5
  403ecc:	00403091 	.word	0x00403091

00403ed0 <flash_is_gpnvm_set>:
  403ed0:	2801      	cmp	r0, #1
  403ed2:	b510      	push	{r4, lr}
  403ed4:	4604      	mov	r4, r0
  403ed6:	d810      	bhi.n	403efa <flash_is_gpnvm_set+0x2a>
  403ed8:	480a      	ldr	r0, [pc, #40]	; (403f04 <flash_is_gpnvm_set+0x34>)
  403eda:	210d      	movs	r1, #13
  403edc:	2200      	movs	r2, #0
  403ede:	4b0a      	ldr	r3, [pc, #40]	; (403f08 <flash_is_gpnvm_set+0x38>)
  403ee0:	4798      	blx	r3
  403ee2:	b960      	cbnz	r0, 403efe <flash_is_gpnvm_set+0x2e>
  403ee4:	4b09      	ldr	r3, [pc, #36]	; (403f0c <flash_is_gpnvm_set+0x3c>)
  403ee6:	4807      	ldr	r0, [pc, #28]	; (403f04 <flash_is_gpnvm_set+0x34>)
  403ee8:	4798      	blx	r3
  403eea:	2301      	movs	r3, #1
  403eec:	fa03 f404 	lsl.w	r4, r3, r4
  403ef0:	4220      	tst	r0, r4
  403ef2:	bf14      	ite	ne
  403ef4:	2000      	movne	r0, #0
  403ef6:	2001      	moveq	r0, #1
  403ef8:	bd10      	pop	{r4, pc}
  403efa:	2011      	movs	r0, #17
  403efc:	bd10      	pop	{r4, pc}
  403efe:	2010      	movs	r0, #16
  403f00:	bd10      	pop	{r4, pc}
  403f02:	bf00      	nop
  403f04:	400e0a00 	.word	0x400e0a00
  403f08:	004022ad 	.word	0x004022ad
  403f0c:	004022e9 	.word	0x004022e9

00403f10 <flash_clear_gpnvm>:
  403f10:	2801      	cmp	r0, #1
  403f12:	b510      	push	{r4, lr}
  403f14:	4604      	mov	r4, r0
  403f16:	d80e      	bhi.n	403f36 <flash_clear_gpnvm+0x26>
  403f18:	4b08      	ldr	r3, [pc, #32]	; (403f3c <flash_clear_gpnvm+0x2c>)
  403f1a:	4798      	blx	r3
  403f1c:	2801      	cmp	r0, #1
  403f1e:	d101      	bne.n	403f24 <flash_clear_gpnvm+0x14>
  403f20:	2000      	movs	r0, #0
  403f22:	bd10      	pop	{r4, pc}
  403f24:	4806      	ldr	r0, [pc, #24]	; (403f40 <flash_clear_gpnvm+0x30>)
  403f26:	210c      	movs	r1, #12
  403f28:	4622      	mov	r2, r4
  403f2a:	4b06      	ldr	r3, [pc, #24]	; (403f44 <flash_clear_gpnvm+0x34>)
  403f2c:	4798      	blx	r3
  403f2e:	2800      	cmp	r0, #0
  403f30:	d0f6      	beq.n	403f20 <flash_clear_gpnvm+0x10>
  403f32:	2010      	movs	r0, #16
  403f34:	bd10      	pop	{r4, pc}
  403f36:	2011      	movs	r0, #17
  403f38:	bd10      	pop	{r4, pc}
  403f3a:	bf00      	nop
  403f3c:	00403ed1 	.word	0x00403ed1
  403f40:	400e0a00 	.word	0x400e0a00
  403f44:	004022ad 	.word	0x004022ad

00403f48 <_sbrk>:
  403f48:	4b04      	ldr	r3, [pc, #16]	; (403f5c <_sbrk+0x14>)
  403f4a:	681a      	ldr	r2, [r3, #0]
  403f4c:	b90a      	cbnz	r2, 403f52 <_sbrk+0xa>
  403f4e:	4a04      	ldr	r2, [pc, #16]	; (403f60 <_sbrk+0x18>)
  403f50:	601a      	str	r2, [r3, #0]
  403f52:	681a      	ldr	r2, [r3, #0]
  403f54:	1810      	adds	r0, r2, r0
  403f56:	6018      	str	r0, [r3, #0]
  403f58:	4610      	mov	r0, r2
  403f5a:	4770      	bx	lr
  403f5c:	20001004 	.word	0x20001004
  403f60:	20003748 	.word	0x20003748

00403f64 <_close>:
  403f64:	f04f 30ff 	mov.w	r0, #4294967295
  403f68:	4770      	bx	lr

00403f6a <_fstat>:
  403f6a:	f44f 5300 	mov.w	r3, #8192	; 0x2000
  403f6e:	604b      	str	r3, [r1, #4]
  403f70:	2000      	movs	r0, #0
  403f72:	4770      	bx	lr

00403f74 <_isatty>:
  403f74:	2001      	movs	r0, #1
  403f76:	4770      	bx	lr

00403f78 <_lseek>:
  403f78:	2000      	movs	r0, #0
  403f7a:	4770      	bx	lr

00403f7c <_exit>:
  403f7c:	b508      	push	{r3, lr}
  403f7e:	4601      	mov	r1, r0
  403f80:	4b01      	ldr	r3, [pc, #4]	; (403f88 <_exit+0xc>)
  403f82:	4802      	ldr	r0, [pc, #8]	; (403f8c <_exit+0x10>)
  403f84:	4798      	blx	r3
  403f86:	e7fe      	b.n	403f86 <_exit+0xa>
  403f88:	00405b53 	.word	0x00405b53
  403f8c:	0040a257 	.word	0x0040a257

00403f90 <_kill>:
  403f90:	4770      	bx	lr

00403f92 <_getpid>:
  403f92:	f04f 30ff 	mov.w	r0, #4294967295
  403f96:	4770      	bx	lr

00403f98 <disk_initialize>:
  403f98:	2801      	cmp	r0, #1
  403f9a:	b538      	push	{r3, r4, r5, lr}
  403f9c:	4604      	mov	r4, r0
  403f9e:	d901      	bls.n	403fa4 <disk_initialize+0xc>
  403fa0:	2001      	movs	r0, #1
  403fa2:	bd38      	pop	{r3, r4, r5, pc}
  403fa4:	4d07      	ldr	r5, [pc, #28]	; (403fc4 <disk_initialize+0x2c>)
  403fa6:	47a8      	blx	r5
  403fa8:	2803      	cmp	r0, #3
  403faa:	d101      	bne.n	403fb0 <disk_initialize+0x18>
  403fac:	4620      	mov	r0, r4
  403fae:	47a8      	blx	r5
  403fb0:	2800      	cmp	r0, #0
  403fb2:	d1f5      	bne.n	403fa0 <disk_initialize+0x8>
  403fb4:	4620      	mov	r0, r4
  403fb6:	4b04      	ldr	r3, [pc, #16]	; (403fc8 <disk_initialize+0x30>)
  403fb8:	4798      	blx	r3
  403fba:	2800      	cmp	r0, #0
  403fbc:	bf14      	ite	ne
  403fbe:	2004      	movne	r0, #4
  403fc0:	2000      	moveq	r0, #0
  403fc2:	bd38      	pop	{r3, r4, r5, pc}
  403fc4:	00401635 	.word	0x00401635
  403fc8:	00401669 	.word	0x00401669

00403fcc <disk_status>:
  403fcc:	b508      	push	{r3, lr}
  403fce:	4b04      	ldr	r3, [pc, #16]	; (403fe0 <disk_status+0x14>)
  403fd0:	4798      	blx	r3
  403fd2:	2802      	cmp	r0, #2
  403fd4:	d802      	bhi.n	403fdc <disk_status+0x10>
  403fd6:	4b03      	ldr	r3, [pc, #12]	; (403fe4 <disk_status+0x18>)
  403fd8:	5c18      	ldrb	r0, [r3, r0]
  403fda:	bd08      	pop	{r3, pc}
  403fdc:	2001      	movs	r0, #1
  403fde:	bd08      	pop	{r3, pc}
  403fe0:	00401635 	.word	0x00401635
  403fe4:	0040a270 	.word	0x0040a270

00403fe8 <disk_read>:
  403fe8:	e92d 47f3 	stmdb	sp!, {r0, r1, r4, r5, r6, r7, r8, r9, sl, lr}
  403fec:	461f      	mov	r7, r3
  403fee:	4b15      	ldr	r3, [pc, #84]	; (404044 <disk_read+0x5c>)
  403ff0:	4680      	mov	r8, r0
  403ff2:	4689      	mov	r9, r1
  403ff4:	4614      	mov	r4, r2
  403ff6:	4798      	blx	r3
  403ff8:	4605      	mov	r5, r0
  403ffa:	b908      	cbnz	r0, 404000 <disk_read+0x18>
  403ffc:	2001      	movs	r0, #1
  403ffe:	e01f      	b.n	404040 <disk_read+0x58>
  404000:	4b11      	ldr	r3, [pc, #68]	; (404048 <disk_read+0x60>)
  404002:	4640      	mov	r0, r8
  404004:	a901      	add	r1, sp, #4
  404006:	4798      	blx	r3
  404008:	9b01      	ldr	r3, [sp, #4]
  40400a:	fb05 4207 	mla	r2, r5, r7, r4
  40400e:	3301      	adds	r3, #1
  404010:	436b      	muls	r3, r5
  404012:	429a      	cmp	r2, r3
  404014:	d813      	bhi.n	40403e <disk_read+0x56>
  404016:	ea4f 2a45 	mov.w	sl, r5, lsl #9
  40401a:	2600      	movs	r6, #0
  40401c:	ebc4 0909 	rsb	r9, r4, r9
  404020:	4d0a      	ldr	r5, [pc, #40]	; (40404c <disk_read+0x64>)
  404022:	e008      	b.n	404036 <disk_read+0x4e>
  404024:	4621      	mov	r1, r4
  404026:	eb09 0204 	add.w	r2, r9, r4
  40402a:	4640      	mov	r0, r8
  40402c:	47a8      	blx	r5
  40402e:	4454      	add	r4, sl
  404030:	2800      	cmp	r0, #0
  404032:	d1e3      	bne.n	403ffc <disk_read+0x14>
  404034:	3601      	adds	r6, #1
  404036:	42be      	cmp	r6, r7
  404038:	d3f4      	bcc.n	404024 <disk_read+0x3c>
  40403a:	2000      	movs	r0, #0
  40403c:	e000      	b.n	404040 <disk_read+0x58>
  40403e:	2004      	movs	r0, #4
  404040:	e8bd 87fc 	ldmia.w	sp!, {r2, r3, r4, r5, r6, r7, r8, r9, sl, pc}
  404044:	0040165d 	.word	0x0040165d
  404048:	00401649 	.word	0x00401649
  40404c:	0040167d 	.word	0x0040167d

00404050 <disk_write>:
  404050:	e92d 47f3 	stmdb	sp!, {r0, r1, r4, r5, r6, r7, r8, r9, sl, lr}
  404054:	461f      	mov	r7, r3
  404056:	4b15      	ldr	r3, [pc, #84]	; (4040ac <disk_write+0x5c>)
  404058:	4680      	mov	r8, r0
  40405a:	4689      	mov	r9, r1
  40405c:	4614      	mov	r4, r2
  40405e:	4798      	blx	r3
  404060:	4605      	mov	r5, r0
  404062:	b908      	cbnz	r0, 404068 <disk_write+0x18>
  404064:	2001      	movs	r0, #1
  404066:	e01f      	b.n	4040a8 <disk_write+0x58>
  404068:	4b11      	ldr	r3, [pc, #68]	; (4040b0 <disk_write+0x60>)
  40406a:	4640      	mov	r0, r8
  40406c:	a901      	add	r1, sp, #4
  40406e:	4798      	blx	r3
  404070:	9b01      	ldr	r3, [sp, #4]
  404072:	fb05 4207 	mla	r2, r5, r7, r4
  404076:	3301      	adds	r3, #1
  404078:	436b      	muls	r3, r5
  40407a:	429a      	cmp	r2, r3
  40407c:	d813      	bhi.n	4040a6 <disk_write+0x56>
  40407e:	ea4f 2a45 	mov.w	sl, r5, lsl #9
  404082:	2600      	movs	r6, #0
  404084:	ebc4 0909 	rsb	r9, r4, r9
  404088:	4d0a      	ldr	r5, [pc, #40]	; (4040b4 <disk_write+0x64>)
  40408a:	e008      	b.n	40409e <disk_write+0x4e>
  40408c:	4621      	mov	r1, r4
  40408e:	eb09 0204 	add.w	r2, r9, r4
  404092:	4640      	mov	r0, r8
  404094:	47a8      	blx	r5
  404096:	4454      	add	r4, sl
  404098:	2800      	cmp	r0, #0
  40409a:	d1e3      	bne.n	404064 <disk_write+0x14>
  40409c:	3601      	adds	r6, #1
  40409e:	42be      	cmp	r6, r7
  4040a0:	d3f4      	bcc.n	40408c <disk_write+0x3c>
  4040a2:	2000      	movs	r0, #0
  4040a4:	e000      	b.n	4040a8 <disk_write+0x58>
  4040a6:	2004      	movs	r0, #4
  4040a8:	e8bd 87fc 	ldmia.w	sp!, {r2, r3, r4, r5, r6, r7, r8, r9, sl, pc}
  4040ac:	0040165d 	.word	0x0040165d
  4040b0:	00401649 	.word	0x00401649
  4040b4:	00401695 	.word	0x00401695

004040b8 <disk_ioctl>:
  4040b8:	b513      	push	{r0, r1, r4, lr}
  4040ba:	4614      	mov	r4, r2
  4040bc:	2903      	cmp	r1, #3
  4040be:	d821      	bhi.n	404104 <disk_ioctl+0x4c>
  4040c0:	e8df f001 	tbb	[pc, r1]
  4040c4:	020c0419 	.word	0x020c0419
  4040c8:	2301      	movs	r3, #1
  4040ca:	e004      	b.n	4040d6 <disk_ioctl+0x1e>
  4040cc:	4b0f      	ldr	r3, [pc, #60]	; (40410c <disk_ioctl+0x54>)
  4040ce:	a901      	add	r1, sp, #4
  4040d0:	4798      	blx	r3
  4040d2:	9b01      	ldr	r3, [sp, #4]
  4040d4:	3301      	adds	r3, #1
  4040d6:	6023      	str	r3, [r4, #0]
  4040d8:	2000      	movs	r0, #0
  4040da:	e016      	b.n	40410a <disk_ioctl+0x52>
  4040dc:	4b0c      	ldr	r3, [pc, #48]	; (404110 <disk_ioctl+0x58>)
  4040de:	4798      	blx	r3
  4040e0:	1e43      	subs	r3, r0, #1
  4040e2:	b2db      	uxtb	r3, r3
  4040e4:	2b01      	cmp	r3, #1
  4040e6:	d903      	bls.n	4040f0 <disk_ioctl+0x38>
  4040e8:	2804      	cmp	r0, #4
  4040ea:	d001      	beq.n	4040f0 <disk_ioctl+0x38>
  4040ec:	2808      	cmp	r0, #8
  4040ee:	d10b      	bne.n	404108 <disk_ioctl+0x50>
  4040f0:	2000      	movs	r0, #0
  4040f2:	7020      	strb	r0, [r4, #0]
  4040f4:	e009      	b.n	40410a <disk_ioctl+0x52>
  4040f6:	4b07      	ldr	r3, [pc, #28]	; (404114 <disk_ioctl+0x5c>)
  4040f8:	4798      	blx	r3
  4040fa:	2800      	cmp	r0, #0
  4040fc:	bf14      	ite	ne
  4040fe:	2003      	movne	r0, #3
  404100:	2000      	moveq	r0, #0
  404102:	e002      	b.n	40410a <disk_ioctl+0x52>
  404104:	2004      	movs	r0, #4
  404106:	e000      	b.n	40410a <disk_ioctl+0x52>
  404108:	2001      	movs	r0, #1
  40410a:	bd1c      	pop	{r2, r3, r4, pc}
  40410c:	00401649 	.word	0x00401649
  404110:	0040165d 	.word	0x0040165d
  404114:	00401635 	.word	0x00401635

00404118 <get_fattime>:
  404118:	b530      	push	{r4, r5, lr}
  40411a:	4c12      	ldr	r4, [pc, #72]	; (404164 <get_fattime+0x4c>)
  40411c:	b08b      	sub	sp, #44	; 0x2c
  40411e:	4620      	mov	r0, r4
  404120:	a903      	add	r1, sp, #12
  404122:	aa04      	add	r2, sp, #16
  404124:	ab05      	add	r3, sp, #20
  404126:	4d10      	ldr	r5, [pc, #64]	; (404168 <get_fattime+0x50>)
  404128:	47a8      	blx	r5
  40412a:	ab09      	add	r3, sp, #36	; 0x24
  40412c:	9300      	str	r3, [sp, #0]
  40412e:	4620      	mov	r0, r4
  404130:	aa07      	add	r2, sp, #28
  404132:	ab08      	add	r3, sp, #32
  404134:	a906      	add	r1, sp, #24
  404136:	4c0d      	ldr	r4, [pc, #52]	; (40416c <get_fattime+0x54>)
  404138:	47a0      	blx	r4
  40413a:	9b08      	ldr	r3, [sp, #32]
  40413c:	041a      	lsls	r2, r3, #16
  40413e:	9b07      	ldr	r3, [sp, #28]
  404140:	ea42 5243 	orr.w	r2, r2, r3, lsl #21
  404144:	9b05      	ldr	r3, [sp, #20]
  404146:	431a      	orrs	r2, r3
  404148:	9b03      	ldr	r3, [sp, #12]
  40414a:	ea42 22c3 	orr.w	r2, r2, r3, lsl #11
  40414e:	9b04      	ldr	r3, [sp, #16]
  404150:	ea42 1043 	orr.w	r0, r2, r3, lsl #5
  404154:	9b06      	ldr	r3, [sp, #24]
  404156:	f2a3 73bc 	subw	r3, r3, #1980	; 0x7bc
  40415a:	ea40 6043 	orr.w	r0, r0, r3, lsl #25
  40415e:	b00b      	add	sp, #44	; 0x2c
  404160:	bd30      	pop	{r4, r5, pc}
  404162:	bf00      	nop
  404164:	400e1460 	.word	0x400e1460
  404168:	00402b31 	.word	0x00402b31
  40416c:	00402b81 	.word	0x00402b81

00404170 <mem_cpy>:
  404170:	b510      	push	{r4, lr}
  404172:	2300      	movs	r3, #0
  404174:	e002      	b.n	40417c <mem_cpy+0xc>
  404176:	5ccc      	ldrb	r4, [r1, r3]
  404178:	54c4      	strb	r4, [r0, r3]
  40417a:	3301      	adds	r3, #1
  40417c:	4293      	cmp	r3, r2
  40417e:	d1fa      	bne.n	404176 <mem_cpy+0x6>
  404180:	bd10      	pop	{r4, pc}

00404182 <clust2sect>:
  404182:	6983      	ldr	r3, [r0, #24]
  404184:	3902      	subs	r1, #2
  404186:	3b02      	subs	r3, #2
  404188:	4299      	cmp	r1, r3
  40418a:	d204      	bcs.n	404196 <clust2sect+0x14>
  40418c:	7882      	ldrb	r2, [r0, #2]
  40418e:	6a83      	ldr	r3, [r0, #40]	; 0x28
  404190:	fb02 3001 	mla	r0, r2, r1, r3
  404194:	4770      	bx	lr
  404196:	2000      	movs	r0, #0
  404198:	4770      	bx	lr

0040419a <sum_sfn>:
  40419a:	2300      	movs	r3, #0
  40419c:	b510      	push	{r4, lr}
  40419e:	4604      	mov	r4, r0
  4041a0:	4618      	mov	r0, r3
  4041a2:	0842      	lsrs	r2, r0, #1
  4041a4:	5ce1      	ldrb	r1, [r4, r3]
  4041a6:	ea42 12c0 	orr.w	r2, r2, r0, lsl #7
  4041aa:	3301      	adds	r3, #1
  4041ac:	1852      	adds	r2, r2, r1
  4041ae:	2b0b      	cmp	r3, #11
  4041b0:	f002 00ff 	and.w	r0, r2, #255	; 0xff
  4041b4:	d1f5      	bne.n	4041a2 <sum_sfn+0x8>
  4041b6:	bd10      	pop	{r4, pc}

004041b8 <move_window>:
  4041b8:	e92d 43f8 	stmdb	sp!, {r3, r4, r5, r6, r7, r8, r9, lr}
  4041bc:	6ac5      	ldr	r5, [r0, #44]	; 0x2c
  4041be:	4604      	mov	r4, r0
  4041c0:	428d      	cmp	r5, r1
  4041c2:	460e      	mov	r6, r1
  4041c4:	d102      	bne.n	4041cc <move_window+0x14>
  4041c6:	2000      	movs	r0, #0
  4041c8:	e8bd 83f8 	ldmia.w	sp!, {r3, r4, r5, r6, r7, r8, r9, pc}
  4041cc:	7903      	ldrb	r3, [r0, #4]
  4041ce:	b913      	cbnz	r3, 4041d6 <move_window+0x1e>
  4041d0:	2e00      	cmp	r6, #0
  4041d2:	d0f8      	beq.n	4041c6 <move_window+0xe>
  4041d4:	e020      	b.n	404218 <move_window+0x60>
  4041d6:	f100 0830 	add.w	r8, r0, #48	; 0x30
  4041da:	4641      	mov	r1, r8
  4041dc:	7840      	ldrb	r0, [r0, #1]
  4041de:	462a      	mov	r2, r5
  4041e0:	2301      	movs	r3, #1
  4041e2:	f8df 9050 	ldr.w	r9, [pc, #80]	; 404234 <move_window+0x7c>
  4041e6:	47c8      	blx	r9
  4041e8:	b110      	cbz	r0, 4041f0 <move_window+0x38>
  4041ea:	2001      	movs	r0, #1
  4041ec:	e8bd 83f8 	ldmia.w	sp!, {r3, r4, r5, r6, r7, r8, r9, pc}
  4041f0:	69e2      	ldr	r2, [r4, #28]
  4041f2:	6a23      	ldr	r3, [r4, #32]
  4041f4:	7120      	strb	r0, [r4, #4]
  4041f6:	18d3      	adds	r3, r2, r3
  4041f8:	429d      	cmp	r5, r3
  4041fa:	d2e9      	bcs.n	4041d0 <move_window+0x18>
  4041fc:	78e7      	ldrb	r7, [r4, #3]
  4041fe:	e008      	b.n	404212 <move_window+0x5a>
  404200:	69e3      	ldr	r3, [r4, #28]
  404202:	7860      	ldrb	r0, [r4, #1]
  404204:	18ed      	adds	r5, r5, r3
  404206:	4641      	mov	r1, r8
  404208:	462a      	mov	r2, r5
  40420a:	2301      	movs	r3, #1
  40420c:	47c8      	blx	r9
  40420e:	3f01      	subs	r7, #1
  404210:	b2ff      	uxtb	r7, r7
  404212:	2f01      	cmp	r7, #1
  404214:	d8f4      	bhi.n	404200 <move_window+0x48>
  404216:	e7db      	b.n	4041d0 <move_window+0x18>
  404218:	7860      	ldrb	r0, [r4, #1]
  40421a:	f104 0130 	add.w	r1, r4, #48	; 0x30
  40421e:	4632      	mov	r2, r6
  404220:	2301      	movs	r3, #1
  404222:	4d03      	ldr	r5, [pc, #12]	; (404230 <move_window+0x78>)
  404224:	47a8      	blx	r5
  404226:	2800      	cmp	r0, #0
  404228:	d1df      	bne.n	4041ea <move_window+0x32>
  40422a:	62e6      	str	r6, [r4, #44]	; 0x2c
  40422c:	e8bd 83f8 	ldmia.w	sp!, {r3, r4, r5, r6, r7, r8, r9, pc}
  404230:	00403fe9 	.word	0x00403fe9
  404234:	00404051 	.word	0x00404051

00404238 <sync>:
  404238:	b538      	push	{r3, r4, r5, lr}
  40423a:	2100      	movs	r1, #0
  40423c:	4b2c      	ldr	r3, [pc, #176]	; (4042f0 <sync+0xb8>)
  40423e:	4604      	mov	r4, r0
  404240:	4798      	blx	r3
  404242:	4603      	mov	r3, r0
  404244:	2800      	cmp	r0, #0
  404246:	d151      	bne.n	4042ec <sync+0xb4>
  404248:	7823      	ldrb	r3, [r4, #0]
  40424a:	2b03      	cmp	r3, #3
  40424c:	d146      	bne.n	4042dc <sync+0xa4>
  40424e:	7963      	ldrb	r3, [r4, #5]
  404250:	2b00      	cmp	r3, #0
  404252:	d043      	beq.n	4042dc <sync+0xa4>
  404254:	62e0      	str	r0, [r4, #44]	; 0x2c
  404256:	f104 0130 	add.w	r1, r4, #48	; 0x30
  40425a:	4603      	mov	r3, r0
  40425c:	540b      	strb	r3, [r1, r0]
  40425e:	3001      	adds	r0, #1
  404260:	f5b0 7f00 	cmp.w	r0, #512	; 0x200
  404264:	d1fa      	bne.n	40425c <sync+0x24>
  404266:	2355      	movs	r3, #85	; 0x55
  404268:	f884 322e 	strb.w	r3, [r4, #558]	; 0x22e
  40426c:	23aa      	movs	r3, #170	; 0xaa
  40426e:	f884 322f 	strb.w	r3, [r4, #559]	; 0x22f
  404272:	2352      	movs	r3, #82	; 0x52
  404274:	f884 3030 	strb.w	r3, [r4, #48]	; 0x30
  404278:	f884 3031 	strb.w	r3, [r4, #49]	; 0x31
  40427c:	2361      	movs	r3, #97	; 0x61
  40427e:	f884 3032 	strb.w	r3, [r4, #50]	; 0x32
  404282:	f884 3217 	strb.w	r3, [r4, #535]	; 0x217
  404286:	6923      	ldr	r3, [r4, #16]
  404288:	2241      	movs	r2, #65	; 0x41
  40428a:	f884 2033 	strb.w	r2, [r4, #51]	; 0x33
  40428e:	f884 2216 	strb.w	r2, [r4, #534]	; 0x216
  404292:	f3c3 2207 	ubfx	r2, r3, #8, #8
  404296:	f884 3218 	strb.w	r3, [r4, #536]	; 0x218
  40429a:	f884 2219 	strb.w	r2, [r4, #537]	; 0x219
  40429e:	0c1a      	lsrs	r2, r3, #16
  4042a0:	0e1b      	lsrs	r3, r3, #24
  4042a2:	f884 321b 	strb.w	r3, [r4, #539]	; 0x21b
  4042a6:	68e3      	ldr	r3, [r4, #12]
  4042a8:	f884 221a 	strb.w	r2, [r4, #538]	; 0x21a
  4042ac:	f3c3 2207 	ubfx	r2, r3, #8, #8
  4042b0:	2072      	movs	r0, #114	; 0x72
  4042b2:	f884 321c 	strb.w	r3, [r4, #540]	; 0x21c
  4042b6:	f884 221d 	strb.w	r2, [r4, #541]	; 0x21d
  4042ba:	0c1a      	lsrs	r2, r3, #16
  4042bc:	0e1b      	lsrs	r3, r3, #24
  4042be:	f884 0214 	strb.w	r0, [r4, #532]	; 0x214
  4042c2:	f884 0215 	strb.w	r0, [r4, #533]	; 0x215
  4042c6:	f884 221e 	strb.w	r2, [r4, #542]	; 0x21e
  4042ca:	f884 321f 	strb.w	r3, [r4, #543]	; 0x21f
  4042ce:	7860      	ldrb	r0, [r4, #1]
  4042d0:	2301      	movs	r3, #1
  4042d2:	6962      	ldr	r2, [r4, #20]
  4042d4:	4d07      	ldr	r5, [pc, #28]	; (4042f4 <sync+0xbc>)
  4042d6:	47a8      	blx	r5
  4042d8:	2300      	movs	r3, #0
  4042da:	7163      	strb	r3, [r4, #5]
  4042dc:	2100      	movs	r1, #0
  4042de:	4b06      	ldr	r3, [pc, #24]	; (4042f8 <sync+0xc0>)
  4042e0:	7860      	ldrb	r0, [r4, #1]
  4042e2:	460a      	mov	r2, r1
  4042e4:	4798      	blx	r3
  4042e6:	1c03      	adds	r3, r0, #0
  4042e8:	bf18      	it	ne
  4042ea:	2301      	movne	r3, #1
  4042ec:	4618      	mov	r0, r3
  4042ee:	bd38      	pop	{r3, r4, r5, pc}
  4042f0:	004041b9 	.word	0x004041b9
  4042f4:	00404051 	.word	0x00404051
  4042f8:	004040b9 	.word	0x004040b9

004042fc <validate>:
  4042fc:	b508      	push	{r3, lr}
  4042fe:	b168      	cbz	r0, 40431c <validate+0x20>
  404300:	7803      	ldrb	r3, [r0, #0]
  404302:	b15b      	cbz	r3, 40431c <validate+0x20>
  404304:	88c3      	ldrh	r3, [r0, #6]
  404306:	428b      	cmp	r3, r1
  404308:	d108      	bne.n	40431c <validate+0x20>
  40430a:	4b05      	ldr	r3, [pc, #20]	; (404320 <validate+0x24>)
  40430c:	7840      	ldrb	r0, [r0, #1]
  40430e:	4798      	blx	r3
  404310:	f010 0f01 	tst.w	r0, #1
  404314:	bf0c      	ite	eq
  404316:	2000      	moveq	r0, #0
  404318:	2003      	movne	r0, #3
  40431a:	bd08      	pop	{r3, pc}
  40431c:	2009      	movs	r0, #9
  40431e:	bd08      	pop	{r3, pc}
  404320:	00403fcd 	.word	0x00403fcd

00404324 <check_fs>:
  404324:	b538      	push	{r3, r4, r5, lr}
  404326:	4604      	mov	r4, r0
  404328:	460a      	mov	r2, r1
  40432a:	7840      	ldrb	r0, [r0, #1]
  40432c:	f104 0130 	add.w	r1, r4, #48	; 0x30
  404330:	2301      	movs	r3, #1
  404332:	4d1c      	ldr	r5, [pc, #112]	; (4043a4 <check_fs+0x80>)
  404334:	47a8      	blx	r5
  404336:	bb80      	cbnz	r0, 40439a <check_fs+0x76>
  404338:	f894 322e 	ldrb.w	r3, [r4, #558]	; 0x22e
  40433c:	f894 222f 	ldrb.w	r2, [r4, #559]	; 0x22f
  404340:	ea43 2202 	orr.w	r2, r3, r2, lsl #8
  404344:	4b18      	ldr	r3, [pc, #96]	; (4043a8 <check_fs+0x84>)
  404346:	b212      	sxth	r2, r2
  404348:	429a      	cmp	r2, r3
  40434a:	d128      	bne.n	40439e <check_fs+0x7a>
  40434c:	f894 2068 	ldrb.w	r2, [r4, #104]	; 0x68
  404350:	f894 3069 	ldrb.w	r3, [r4, #105]	; 0x69
  404354:	0412      	lsls	r2, r2, #16
  404356:	ea42 6203 	orr.w	r2, r2, r3, lsl #24
  40435a:	f894 3066 	ldrb.w	r3, [r4, #102]	; 0x66
  40435e:	431a      	orrs	r2, r3
  404360:	f894 3067 	ldrb.w	r3, [r4, #103]	; 0x67
  404364:	ea42 2203 	orr.w	r2, r2, r3, lsl #8
  404368:	4b10      	ldr	r3, [pc, #64]	; (4043ac <check_fs+0x88>)
  40436a:	f022 427f 	bic.w	r2, r2, #4278190080	; 0xff000000
  40436e:	429a      	cmp	r2, r3
  404370:	d016      	beq.n	4043a0 <check_fs+0x7c>
  404372:	f894 0084 	ldrb.w	r0, [r4, #132]	; 0x84
  404376:	f894 2085 	ldrb.w	r2, [r4, #133]	; 0x85
  40437a:	0400      	lsls	r0, r0, #16
  40437c:	ea40 6002 	orr.w	r0, r0, r2, lsl #24
  404380:	f894 2082 	ldrb.w	r2, [r4, #130]	; 0x82
  404384:	4310      	orrs	r0, r2
  404386:	f894 2083 	ldrb.w	r2, [r4, #131]	; 0x83
  40438a:	ea40 2002 	orr.w	r0, r0, r2, lsl #8
  40438e:	f020 407f 	bic.w	r0, r0, #4278190080	; 0xff000000
  404392:	1ac0      	subs	r0, r0, r3
  404394:	bf18      	it	ne
  404396:	2001      	movne	r0, #1
  404398:	bd38      	pop	{r3, r4, r5, pc}
  40439a:	2003      	movs	r0, #3
  40439c:	bd38      	pop	{r3, r4, r5, pc}
  40439e:	2002      	movs	r0, #2
  4043a0:	bd38      	pop	{r3, r4, r5, pc}
  4043a2:	bf00      	nop
  4043a4:	00403fe9 	.word	0x00403fe9
  4043a8:	ffffaa55 	.word	0xffffaa55
  4043ac:	00544146 	.word	0x00544146

004043b0 <chk_mounted>:
  4043b0:	e92d 41f0 	stmdb	sp!, {r4, r5, r6, r7, r8, lr}
  4043b4:	6803      	ldr	r3, [r0, #0]
  4043b6:	4615      	mov	r5, r2
  4043b8:	781a      	ldrb	r2, [r3, #0]
  4043ba:	3a30      	subs	r2, #48	; 0x30
  4043bc:	2a09      	cmp	r2, #9
  4043be:	d904      	bls.n	4043ca <chk_mounted+0x1a>
  4043c0:	4bb6      	ldr	r3, [pc, #728]	; (40469c <chk_mounted+0x2ec>)
  4043c2:	681c      	ldr	r4, [r3, #0]
  4043c4:	600c      	str	r4, [r1, #0]
  4043c6:	b94c      	cbnz	r4, 4043dc <chk_mounted+0x2c>
  4043c8:	e159      	b.n	40467e <chk_mounted+0x2ce>
  4043ca:	785c      	ldrb	r4, [r3, #1]
  4043cc:	2c3a      	cmp	r4, #58	; 0x3a
  4043ce:	d1f7      	bne.n	4043c0 <chk_mounted+0x10>
  4043d0:	3302      	adds	r3, #2
  4043d2:	6003      	str	r3, [r0, #0]
  4043d4:	2a00      	cmp	r2, #0
  4043d6:	f040 8155 	bne.w	404684 <chk_mounted+0x2d4>
  4043da:	e7f1      	b.n	4043c0 <chk_mounted+0x10>
  4043dc:	7823      	ldrb	r3, [r4, #0]
  4043de:	b183      	cbz	r3, 404402 <chk_mounted+0x52>
  4043e0:	7860      	ldrb	r0, [r4, #1]
  4043e2:	4baf      	ldr	r3, [pc, #700]	; (4046a0 <chk_mounted+0x2f0>)
  4043e4:	4798      	blx	r3
  4043e6:	07c1      	lsls	r1, r0, #31
  4043e8:	d40b      	bmi.n	404402 <chk_mounted+0x52>
  4043ea:	2d00      	cmp	r5, #0
  4043ec:	f000 814d 	beq.w	40468a <chk_mounted+0x2da>
  4043f0:	f000 0004 	and.w	r0, r0, #4
  4043f4:	b2c0      	uxtb	r0, r0
  4043f6:	2800      	cmp	r0, #0
  4043f8:	bf14      	ite	ne
  4043fa:	200a      	movne	r0, #10
  4043fc:	2000      	moveq	r0, #0
  4043fe:	e8bd 81f0 	ldmia.w	sp!, {r4, r5, r6, r7, r8, pc}
  404402:	2000      	movs	r0, #0
  404404:	7020      	strb	r0, [r4, #0]
  404406:	7060      	strb	r0, [r4, #1]
  404408:	4ba6      	ldr	r3, [pc, #664]	; (4046a4 <chk_mounted+0x2f4>)
  40440a:	4798      	blx	r3
  40440c:	07c2      	lsls	r2, r0, #31
  40440e:	f100 813f 	bmi.w	404690 <chk_mounted+0x2e0>
  404412:	b12d      	cbz	r5, 404420 <chk_mounted+0x70>
  404414:	f000 0004 	and.w	r0, r0, #4
  404418:	b2c0      	uxtb	r0, r0
  40441a:	2800      	cmp	r0, #0
  40441c:	f040 813b 	bne.w	404696 <chk_mounted+0x2e6>
  404420:	2100      	movs	r1, #0
  404422:	4620      	mov	r0, r4
  404424:	4da0      	ldr	r5, [pc, #640]	; (4046a8 <chk_mounted+0x2f8>)
  404426:	47a8      	blx	r5
  404428:	2801      	cmp	r0, #1
  40442a:	d117      	bne.n	40445c <chk_mounted+0xac>
  40442c:	f894 31f2 	ldrb.w	r3, [r4, #498]	; 0x1f2
  404430:	b913      	cbnz	r3, 404438 <chk_mounted+0x88>
  404432:	200d      	movs	r0, #13
  404434:	e8bd 81f0 	ldmia.w	sp!, {r4, r5, r6, r7, r8, pc}
  404438:	f894 61f8 	ldrb.w	r6, [r4, #504]	; 0x1f8
  40443c:	f894 31f9 	ldrb.w	r3, [r4, #505]	; 0x1f9
  404440:	0436      	lsls	r6, r6, #16
  404442:	ea46 6603 	orr.w	r6, r6, r3, lsl #24
  404446:	f894 31f6 	ldrb.w	r3, [r4, #502]	; 0x1f6
  40444a:	4620      	mov	r0, r4
  40444c:	431e      	orrs	r6, r3
  40444e:	f894 31f7 	ldrb.w	r3, [r4, #503]	; 0x1f7
  404452:	ea46 2603 	orr.w	r6, r6, r3, lsl #8
  404456:	4631      	mov	r1, r6
  404458:	47a8      	blx	r5
  40445a:	e000      	b.n	40445e <chk_mounted+0xae>
  40445c:	2600      	movs	r6, #0
  40445e:	2803      	cmp	r0, #3
  404460:	f000 812e 	beq.w	4046c0 <chk_mounted+0x310>
  404464:	2800      	cmp	r0, #0
  404466:	d1e4      	bne.n	404432 <chk_mounted+0x82>
  404468:	f894 203c 	ldrb.w	r2, [r4, #60]	; 0x3c
  40446c:	f894 303b 	ldrb.w	r3, [r4, #59]	; 0x3b
  404470:	ea43 2302 	orr.w	r3, r3, r2, lsl #8
  404474:	f5b3 7f00 	cmp.w	r3, #512	; 0x200
  404478:	d1db      	bne.n	404432 <chk_mounted+0x82>
  40447a:	f894 1047 	ldrb.w	r1, [r4, #71]	; 0x47
  40447e:	f894 3046 	ldrb.w	r3, [r4, #70]	; 0x46
  404482:	ea53 2101 	orrs.w	r1, r3, r1, lsl #8
  404486:	d10d      	bne.n	4044a4 <chk_mounted+0xf4>
  404488:	f894 1056 	ldrb.w	r1, [r4, #86]	; 0x56
  40448c:	f894 3057 	ldrb.w	r3, [r4, #87]	; 0x57
  404490:	0409      	lsls	r1, r1, #16
  404492:	ea41 6103 	orr.w	r1, r1, r3, lsl #24
  404496:	f894 3054 	ldrb.w	r3, [r4, #84]	; 0x54
  40449a:	4319      	orrs	r1, r3
  40449c:	f894 3055 	ldrb.w	r3, [r4, #85]	; 0x55
  4044a0:	ea41 2103 	orr.w	r1, r1, r3, lsl #8
  4044a4:	f894 5040 	ldrb.w	r5, [r4, #64]	; 0x40
  4044a8:	61e1      	str	r1, [r4, #28]
  4044aa:	1e6b      	subs	r3, r5, #1
  4044ac:	2b01      	cmp	r3, #1
  4044ae:	70e5      	strb	r5, [r4, #3]
  4044b0:	d8bf      	bhi.n	404432 <chk_mounted+0x82>
  4044b2:	f894 203d 	ldrb.w	r2, [r4, #61]	; 0x3d
  4044b6:	70a2      	strb	r2, [r4, #2]
  4044b8:	2a00      	cmp	r2, #0
  4044ba:	d0ba      	beq.n	404432 <chk_mounted+0x82>
  4044bc:	1e53      	subs	r3, r2, #1
  4044be:	4213      	tst	r3, r2
  4044c0:	d1b7      	bne.n	404432 <chk_mounted+0x82>
  4044c2:	f894 0042 	ldrb.w	r0, [r4, #66]	; 0x42
  4044c6:	f894 3041 	ldrb.w	r3, [r4, #65]	; 0x41
  4044ca:	ea43 2300 	orr.w	r3, r3, r0, lsl #8
  4044ce:	b298      	uxth	r0, r3
  4044d0:	071b      	lsls	r3, r3, #28
  4044d2:	8120      	strh	r0, [r4, #8]
  4044d4:	d1ad      	bne.n	404432 <chk_mounted+0x82>
  4044d6:	f894 7044 	ldrb.w	r7, [r4, #68]	; 0x44
  4044da:	f894 3043 	ldrb.w	r3, [r4, #67]	; 0x43
  4044de:	ea53 2307 	orrs.w	r3, r3, r7, lsl #8
  4044e2:	d10d      	bne.n	404500 <chk_mounted+0x150>
  4044e4:	f894 3052 	ldrb.w	r3, [r4, #82]	; 0x52
  4044e8:	f894 7053 	ldrb.w	r7, [r4, #83]	; 0x53
  4044ec:	041b      	lsls	r3, r3, #16
  4044ee:	ea43 6307 	orr.w	r3, r3, r7, lsl #24
  4044f2:	f894 7050 	ldrb.w	r7, [r4, #80]	; 0x50
  4044f6:	433b      	orrs	r3, r7
  4044f8:	f894 7051 	ldrb.w	r7, [r4, #81]	; 0x51
  4044fc:	ea43 2307 	orr.w	r3, r3, r7, lsl #8
  404500:	f894 803f 	ldrb.w	r8, [r4, #63]	; 0x3f
  404504:	f894 703e 	ldrb.w	r7, [r4, #62]	; 0x3e
  404508:	ea57 2808 	orrs.w	r8, r7, r8, lsl #8
  40450c:	d091      	beq.n	404432 <chk_mounted+0x82>
  40450e:	fb05 fc01 	mul.w	ip, r5, r1
  404512:	eb08 1710 	add.w	r7, r8, r0, lsr #4
  404516:	4467      	add	r7, ip
  404518:	42bb      	cmp	r3, r7
  40451a:	d38a      	bcc.n	404432 <chk_mounted+0x82>
  40451c:	1bdb      	subs	r3, r3, r7
  40451e:	fbb3 f3f2 	udiv	r3, r3, r2
  404522:	2b00      	cmp	r3, #0
  404524:	d085      	beq.n	404432 <chk_mounted+0x82>
  404526:	f640 72f5 	movw	r2, #4085	; 0xff5
  40452a:	4293      	cmp	r3, r2
  40452c:	d906      	bls.n	40453c <chk_mounted+0x18c>
  40452e:	f64f 75f5 	movw	r5, #65525	; 0xfff5
  404532:	42ab      	cmp	r3, r5
  404534:	bf8c      	ite	hi
  404536:	2503      	movhi	r5, #3
  404538:	2502      	movls	r5, #2
  40453a:	e000      	b.n	40453e <chk_mounted+0x18e>
  40453c:	2501      	movs	r5, #1
  40453e:	3302      	adds	r3, #2
  404540:	19bf      	adds	r7, r7, r6
  404542:	eb06 0208 	add.w	r2, r6, r8
  404546:	2d03      	cmp	r5, #3
  404548:	61a3      	str	r3, [r4, #24]
  40454a:	62a7      	str	r7, [r4, #40]	; 0x28
  40454c:	6222      	str	r2, [r4, #32]
  40454e:	d113      	bne.n	404578 <chk_mounted+0x1c8>
  404550:	2800      	cmp	r0, #0
  404552:	f47f af6e 	bne.w	404432 <chk_mounted+0x82>
  404556:	f894 205e 	ldrb.w	r2, [r4, #94]	; 0x5e
  40455a:	f894 005f 	ldrb.w	r0, [r4, #95]	; 0x5f
  40455e:	0412      	lsls	r2, r2, #16
  404560:	ea42 6200 	orr.w	r2, r2, r0, lsl #24
  404564:	f894 005c 	ldrb.w	r0, [r4, #92]	; 0x5c
  404568:	009b      	lsls	r3, r3, #2
  40456a:	4302      	orrs	r2, r0
  40456c:	f894 005d 	ldrb.w	r0, [r4, #93]	; 0x5d
  404570:	ea42 2200 	orr.w	r2, r2, r0, lsl #8
  404574:	6262      	str	r2, [r4, #36]	; 0x24
  404576:	e00e      	b.n	404596 <chk_mounted+0x1e6>
  404578:	2800      	cmp	r0, #0
  40457a:	f43f af5a 	beq.w	404432 <chk_mounted+0x82>
  40457e:	4462      	add	r2, ip
  404580:	2d02      	cmp	r5, #2
  404582:	6262      	str	r2, [r4, #36]	; 0x24
  404584:	d101      	bne.n	40458a <chk_mounted+0x1da>
  404586:	005b      	lsls	r3, r3, #1
  404588:	e005      	b.n	404596 <chk_mounted+0x1e6>
  40458a:	2203      	movs	r2, #3
  40458c:	435a      	muls	r2, r3
  40458e:	f003 0301 	and.w	r3, r3, #1
  404592:	eb03 0352 	add.w	r3, r3, r2, lsr #1
  404596:	f203 13ff 	addw	r3, r3, #511	; 0x1ff
  40459a:	ebb1 2f53 	cmp.w	r1, r3, lsr #9
  40459e:	f4ff af48 	bcc.w	404432 <chk_mounted+0x82>
  4045a2:	f04f 33ff 	mov.w	r3, #4294967295
  4045a6:	6123      	str	r3, [r4, #16]
  4045a8:	2300      	movs	r3, #0
  4045aa:	2d03      	cmp	r5, #3
  4045ac:	60e3      	str	r3, [r4, #12]
  4045ae:	d15a      	bne.n	404666 <chk_mounted+0x2b6>
  4045b0:	7163      	strb	r3, [r4, #5]
  4045b2:	f894 2061 	ldrb.w	r2, [r4, #97]	; 0x61
  4045b6:	f894 3060 	ldrb.w	r3, [r4, #96]	; 0x60
  4045ba:	7860      	ldrb	r0, [r4, #1]
  4045bc:	ea43 2202 	orr.w	r2, r3, r2, lsl #8
  4045c0:	18b2      	adds	r2, r6, r2
  4045c2:	6162      	str	r2, [r4, #20]
  4045c4:	f104 0130 	add.w	r1, r4, #48	; 0x30
  4045c8:	2301      	movs	r3, #1
  4045ca:	4e38      	ldr	r6, [pc, #224]	; (4046ac <chk_mounted+0x2fc>)
  4045cc:	47b0      	blx	r6
  4045ce:	2800      	cmp	r0, #0
  4045d0:	d149      	bne.n	404666 <chk_mounted+0x2b6>
  4045d2:	f894 322e 	ldrb.w	r3, [r4, #558]	; 0x22e
  4045d6:	f894 222f 	ldrb.w	r2, [r4, #559]	; 0x22f
  4045da:	ea43 2202 	orr.w	r2, r3, r2, lsl #8
  4045de:	4b34      	ldr	r3, [pc, #208]	; (4046b0 <chk_mounted+0x300>)
  4045e0:	b212      	sxth	r2, r2
  4045e2:	429a      	cmp	r2, r3
  4045e4:	d13f      	bne.n	404666 <chk_mounted+0x2b6>
  4045e6:	f894 2032 	ldrb.w	r2, [r4, #50]	; 0x32
  4045ea:	f894 3033 	ldrb.w	r3, [r4, #51]	; 0x33
  4045ee:	0412      	lsls	r2, r2, #16
  4045f0:	ea42 6203 	orr.w	r2, r2, r3, lsl #24
  4045f4:	f894 3030 	ldrb.w	r3, [r4, #48]	; 0x30
  4045f8:	431a      	orrs	r2, r3
  4045fa:	f894 3031 	ldrb.w	r3, [r4, #49]	; 0x31
  4045fe:	ea42 2203 	orr.w	r2, r2, r3, lsl #8
  404602:	4b2c      	ldr	r3, [pc, #176]	; (4046b4 <chk_mounted+0x304>)
  404604:	429a      	cmp	r2, r3
  404606:	d12e      	bne.n	404666 <chk_mounted+0x2b6>
  404608:	f894 2216 	ldrb.w	r2, [r4, #534]	; 0x216
  40460c:	f894 3217 	ldrb.w	r3, [r4, #535]	; 0x217
  404610:	0412      	lsls	r2, r2, #16
  404612:	ea42 6203 	orr.w	r2, r2, r3, lsl #24
  404616:	f894 3214 	ldrb.w	r3, [r4, #532]	; 0x214
  40461a:	431a      	orrs	r2, r3
  40461c:	f894 3215 	ldrb.w	r3, [r4, #533]	; 0x215
  404620:	ea42 2203 	orr.w	r2, r2, r3, lsl #8
  404624:	4b24      	ldr	r3, [pc, #144]	; (4046b8 <chk_mounted+0x308>)
  404626:	429a      	cmp	r2, r3
  404628:	d11d      	bne.n	404666 <chk_mounted+0x2b6>
  40462a:	f894 321e 	ldrb.w	r3, [r4, #542]	; 0x21e
  40462e:	f894 221f 	ldrb.w	r2, [r4, #543]	; 0x21f
  404632:	041b      	lsls	r3, r3, #16
  404634:	ea43 6302 	orr.w	r3, r3, r2, lsl #24
  404638:	f894 221c 	ldrb.w	r2, [r4, #540]	; 0x21c
  40463c:	4313      	orrs	r3, r2
  40463e:	f894 221d 	ldrb.w	r2, [r4, #541]	; 0x21d
  404642:	ea43 2302 	orr.w	r3, r3, r2, lsl #8
  404646:	60e3      	str	r3, [r4, #12]
  404648:	f894 321a 	ldrb.w	r3, [r4, #538]	; 0x21a
  40464c:	f894 221b 	ldrb.w	r2, [r4, #539]	; 0x21b
  404650:	041b      	lsls	r3, r3, #16
  404652:	ea43 6302 	orr.w	r3, r3, r2, lsl #24
  404656:	f894 2218 	ldrb.w	r2, [r4, #536]	; 0x218
  40465a:	4313      	orrs	r3, r2
  40465c:	f894 2219 	ldrb.w	r2, [r4, #537]	; 0x219
  404660:	ea43 2302 	orr.w	r3, r3, r2, lsl #8
  404664:	6123      	str	r3, [r4, #16]
  404666:	4a15      	ldr	r2, [pc, #84]	; (4046bc <chk_mounted+0x30c>)
  404668:	2000      	movs	r0, #0
  40466a:	8813      	ldrh	r3, [r2, #0]
  40466c:	7025      	strb	r5, [r4, #0]
  40466e:	3301      	adds	r3, #1
  404670:	b29b      	uxth	r3, r3
  404672:	8013      	strh	r3, [r2, #0]
  404674:	80e3      	strh	r3, [r4, #6]
  404676:	62e0      	str	r0, [r4, #44]	; 0x2c
  404678:	7120      	strb	r0, [r4, #4]
  40467a:	e8bd 81f0 	ldmia.w	sp!, {r4, r5, r6, r7, r8, pc}
  40467e:	200c      	movs	r0, #12
  404680:	e8bd 81f0 	ldmia.w	sp!, {r4, r5, r6, r7, r8, pc}
  404684:	200b      	movs	r0, #11
  404686:	e8bd 81f0 	ldmia.w	sp!, {r4, r5, r6, r7, r8, pc}
  40468a:	4628      	mov	r0, r5
  40468c:	e8bd 81f0 	ldmia.w	sp!, {r4, r5, r6, r7, r8, pc}
  404690:	2003      	movs	r0, #3
  404692:	e8bd 81f0 	ldmia.w	sp!, {r4, r5, r6, r7, r8, pc}
  404696:	200a      	movs	r0, #10
  404698:	e8bd 81f0 	ldmia.w	sp!, {r4, r5, r6, r7, r8, pc}
  40469c:	2000100c 	.word	0x2000100c
  4046a0:	00403fcd 	.word	0x00403fcd
  4046a4:	00403f99 	.word	0x00403f99
  4046a8:	00404325 	.word	0x00404325
  4046ac:	00403fe9 	.word	0x00403fe9
  4046b0:	ffffaa55 	.word	0xffffaa55
  4046b4:	41615252 	.word	0x41615252
  4046b8:	61417272 	.word	0x61417272
  4046bc:	20001008 	.word	0x20001008
  4046c0:	2001      	movs	r0, #1
  4046c2:	e8bd 81f0 	ldmia.w	sp!, {r4, r5, r6, r7, r8, pc}
  4046c6:	bf00      	nop

004046c8 <get_fat>:
  4046c8:	2901      	cmp	r1, #1
  4046ca:	e92d 41f0 	stmdb	sp!, {r4, r5, r6, r7, r8, lr}
  4046ce:	4604      	mov	r4, r0
  4046d0:	460d      	mov	r5, r1
  4046d2:	d95f      	bls.n	404794 <get_fat+0xcc>
  4046d4:	6983      	ldr	r3, [r0, #24]
  4046d6:	4299      	cmp	r1, r3
  4046d8:	d25c      	bcs.n	404794 <get_fat+0xcc>
  4046da:	7803      	ldrb	r3, [r0, #0]
  4046dc:	2b02      	cmp	r3, #2
  4046de:	d029      	beq.n	404734 <get_fat+0x6c>
  4046e0:	2b03      	cmp	r3, #3
  4046e2:	d038      	beq.n	404756 <get_fat+0x8e>
  4046e4:	2b01      	cmp	r3, #1
  4046e6:	d151      	bne.n	40478c <get_fat+0xc4>
  4046e8:	eb01 0651 	add.w	r6, r1, r1, lsr #1
  4046ec:	6a01      	ldr	r1, [r0, #32]
  4046ee:	4f2b      	ldr	r7, [pc, #172]	; (40479c <get_fat+0xd4>)
  4046f0:	eb01 2156 	add.w	r1, r1, r6, lsr #9
  4046f4:	47b8      	blx	r7
  4046f6:	b100      	cbz	r0, 4046fa <get_fat+0x32>
  4046f8:	e048      	b.n	40478c <get_fat+0xc4>
  4046fa:	6a21      	ldr	r1, [r4, #32]
  4046fc:	05f3      	lsls	r3, r6, #23
  4046fe:	3601      	adds	r6, #1
  404700:	eb04 53d3 	add.w	r3, r4, r3, lsr #23
  404704:	4620      	mov	r0, r4
  404706:	eb01 2156 	add.w	r1, r1, r6, lsr #9
  40470a:	f893 8030 	ldrb.w	r8, [r3, #48]	; 0x30
  40470e:	47b8      	blx	r7
  404710:	2800      	cmp	r0, #0
  404712:	d13b      	bne.n	40478c <get_fat+0xc4>
  404714:	05f6      	lsls	r6, r6, #23
  404716:	eb04 54d6 	add.w	r4, r4, r6, lsr #23
  40471a:	f894 0030 	ldrb.w	r0, [r4, #48]	; 0x30
  40471e:	07eb      	lsls	r3, r5, #31
  404720:	ea48 2000 	orr.w	r0, r8, r0, lsl #8
  404724:	d502      	bpl.n	40472c <get_fat+0x64>
  404726:	0900      	lsrs	r0, r0, #4
  404728:	e8bd 81f0 	ldmia.w	sp!, {r4, r5, r6, r7, r8, pc}
  40472c:	0500      	lsls	r0, r0, #20
  40472e:	0d00      	lsrs	r0, r0, #20
  404730:	e8bd 81f0 	ldmia.w	sp!, {r4, r5, r6, r7, r8, pc}
  404734:	6a01      	ldr	r1, [r0, #32]
  404736:	4b19      	ldr	r3, [pc, #100]	; (40479c <get_fat+0xd4>)
  404738:	eb01 2115 	add.w	r1, r1, r5, lsr #8
  40473c:	4798      	blx	r3
  40473e:	bb28      	cbnz	r0, 40478c <get_fat+0xc4>
  404740:	062d      	lsls	r5, r5, #24
  404742:	eb04 54d5 	add.w	r4, r4, r5, lsr #23
  404746:	f894 0031 	ldrb.w	r0, [r4, #49]	; 0x31
  40474a:	f894 3030 	ldrb.w	r3, [r4, #48]	; 0x30
  40474e:	ea43 2000 	orr.w	r0, r3, r0, lsl #8
  404752:	e8bd 81f0 	ldmia.w	sp!, {r4, r5, r6, r7, r8, pc}
  404756:	6a01      	ldr	r1, [r0, #32]
  404758:	4b10      	ldr	r3, [pc, #64]	; (40479c <get_fat+0xd4>)
  40475a:	eb01 11d5 	add.w	r1, r1, r5, lsr #7
  40475e:	4798      	blx	r3
  404760:	b9a0      	cbnz	r0, 40478c <get_fat+0xc4>
  404762:	066d      	lsls	r5, r5, #25
  404764:	eb04 54d5 	add.w	r4, r4, r5, lsr #23
  404768:	f894 0032 	ldrb.w	r0, [r4, #50]	; 0x32
  40476c:	f894 3033 	ldrb.w	r3, [r4, #51]	; 0x33
  404770:	0400      	lsls	r0, r0, #16
  404772:	ea40 6003 	orr.w	r0, r0, r3, lsl #24
  404776:	f894 3030 	ldrb.w	r3, [r4, #48]	; 0x30
  40477a:	4318      	orrs	r0, r3
  40477c:	f894 3031 	ldrb.w	r3, [r4, #49]	; 0x31
  404780:	ea40 2003 	orr.w	r0, r0, r3, lsl #8
  404784:	f020 4070 	bic.w	r0, r0, #4026531840	; 0xf0000000
  404788:	e8bd 81f0 	ldmia.w	sp!, {r4, r5, r6, r7, r8, pc}
  40478c:	f04f 30ff 	mov.w	r0, #4294967295
  404790:	e8bd 81f0 	ldmia.w	sp!, {r4, r5, r6, r7, r8, pc}
  404794:	2001      	movs	r0, #1
  404796:	e8bd 81f0 	ldmia.w	sp!, {r4, r5, r6, r7, r8, pc}
  40479a:	bf00      	nop
  40479c:	004041b9 	.word	0x004041b9

004047a0 <dir_sdi>:
  4047a0:	b5f8      	push	{r3, r4, r5, r6, r7, lr}
  4047a2:	4604      	mov	r4, r0
  4047a4:	460d      	mov	r5, r1
  4047a6:	80e1      	strh	r1, [r4, #6]
  4047a8:	6881      	ldr	r1, [r0, #8]
  4047aa:	2901      	cmp	r1, #1
  4047ac:	d101      	bne.n	4047b2 <dir_sdi+0x12>
  4047ae:	2002      	movs	r0, #2
  4047b0:	bdf8      	pop	{r3, r4, r5, r6, r7, pc}
  4047b2:	6803      	ldr	r3, [r0, #0]
  4047b4:	699a      	ldr	r2, [r3, #24]
  4047b6:	4291      	cmp	r1, r2
  4047b8:	d2f9      	bcs.n	4047ae <dir_sdi+0xe>
  4047ba:	b971      	cbnz	r1, 4047da <dir_sdi+0x3a>
  4047bc:	781a      	ldrb	r2, [r3, #0]
  4047be:	2a03      	cmp	r2, #3
  4047c0:	d101      	bne.n	4047c6 <dir_sdi+0x26>
  4047c2:	6a59      	ldr	r1, [r3, #36]	; 0x24
  4047c4:	b949      	cbnz	r1, 4047da <dir_sdi+0x3a>
  4047c6:	2200      	movs	r2, #0
  4047c8:	60e2      	str	r2, [r4, #12]
  4047ca:	891a      	ldrh	r2, [r3, #8]
  4047cc:	42aa      	cmp	r2, r5
  4047ce:	d9ee      	bls.n	4047ae <dir_sdi+0xe>
  4047d0:	6a5b      	ldr	r3, [r3, #36]	; 0x24
  4047d2:	eb03 1315 	add.w	r3, r3, r5, lsr #4
  4047d6:	6123      	str	r3, [r4, #16]
  4047d8:	e019      	b.n	40480e <dir_sdi+0x6e>
  4047da:	789e      	ldrb	r6, [r3, #2]
  4047dc:	4f11      	ldr	r7, [pc, #68]	; (404824 <dir_sdi+0x84>)
  4047de:	0136      	lsls	r6, r6, #4
  4047e0:	e00c      	b.n	4047fc <dir_sdi+0x5c>
  4047e2:	6820      	ldr	r0, [r4, #0]
  4047e4:	47b8      	blx	r7
  4047e6:	1c42      	adds	r2, r0, #1
  4047e8:	4601      	mov	r1, r0
  4047ea:	d019      	beq.n	404820 <dir_sdi+0x80>
  4047ec:	2801      	cmp	r0, #1
  4047ee:	d9de      	bls.n	4047ae <dir_sdi+0xe>
  4047f0:	6823      	ldr	r3, [r4, #0]
  4047f2:	699b      	ldr	r3, [r3, #24]
  4047f4:	4298      	cmp	r0, r3
  4047f6:	d2da      	bcs.n	4047ae <dir_sdi+0xe>
  4047f8:	1bad      	subs	r5, r5, r6
  4047fa:	b2ad      	uxth	r5, r5
  4047fc:	42b5      	cmp	r5, r6
  4047fe:	d2f0      	bcs.n	4047e2 <dir_sdi+0x42>
  404800:	60e1      	str	r1, [r4, #12]
  404802:	6820      	ldr	r0, [r4, #0]
  404804:	4b08      	ldr	r3, [pc, #32]	; (404828 <dir_sdi+0x88>)
  404806:	4798      	blx	r3
  404808:	eb00 1015 	add.w	r0, r0, r5, lsr #4
  40480c:	6120      	str	r0, [r4, #16]
  40480e:	f005 050f 	and.w	r5, r5, #15
  404812:	016d      	lsls	r5, r5, #5
  404814:	6823      	ldr	r3, [r4, #0]
  404816:	3530      	adds	r5, #48	; 0x30
  404818:	195b      	adds	r3, r3, r5
  40481a:	6163      	str	r3, [r4, #20]
  40481c:	2000      	movs	r0, #0
  40481e:	bdf8      	pop	{r3, r4, r5, r6, r7, pc}
  404820:	2001      	movs	r0, #1
  404822:	bdf8      	pop	{r3, r4, r5, r6, r7, pc}
  404824:	004046c9 	.word	0x004046c9
  404828:	00404183 	.word	0x00404183

0040482c <put_fat>:
  40482c:	2901      	cmp	r1, #1
  40482e:	b5f8      	push	{r3, r4, r5, r6, r7, lr}
  404830:	4604      	mov	r4, r0
  404832:	460d      	mov	r5, r1
  404834:	4616      	mov	r6, r2
  404836:	d970      	bls.n	40491a <put_fat+0xee>
  404838:	6983      	ldr	r3, [r0, #24]
  40483a:	4299      	cmp	r1, r3
  40483c:	d26d      	bcs.n	40491a <put_fat+0xee>
  40483e:	7803      	ldrb	r3, [r0, #0]
  404840:	2b02      	cmp	r3, #2
  404842:	d03a      	beq.n	4048ba <put_fat+0x8e>
  404844:	2b03      	cmp	r3, #3
  404846:	d048      	beq.n	4048da <put_fat+0xae>
  404848:	2b01      	cmp	r3, #1
  40484a:	d162      	bne.n	404912 <put_fat+0xe6>
  40484c:	eb01 0751 	add.w	r7, r1, r1, lsr #1
  404850:	6a01      	ldr	r1, [r0, #32]
  404852:	4b33      	ldr	r3, [pc, #204]	; (404920 <put_fat+0xf4>)
  404854:	eb01 2157 	add.w	r1, r1, r7, lsr #9
  404858:	4798      	blx	r3
  40485a:	2800      	cmp	r0, #0
  40485c:	d15a      	bne.n	404914 <put_fat+0xe8>
  40485e:	05fa      	lsls	r2, r7, #23
  404860:	0dd2      	lsrs	r2, r2, #23
  404862:	f015 0501 	ands.w	r5, r5, #1
  404866:	b2f3      	uxtb	r3, r6
  404868:	d007      	beq.n	40487a <put_fat+0x4e>
  40486a:	18a1      	adds	r1, r4, r2
  40486c:	f891 1030 	ldrb.w	r1, [r1, #48]	; 0x30
  404870:	f001 010f 	and.w	r1, r1, #15
  404874:	ea41 1303 	orr.w	r3, r1, r3, lsl #4
  404878:	b2db      	uxtb	r3, r3
  40487a:	18a2      	adds	r2, r4, r2
  40487c:	6a21      	ldr	r1, [r4, #32]
  40487e:	f882 3030 	strb.w	r3, [r2, #48]	; 0x30
  404882:	3701      	adds	r7, #1
  404884:	2301      	movs	r3, #1
  404886:	7123      	strb	r3, [r4, #4]
  404888:	4620      	mov	r0, r4
  40488a:	eb01 2157 	add.w	r1, r1, r7, lsr #9
  40488e:	4b24      	ldr	r3, [pc, #144]	; (404920 <put_fat+0xf4>)
  404890:	4798      	blx	r3
  404892:	2800      	cmp	r0, #0
  404894:	d13e      	bne.n	404914 <put_fat+0xe8>
  404896:	05ff      	lsls	r7, r7, #23
  404898:	0dff      	lsrs	r7, r7, #23
  40489a:	b115      	cbz	r5, 4048a2 <put_fat+0x76>
  40489c:	f3c6 1607 	ubfx	r6, r6, #4, #8
  4048a0:	e007      	b.n	4048b2 <put_fat+0x86>
  4048a2:	19e3      	adds	r3, r4, r7
  4048a4:	f893 3030 	ldrb.w	r3, [r3, #48]	; 0x30
  4048a8:	f3c6 2603 	ubfx	r6, r6, #8, #4
  4048ac:	f023 030f 	bic.w	r3, r3, #15
  4048b0:	431e      	orrs	r6, r3
  4048b2:	19e7      	adds	r7, r4, r7
  4048b4:	f887 6030 	strb.w	r6, [r7, #48]	; 0x30
  4048b8:	e02c      	b.n	404914 <put_fat+0xe8>
  4048ba:	6a01      	ldr	r1, [r0, #32]
  4048bc:	4b18      	ldr	r3, [pc, #96]	; (404920 <put_fat+0xf4>)
  4048be:	eb01 2115 	add.w	r1, r1, r5, lsr #8
  4048c2:	4798      	blx	r3
  4048c4:	bb30      	cbnz	r0, 404914 <put_fat+0xe8>
  4048c6:	062d      	lsls	r5, r5, #24
  4048c8:	eb04 55d5 	add.w	r5, r4, r5, lsr #23
  4048cc:	f885 6030 	strb.w	r6, [r5, #48]	; 0x30
  4048d0:	f3c6 2607 	ubfx	r6, r6, #8, #8
  4048d4:	f885 6031 	strb.w	r6, [r5, #49]	; 0x31
  4048d8:	e01c      	b.n	404914 <put_fat+0xe8>
  4048da:	6a01      	ldr	r1, [r0, #32]
  4048dc:	4b10      	ldr	r3, [pc, #64]	; (404920 <put_fat+0xf4>)
  4048de:	eb01 11d5 	add.w	r1, r1, r5, lsr #7
  4048e2:	4798      	blx	r3
  4048e4:	b9b0      	cbnz	r0, 404914 <put_fat+0xe8>
  4048e6:	066d      	lsls	r5, r5, #25
  4048e8:	eb04 55d5 	add.w	r5, r4, r5, lsr #23
  4048ec:	f895 3033 	ldrb.w	r3, [r5, #51]	; 0x33
  4048f0:	061b      	lsls	r3, r3, #24
  4048f2:	f003 4370 	and.w	r3, r3, #4026531840	; 0xf0000000
  4048f6:	431e      	orrs	r6, r3
  4048f8:	f3c6 2307 	ubfx	r3, r6, #8, #8
  4048fc:	f885 6030 	strb.w	r6, [r5, #48]	; 0x30
  404900:	f885 3031 	strb.w	r3, [r5, #49]	; 0x31
  404904:	0c33      	lsrs	r3, r6, #16
  404906:	0e36      	lsrs	r6, r6, #24
  404908:	f885 3032 	strb.w	r3, [r5, #50]	; 0x32
  40490c:	f885 6033 	strb.w	r6, [r5, #51]	; 0x33
  404910:	e000      	b.n	404914 <put_fat+0xe8>
  404912:	2002      	movs	r0, #2
  404914:	2301      	movs	r3, #1
  404916:	7123      	strb	r3, [r4, #4]
  404918:	bdf8      	pop	{r3, r4, r5, r6, r7, pc}
  40491a:	2002      	movs	r0, #2
  40491c:	bdf8      	pop	{r3, r4, r5, r6, r7, pc}
  40491e:	bf00      	nop
  404920:	004041b9 	.word	0x004041b9

00404924 <create_chain>:
  404924:	e92d 41f0 	stmdb	sp!, {r4, r5, r6, r7, r8, lr}
  404928:	4605      	mov	r5, r0
  40492a:	460f      	mov	r7, r1
  40492c:	b931      	cbnz	r1, 40493c <create_chain+0x18>
  40492e:	68c6      	ldr	r6, [r0, #12]
  404930:	b176      	cbz	r6, 404950 <create_chain+0x2c>
  404932:	6983      	ldr	r3, [r0, #24]
  404934:	429e      	cmp	r6, r3
  404936:	bf28      	it	cs
  404938:	2601      	movcs	r6, #1
  40493a:	e00a      	b.n	404952 <create_chain+0x2e>
  40493c:	4b23      	ldr	r3, [pc, #140]	; (4049cc <create_chain+0xa8>)
  40493e:	4798      	blx	r3
  404940:	2801      	cmp	r0, #1
  404942:	d800      	bhi.n	404946 <create_chain+0x22>
  404944:	e03e      	b.n	4049c4 <create_chain+0xa0>
  404946:	69ab      	ldr	r3, [r5, #24]
  404948:	4298      	cmp	r0, r3
  40494a:	d33c      	bcc.n	4049c6 <create_chain+0xa2>
  40494c:	463e      	mov	r6, r7
  40494e:	e000      	b.n	404952 <create_chain+0x2e>
  404950:	2601      	movs	r6, #1
  404952:	f8df 8078 	ldr.w	r8, [pc, #120]	; 4049cc <create_chain+0xa8>
  404956:	4634      	mov	r4, r6
  404958:	69ab      	ldr	r3, [r5, #24]
  40495a:	3401      	adds	r4, #1
  40495c:	429c      	cmp	r4, r3
  40495e:	d305      	bcc.n	40496c <create_chain+0x48>
  404960:	2e01      	cmp	r6, #1
  404962:	d802      	bhi.n	40496a <create_chain+0x46>
  404964:	2000      	movs	r0, #0
  404966:	e8bd 81f0 	ldmia.w	sp!, {r4, r5, r6, r7, r8, pc}
  40496a:	2402      	movs	r4, #2
  40496c:	4628      	mov	r0, r5
  40496e:	4621      	mov	r1, r4
  404970:	47c0      	blx	r8
  404972:	b150      	cbz	r0, 40498a <create_chain+0x66>
  404974:	1c43      	adds	r3, r0, #1
  404976:	d103      	bne.n	404980 <create_chain+0x5c>
  404978:	f04f 30ff 	mov.w	r0, #4294967295
  40497c:	e8bd 81f0 	ldmia.w	sp!, {r4, r5, r6, r7, r8, pc}
  404980:	2801      	cmp	r0, #1
  404982:	d01f      	beq.n	4049c4 <create_chain+0xa0>
  404984:	42b4      	cmp	r4, r6
  404986:	d1e7      	bne.n	404958 <create_chain+0x34>
  404988:	e7ec      	b.n	404964 <create_chain+0x40>
  40498a:	4628      	mov	r0, r5
  40498c:	4621      	mov	r1, r4
  40498e:	f06f 4270 	mvn.w	r2, #4026531840	; 0xf0000000
  404992:	4e0f      	ldr	r6, [pc, #60]	; (4049d0 <create_chain+0xac>)
  404994:	47b0      	blx	r6
  404996:	b998      	cbnz	r0, 4049c0 <create_chain+0x9c>
  404998:	b927      	cbnz	r7, 4049a4 <create_chain+0x80>
  40499a:	692b      	ldr	r3, [r5, #16]
  40499c:	60ec      	str	r4, [r5, #12]
  40499e:	1c59      	adds	r1, r3, #1
  4049a0:	d107      	bne.n	4049b2 <create_chain+0x8e>
  4049a2:	e00a      	b.n	4049ba <create_chain+0x96>
  4049a4:	4628      	mov	r0, r5
  4049a6:	4639      	mov	r1, r7
  4049a8:	4622      	mov	r2, r4
  4049aa:	47b0      	blx	r6
  4049ac:	2800      	cmp	r0, #0
  4049ae:	d0f4      	beq.n	40499a <create_chain+0x76>
  4049b0:	e006      	b.n	4049c0 <create_chain+0x9c>
  4049b2:	3b01      	subs	r3, #1
  4049b4:	612b      	str	r3, [r5, #16]
  4049b6:	2301      	movs	r3, #1
  4049b8:	716b      	strb	r3, [r5, #5]
  4049ba:	4620      	mov	r0, r4
  4049bc:	e8bd 81f0 	ldmia.w	sp!, {r4, r5, r6, r7, r8, pc}
  4049c0:	2801      	cmp	r0, #1
  4049c2:	d0d9      	beq.n	404978 <create_chain+0x54>
  4049c4:	2001      	movs	r0, #1
  4049c6:	e8bd 81f0 	ldmia.w	sp!, {r4, r5, r6, r7, r8, pc}
  4049ca:	bf00      	nop
  4049cc:	004046c9 	.word	0x004046c9
  4049d0:	0040482d 	.word	0x0040482d

004049d4 <remove_chain>:
  4049d4:	2901      	cmp	r1, #1
  4049d6:	e92d 43f8 	stmdb	sp!, {r3, r4, r5, r6, r7, r8, r9, lr}
  4049da:	4604      	mov	r4, r0
  4049dc:	460d      	mov	r5, r1
  4049de:	d929      	bls.n	404a34 <remove_chain+0x60>
  4049e0:	6983      	ldr	r3, [r0, #24]
  4049e2:	4299      	cmp	r1, r3
  4049e4:	d226      	bcs.n	404a34 <remove_chain+0x60>
  4049e6:	e019      	b.n	404a1c <remove_chain+0x48>
  4049e8:	4620      	mov	r0, r4
  4049ea:	4629      	mov	r1, r5
  4049ec:	47b8      	blx	r7
  4049ee:	4606      	mov	r6, r0
  4049f0:	b910      	cbnz	r0, 4049f8 <remove_chain+0x24>
  4049f2:	2000      	movs	r0, #0
  4049f4:	e8bd 83f8 	ldmia.w	sp!, {r3, r4, r5, r6, r7, r8, r9, pc}
  4049f8:	2801      	cmp	r0, #1
  4049fa:	d01b      	beq.n	404a34 <remove_chain+0x60>
  4049fc:	1c41      	adds	r1, r0, #1
  4049fe:	d016      	beq.n	404a2e <remove_chain+0x5a>
  404a00:	4620      	mov	r0, r4
  404a02:	4629      	mov	r1, r5
  404a04:	2200      	movs	r2, #0
  404a06:	47c0      	blx	r8
  404a08:	b9a8      	cbnz	r0, 404a36 <remove_chain+0x62>
  404a0a:	6923      	ldr	r3, [r4, #16]
  404a0c:	1c5a      	adds	r2, r3, #1
  404a0e:	d003      	beq.n	404a18 <remove_chain+0x44>
  404a10:	3301      	adds	r3, #1
  404a12:	6123      	str	r3, [r4, #16]
  404a14:	f884 9005 	strb.w	r9, [r4, #5]
  404a18:	4635      	mov	r5, r6
  404a1a:	e004      	b.n	404a26 <remove_chain+0x52>
  404a1c:	4f07      	ldr	r7, [pc, #28]	; (404a3c <remove_chain+0x68>)
  404a1e:	f8df 8020 	ldr.w	r8, [pc, #32]	; 404a40 <remove_chain+0x6c>
  404a22:	f04f 0901 	mov.w	r9, #1
  404a26:	69a3      	ldr	r3, [r4, #24]
  404a28:	429d      	cmp	r5, r3
  404a2a:	d3dd      	bcc.n	4049e8 <remove_chain+0x14>
  404a2c:	e7e1      	b.n	4049f2 <remove_chain+0x1e>
  404a2e:	2001      	movs	r0, #1
  404a30:	e8bd 83f8 	ldmia.w	sp!, {r3, r4, r5, r6, r7, r8, r9, pc}
  404a34:	2002      	movs	r0, #2
  404a36:	e8bd 83f8 	ldmia.w	sp!, {r3, r4, r5, r6, r7, r8, r9, pc}
  404a3a:	bf00      	nop
  404a3c:	004046c9 	.word	0x004046c9
  404a40:	0040482d 	.word	0x0040482d

00404a44 <dir_next>:
  404a44:	e92d 47f0 	stmdb	sp!, {r4, r5, r6, r7, r8, r9, sl, lr}
  404a48:	88c6      	ldrh	r6, [r0, #6]
  404a4a:	4604      	mov	r4, r0
  404a4c:	3601      	adds	r6, #1
  404a4e:	b2b6      	uxth	r6, r6
  404a50:	460f      	mov	r7, r1
  404a52:	b916      	cbnz	r6, 404a5a <dir_next+0x16>
  404a54:	2004      	movs	r0, #4
  404a56:	e8bd 87f0 	ldmia.w	sp!, {r4, r5, r6, r7, r8, r9, sl, pc}
  404a5a:	6903      	ldr	r3, [r0, #16]
  404a5c:	2b00      	cmp	r3, #0
  404a5e:	d0f9      	beq.n	404a54 <dir_next+0x10>
  404a60:	f016 080f 	ands.w	r8, r6, #15
  404a64:	d15e      	bne.n	404b24 <dir_next+0xe0>
  404a66:	68c1      	ldr	r1, [r0, #12]
  404a68:	3301      	adds	r3, #1
  404a6a:	6103      	str	r3, [r0, #16]
  404a6c:	6800      	ldr	r0, [r0, #0]
  404a6e:	b919      	cbnz	r1, 404a78 <dir_next+0x34>
  404a70:	8903      	ldrh	r3, [r0, #8]
  404a72:	42b3      	cmp	r3, r6
  404a74:	d9ee      	bls.n	404a54 <dir_next+0x10>
  404a76:	e055      	b.n	404b24 <dir_next+0xe0>
  404a78:	7882      	ldrb	r2, [r0, #2]
  404a7a:	3a01      	subs	r2, #1
  404a7c:	ea12 1216 	ands.w	r2, r2, r6, lsr #4
  404a80:	d150      	bne.n	404b24 <dir_next+0xe0>
  404a82:	4b2f      	ldr	r3, [pc, #188]	; (404b40 <dir_next+0xfc>)
  404a84:	4798      	blx	r3
  404a86:	2801      	cmp	r0, #1
  404a88:	4605      	mov	r5, r0
  404a8a:	d802      	bhi.n	404a92 <dir_next+0x4e>
  404a8c:	2002      	movs	r0, #2
  404a8e:	e8bd 87f0 	ldmia.w	sp!, {r4, r5, r6, r7, r8, r9, sl, pc}
  404a92:	1c43      	adds	r3, r0, #1
  404a94:	d102      	bne.n	404a9c <dir_next+0x58>
  404a96:	2001      	movs	r0, #1
  404a98:	e8bd 87f0 	ldmia.w	sp!, {r4, r5, r6, r7, r8, r9, sl, pc}
  404a9c:	6820      	ldr	r0, [r4, #0]
  404a9e:	6983      	ldr	r3, [r0, #24]
  404aa0:	429d      	cmp	r5, r3
  404aa2:	d339      	bcc.n	404b18 <dir_next+0xd4>
  404aa4:	2f00      	cmp	r7, #0
  404aa6:	d0d5      	beq.n	404a54 <dir_next+0x10>
  404aa8:	68e1      	ldr	r1, [r4, #12]
  404aaa:	4b26      	ldr	r3, [pc, #152]	; (404b44 <dir_next+0x100>)
  404aac:	4798      	blx	r3
  404aae:	4605      	mov	r5, r0
  404ab0:	2800      	cmp	r0, #0
  404ab2:	d042      	beq.n	404b3a <dir_next+0xf6>
  404ab4:	2801      	cmp	r0, #1
  404ab6:	d0e9      	beq.n	404a8c <dir_next+0x48>
  404ab8:	3001      	adds	r0, #1
  404aba:	d0ec      	beq.n	404a96 <dir_next+0x52>
  404abc:	6820      	ldr	r0, [r4, #0]
  404abe:	2100      	movs	r1, #0
  404ac0:	4b21      	ldr	r3, [pc, #132]	; (404b48 <dir_next+0x104>)
  404ac2:	4798      	blx	r3
  404ac4:	2800      	cmp	r0, #0
  404ac6:	d1e6      	bne.n	404a96 <dir_next+0x52>
  404ac8:	6823      	ldr	r3, [r4, #0]
  404aca:	4602      	mov	r2, r0
  404acc:	3330      	adds	r3, #48	; 0x30
  404ace:	541a      	strb	r2, [r3, r0]
  404ad0:	3001      	adds	r0, #1
  404ad2:	f5b0 7f00 	cmp.w	r0, #512	; 0x200
  404ad6:	d1fa      	bne.n	404ace <dir_next+0x8a>
  404ad8:	6827      	ldr	r7, [r4, #0]
  404ada:	4629      	mov	r1, r5
  404adc:	4638      	mov	r0, r7
  404ade:	4b1b      	ldr	r3, [pc, #108]	; (404b4c <dir_next+0x108>)
  404ae0:	4798      	blx	r3
  404ae2:	f04f 0a01 	mov.w	sl, #1
  404ae6:	62f8      	str	r0, [r7, #44]	; 0x2c
  404ae8:	f8df 905c 	ldr.w	r9, [pc, #92]	; 404b48 <dir_next+0x104>
  404aec:	2700      	movs	r7, #0
  404aee:	e00c      	b.n	404b0a <dir_next+0xc6>
  404af0:	f883 a004 	strb.w	sl, [r3, #4]
  404af4:	6820      	ldr	r0, [r4, #0]
  404af6:	2100      	movs	r1, #0
  404af8:	47c8      	blx	r9
  404afa:	2800      	cmp	r0, #0
  404afc:	d1cb      	bne.n	404a96 <dir_next+0x52>
  404afe:	6823      	ldr	r3, [r4, #0]
  404b00:	3701      	adds	r7, #1
  404b02:	6ada      	ldr	r2, [r3, #44]	; 0x2c
  404b04:	b2ff      	uxtb	r7, r7
  404b06:	3201      	adds	r2, #1
  404b08:	62da      	str	r2, [r3, #44]	; 0x2c
  404b0a:	6823      	ldr	r3, [r4, #0]
  404b0c:	789a      	ldrb	r2, [r3, #2]
  404b0e:	42ba      	cmp	r2, r7
  404b10:	d8ee      	bhi.n	404af0 <dir_next+0xac>
  404b12:	6ada      	ldr	r2, [r3, #44]	; 0x2c
  404b14:	1bd7      	subs	r7, r2, r7
  404b16:	62df      	str	r7, [r3, #44]	; 0x2c
  404b18:	60e5      	str	r5, [r4, #12]
  404b1a:	6820      	ldr	r0, [r4, #0]
  404b1c:	4629      	mov	r1, r5
  404b1e:	4b0b      	ldr	r3, [pc, #44]	; (404b4c <dir_next+0x108>)
  404b20:	4798      	blx	r3
  404b22:	6120      	str	r0, [r4, #16]
  404b24:	6823      	ldr	r3, [r4, #0]
  404b26:	ea4f 1848 	mov.w	r8, r8, lsl #5
  404b2a:	f108 0830 	add.w	r8, r8, #48	; 0x30
  404b2e:	4443      	add	r3, r8
  404b30:	80e6      	strh	r6, [r4, #6]
  404b32:	6163      	str	r3, [r4, #20]
  404b34:	2000      	movs	r0, #0
  404b36:	e8bd 87f0 	ldmia.w	sp!, {r4, r5, r6, r7, r8, r9, sl, pc}
  404b3a:	2007      	movs	r0, #7
  404b3c:	e8bd 87f0 	ldmia.w	sp!, {r4, r5, r6, r7, r8, r9, sl, pc}
  404b40:	004046c9 	.word	0x004046c9
  404b44:	00404925 	.word	0x00404925
  404b48:	004041b9 	.word	0x004041b9
  404b4c:	00404183 	.word	0x00404183

00404b50 <dir_find.part.4>:
  404b50:	e92d 4ff7 	stmdb	sp!, {r0, r1, r2, r4, r5, r6, r7, r8, r9, sl, fp, lr}
  404b54:	f04f 09ff 	mov.w	r9, #255	; 0xff
  404b58:	4606      	mov	r6, r0
  404b5a:	464c      	mov	r4, r9
  404b5c:	6830      	ldr	r0, [r6, #0]
  404b5e:	6931      	ldr	r1, [r6, #16]
  404b60:	4b46      	ldr	r3, [pc, #280]	; (404c7c <dir_find.part.4+0x12c>)
  404b62:	4798      	blx	r3
  404b64:	4680      	mov	r8, r0
  404b66:	2800      	cmp	r0, #0
  404b68:	f040 8084 	bne.w	404c74 <dir_find.part.4+0x124>
  404b6c:	6975      	ldr	r5, [r6, #20]
  404b6e:	782f      	ldrb	r7, [r5, #0]
  404b70:	2f00      	cmp	r7, #0
  404b72:	d079      	beq.n	404c68 <dir_find.part.4+0x118>
  404b74:	7aea      	ldrb	r2, [r5, #11]
  404b76:	2fe5      	cmp	r7, #229	; 0xe5
  404b78:	f002 033f 	and.w	r3, r2, #63	; 0x3f
  404b7c:	d06a      	beq.n	404c54 <dir_find.part.4+0x104>
  404b7e:	f002 0208 	and.w	r2, r2, #8
  404b82:	b2d2      	uxtb	r2, r2
  404b84:	b112      	cbz	r2, 404b8c <dir_find.part.4+0x3c>
  404b86:	2b0f      	cmp	r3, #15
  404b88:	d164      	bne.n	404c54 <dir_find.part.4+0x104>
  404b8a:	e001      	b.n	404b90 <dir_find.part.4+0x40>
  404b8c:	2b0f      	cmp	r3, #15
  404b8e:	d14b      	bne.n	404c28 <dir_find.part.4+0xd8>
  404b90:	f8d6 a01c 	ldr.w	sl, [r6, #28]
  404b94:	f1ba 0f00 	cmp.w	sl, #0
  404b98:	d05d      	beq.n	404c56 <dir_find.part.4+0x106>
  404b9a:	f007 0340 	and.w	r3, r7, #64	; 0x40
  404b9e:	b2db      	uxtb	r3, r3
  404ba0:	b133      	cbz	r3, 404bb0 <dir_find.part.4+0x60>
  404ba2:	88f3      	ldrh	r3, [r6, #6]
  404ba4:	f895 900d 	ldrb.w	r9, [r5, #13]
  404ba8:	f007 07bf 	and.w	r7, r7, #191	; 0xbf
  404bac:	8433      	strh	r3, [r6, #32]
  404bae:	e001      	b.n	404bb4 <dir_find.part.4+0x64>
  404bb0:	42a7      	cmp	r7, r4
  404bb2:	d14f      	bne.n	404c54 <dir_find.part.4+0x104>
  404bb4:	7b6b      	ldrb	r3, [r5, #13]
  404bb6:	454b      	cmp	r3, r9
  404bb8:	d14c      	bne.n	404c54 <dir_find.part.4+0x104>
  404bba:	782b      	ldrb	r3, [r5, #0]
  404bbc:	210d      	movs	r1, #13
  404bbe:	f023 0340 	bic.w	r3, r3, #64	; 0x40
  404bc2:	3b01      	subs	r3, #1
  404bc4:	4c2e      	ldr	r4, [pc, #184]	; (404c80 <dir_find.part.4+0x130>)
  404bc6:	fb01 fb03 	mul.w	fp, r1, r3
  404bca:	f04f 0800 	mov.w	r8, #0
  404bce:	2101      	movs	r1, #1
  404bd0:	4b2c      	ldr	r3, [pc, #176]	; (404c84 <dir_find.part.4+0x134>)
  404bd2:	f818 e003 	ldrb.w	lr, [r8, r3]
  404bd6:	eb05 000e 	add.w	r0, r5, lr
  404bda:	7840      	ldrb	r0, [r0, #1]
  404bdc:	f815 e00e 	ldrb.w	lr, [r5, lr]
  404be0:	ea4e 2000 	orr.w	r0, lr, r0, lsl #8
  404be4:	b169      	cbz	r1, 404c02 <dir_find.part.4+0xb2>
  404be6:	47a0      	blx	r4
  404be8:	f1bb 0ffe 	cmp.w	fp, #254	; 0xfe
  404bec:	4601      	mov	r1, r0
  404bee:	d831      	bhi.n	404c54 <dir_find.part.4+0x104>
  404bf0:	f83a 001b 	ldrh.w	r0, [sl, fp, lsl #1]
  404bf4:	9101      	str	r1, [sp, #4]
  404bf6:	47a0      	blx	r4
  404bf8:	9901      	ldr	r1, [sp, #4]
  404bfa:	f10b 0b01 	add.w	fp, fp, #1
  404bfe:	4281      	cmp	r1, r0
  404c00:	e002      	b.n	404c08 <dir_find.part.4+0xb8>
  404c02:	f64f 73ff 	movw	r3, #65535	; 0xffff
  404c06:	4298      	cmp	r0, r3
  404c08:	d124      	bne.n	404c54 <dir_find.part.4+0x104>
  404c0a:	f108 0801 	add.w	r8, r8, #1
  404c0e:	f1b8 0f0d 	cmp.w	r8, #13
  404c12:	d1dd      	bne.n	404bd0 <dir_find.part.4+0x80>
  404c14:	7828      	ldrb	r0, [r5, #0]
  404c16:	f000 0040 	and.w	r0, r0, #64	; 0x40
  404c1a:	b2c0      	uxtb	r0, r0
  404c1c:	b338      	cbz	r0, 404c6e <dir_find.part.4+0x11e>
  404c1e:	b331      	cbz	r1, 404c6e <dir_find.part.4+0x11e>
  404c20:	f83a 301b 	ldrh.w	r3, [sl, fp, lsl #1]
  404c24:	b31b      	cbz	r3, 404c6e <dir_find.part.4+0x11e>
  404c26:	e015      	b.n	404c54 <dir_find.part.4+0x104>
  404c28:	b924      	cbnz	r4, 404c34 <dir_find.part.4+0xe4>
  404c2a:	4628      	mov	r0, r5
  404c2c:	4b16      	ldr	r3, [pc, #88]	; (404c88 <dir_find.part.4+0x138>)
  404c2e:	4798      	blx	r3
  404c30:	4581      	cmp	r9, r0
  404c32:	d01f      	beq.n	404c74 <dir_find.part.4+0x124>
  404c34:	f64f 73ff 	movw	r3, #65535	; 0xffff
  404c38:	69b2      	ldr	r2, [r6, #24]
  404c3a:	8433      	strh	r3, [r6, #32]
  404c3c:	7ad3      	ldrb	r3, [r2, #11]
  404c3e:	f013 0301 	ands.w	r3, r3, #1
  404c42:	d002      	beq.n	404c4a <dir_find.part.4+0xfa>
  404c44:	e006      	b.n	404c54 <dir_find.part.4+0x104>
  404c46:	2b0b      	cmp	r3, #11
  404c48:	d014      	beq.n	404c74 <dir_find.part.4+0x124>
  404c4a:	5ce8      	ldrb	r0, [r5, r3]
  404c4c:	5cd1      	ldrb	r1, [r2, r3]
  404c4e:	3301      	adds	r3, #1
  404c50:	4288      	cmp	r0, r1
  404c52:	d0f8      	beq.n	404c46 <dir_find.part.4+0xf6>
  404c54:	24ff      	movs	r4, #255	; 0xff
  404c56:	4630      	mov	r0, r6
  404c58:	2100      	movs	r1, #0
  404c5a:	4b0c      	ldr	r3, [pc, #48]	; (404c8c <dir_find.part.4+0x13c>)
  404c5c:	4798      	blx	r3
  404c5e:	4680      	mov	r8, r0
  404c60:	2800      	cmp	r0, #0
  404c62:	f43f af7b 	beq.w	404b5c <dir_find.part.4+0xc>
  404c66:	e005      	b.n	404c74 <dir_find.part.4+0x124>
  404c68:	f04f 0804 	mov.w	r8, #4
  404c6c:	e002      	b.n	404c74 <dir_find.part.4+0x124>
  404c6e:	1e7c      	subs	r4, r7, #1
  404c70:	b2e4      	uxtb	r4, r4
  404c72:	e7f0      	b.n	404c56 <dir_find.part.4+0x106>
  404c74:	4640      	mov	r0, r8
  404c76:	e8bd 8ffe 	ldmia.w	sp!, {r1, r2, r3, r4, r5, r6, r7, r8, r9, sl, fp, pc}
  404c7a:	bf00      	nop
  404c7c:	004041b9 	.word	0x004041b9
  404c80:	00405885 	.word	0x00405885
  404c84:	0040a303 	.word	0x0040a303
  404c88:	0040419b 	.word	0x0040419b
  404c8c:	00404a45 	.word	0x00404a45

00404c90 <follow_path>:
  404c90:	e92d 4ff7 	stmdb	sp!, {r0, r1, r2, r4, r5, r6, r7, r8, r9, sl, fp, lr}
  404c94:	780b      	ldrb	r3, [r1, #0]
  404c96:	4606      	mov	r6, r0
  404c98:	2b2f      	cmp	r3, #47	; 0x2f
  404c9a:	468a      	mov	sl, r1
  404c9c:	d001      	beq.n	404ca2 <follow_path+0x12>
  404c9e:	2b5c      	cmp	r3, #92	; 0x5c
  404ca0:	d101      	bne.n	404ca6 <follow_path+0x16>
  404ca2:	f10a 0a01 	add.w	sl, sl, #1
  404ca6:	2400      	movs	r4, #0
  404ca8:	60b4      	str	r4, [r6, #8]
  404caa:	f89a 3000 	ldrb.w	r3, [sl]
  404cae:	2b1f      	cmp	r3, #31
  404cb0:	d805      	bhi.n	404cbe <follow_path+0x2e>
  404cb2:	4630      	mov	r0, r6
  404cb4:	4621      	mov	r1, r4
  404cb6:	4b94      	ldr	r3, [pc, #592]	; (404f08 <follow_path+0x278>)
  404cb8:	4798      	blx	r3
  404cba:	6174      	str	r4, [r6, #20]
  404cbc:	e121      	b.n	404f02 <follow_path+0x272>
  404cbe:	4657      	mov	r7, sl
  404cc0:	783b      	ldrb	r3, [r7, #0]
  404cc2:	f10a 0a01 	add.w	sl, sl, #1
  404cc6:	2b2f      	cmp	r3, #47	; 0x2f
  404cc8:	d0f9      	beq.n	404cbe <follow_path+0x2e>
  404cca:	2b5c      	cmp	r3, #92	; 0x5c
  404ccc:	d0f7      	beq.n	404cbe <follow_path+0x2e>
  404cce:	f8d6 b01c 	ldr.w	fp, [r6, #28]
  404cd2:	2500      	movs	r5, #0
  404cd4:	5d78      	ldrb	r0, [r7, r5]
  404cd6:	1c6c      	adds	r4, r5, #1
  404cd8:	281f      	cmp	r0, #31
  404cda:	d91c      	bls.n	404d16 <follow_path+0x86>
  404cdc:	282f      	cmp	r0, #47	; 0x2f
  404cde:	d01a      	beq.n	404d16 <follow_path+0x86>
  404ce0:	285c      	cmp	r0, #92	; 0x5c
  404ce2:	d018      	beq.n	404d16 <follow_path+0x86>
  404ce4:	f5b4 7f80 	cmp.w	r4, #256	; 0x100
  404ce8:	f000 8104 	beq.w	404ef4 <follow_path+0x264>
  404cec:	2101      	movs	r1, #1
  404cee:	4b87      	ldr	r3, [pc, #540]	; (404f0c <follow_path+0x27c>)
  404cf0:	4798      	blx	r3
  404cf2:	2800      	cmp	r0, #0
  404cf4:	f000 80fe 	beq.w	404ef4 <follow_path+0x264>
  404cf8:	287f      	cmp	r0, #127	; 0x7f
  404cfa:	d806      	bhi.n	404d0a <follow_path+0x7a>
  404cfc:	4984      	ldr	r1, [pc, #528]	; (404f10 <follow_path+0x280>)
  404cfe:	f811 2f01 	ldrb.w	r2, [r1, #1]!
  404d02:	b112      	cbz	r2, 404d0a <follow_path+0x7a>
  404d04:	4282      	cmp	r2, r0
  404d06:	d1fa      	bne.n	404cfe <follow_path+0x6e>
  404d08:	e0f4      	b.n	404ef4 <follow_path+0x264>
  404d0a:	eb0b 0244 	add.w	r2, fp, r4, lsl #1
  404d0e:	f822 0c02 	strh.w	r0, [r2, #-2]
  404d12:	4625      	mov	r5, r4
  404d14:	e7de      	b.n	404cd4 <follow_path+0x44>
  404d16:	eb07 0a04 	add.w	sl, r7, r4
  404d1a:	eb0b 0245 	add.w	r2, fp, r5, lsl #1
  404d1e:	281f      	cmp	r0, #31
  404d20:	bf94      	ite	ls
  404d22:	2404      	movls	r4, #4
  404d24:	2400      	movhi	r4, #0
  404d26:	e007      	b.n	404d38 <follow_path+0xa8>
  404d28:	f832 1d02 	ldrh.w	r1, [r2, #-2]!
  404d2c:	2920      	cmp	r1, #32
  404d2e:	d002      	beq.n	404d36 <follow_path+0xa6>
  404d30:	292e      	cmp	r1, #46	; 0x2e
  404d32:	f040 80d1 	bne.w	404ed8 <follow_path+0x248>
  404d36:	3d01      	subs	r5, #1
  404d38:	2d00      	cmp	r5, #0
  404d3a:	d1f5      	bne.n	404d28 <follow_path+0x98>
  404d3c:	e0da      	b.n	404ef4 <follow_path+0x264>
  404d3e:	5481      	strb	r1, [r0, r2]
  404d40:	3201      	adds	r2, #1
  404d42:	2a0b      	cmp	r2, #11
  404d44:	d1fb      	bne.n	404d3e <follow_path+0xae>
  404d46:	f04f 0800 	mov.w	r8, #0
  404d4a:	e001      	b.n	404d50 <follow_path+0xc0>
  404d4c:	f108 0801 	add.w	r8, r8, #1
  404d50:	f83b 1018 	ldrh.w	r1, [fp, r8, lsl #1]
  404d54:	2920      	cmp	r1, #32
  404d56:	d0f9      	beq.n	404d4c <follow_path+0xbc>
  404d58:	292e      	cmp	r1, #46	; 0x2e
  404d5a:	d0f7      	beq.n	404d4c <follow_path+0xbc>
  404d5c:	f1b8 0f00 	cmp.w	r8, #0
  404d60:	d001      	beq.n	404d66 <follow_path+0xd6>
  404d62:	f044 0403 	orr.w	r4, r4, #3
  404d66:	463a      	mov	r2, r7
  404d68:	e008      	b.n	404d7c <follow_path+0xec>
  404d6a:	3d01      	subs	r5, #1
  404d6c:	d106      	bne.n	404d7c <follow_path+0xec>
  404d6e:	f04f 0c00 	mov.w	ip, #0
  404d72:	f04f 0908 	mov.w	r9, #8
  404d76:	4667      	mov	r7, ip
  404d78:	4a66      	ldr	r2, [pc, #408]	; (404f14 <follow_path+0x284>)
  404d7a:	e004      	b.n	404d86 <follow_path+0xf6>
  404d7c:	f832 1d02 	ldrh.w	r1, [r2, #-2]!
  404d80:	292e      	cmp	r1, #46	; 0x2e
  404d82:	d1f2      	bne.n	404d6a <follow_path+0xda>
  404d84:	e7f3      	b.n	404d6e <follow_path+0xde>
  404d86:	f83b 0018 	ldrh.w	r0, [fp, r8, lsl #1]
  404d8a:	f108 0801 	add.w	r8, r8, #1
  404d8e:	2800      	cmp	r0, #0
  404d90:	d050      	beq.n	404e34 <follow_path+0x1a4>
  404d92:	2820      	cmp	r0, #32
  404d94:	d004      	beq.n	404da0 <follow_path+0x110>
  404d96:	282e      	cmp	r0, #46	; 0x2e
  404d98:	d105      	bne.n	404da6 <follow_path+0x116>
  404d9a:	45a8      	cmp	r8, r5
  404d9c:	f000 80ac 	beq.w	404ef8 <follow_path+0x268>
  404da0:	f044 0403 	orr.w	r4, r4, #3
  404da4:	e7ef      	b.n	404d86 <follow_path+0xf6>
  404da6:	45cc      	cmp	ip, r9
  404da8:	d202      	bcs.n	404db0 <follow_path+0x120>
  404daa:	45a8      	cmp	r8, r5
  404dac:	d115      	bne.n	404dda <follow_path+0x14a>
  404dae:	e0a3      	b.n	404ef8 <follow_path+0x268>
  404db0:	f1b9 0f0b 	cmp.w	r9, #11
  404db4:	d104      	bne.n	404dc0 <follow_path+0x130>
  404db6:	f044 0403 	orr.w	r4, r4, #3
  404dba:	f04f 090b 	mov.w	r9, #11
  404dbe:	e039      	b.n	404e34 <follow_path+0x1a4>
  404dc0:	45a8      	cmp	r8, r5
  404dc2:	d002      	beq.n	404dca <follow_path+0x13a>
  404dc4:	f044 0403 	orr.w	r4, r4, #3
  404dc8:	d834      	bhi.n	404e34 <follow_path+0x1a4>
  404dca:	00bf      	lsls	r7, r7, #2
  404dcc:	b2ff      	uxtb	r7, r7
  404dce:	46a8      	mov	r8, r5
  404dd0:	f04f 090b 	mov.w	r9, #11
  404dd4:	f04f 0c08 	mov.w	ip, #8
  404dd8:	e7d5      	b.n	404d86 <follow_path+0xf6>
  404dda:	287f      	cmp	r0, #127	; 0x7f
  404ddc:	d90d      	bls.n	404dfa <follow_path+0x16a>
  404dde:	e88d 1004 	stmia.w	sp, {r2, ip}
  404de2:	2100      	movs	r1, #0
  404de4:	4b49      	ldr	r3, [pc, #292]	; (404f0c <follow_path+0x27c>)
  404de6:	4798      	blx	r3
  404de8:	e89d 1004 	ldmia.w	sp, {r2, ip}
  404dec:	b110      	cbz	r0, 404df4 <follow_path+0x164>
  404dee:	1810      	adds	r0, r2, r0
  404df0:	f810 0c80 	ldrb.w	r0, [r0, #-128]
  404df4:	f044 0402 	orr.w	r4, r4, #2
  404df8:	b130      	cbz	r0, 404e08 <follow_path+0x178>
  404dfa:	4b47      	ldr	r3, [pc, #284]	; (404f18 <follow_path+0x288>)
  404dfc:	f813 1f01 	ldrb.w	r1, [r3, #1]!
  404e00:	2900      	cmp	r1, #0
  404e02:	d071      	beq.n	404ee8 <follow_path+0x258>
  404e04:	4281      	cmp	r1, r0
  404e06:	d1f9      	bne.n	404dfc <follow_path+0x16c>
  404e08:	f044 0403 	orr.w	r4, r4, #3
  404e0c:	205f      	movs	r0, #95	; 0x5f
  404e0e:	e00b      	b.n	404e28 <follow_path+0x198>
  404e10:	f047 0702 	orr.w	r7, r7, #2
  404e14:	e008      	b.n	404e28 <follow_path+0x198>
  404e16:	f1a0 0161 	sub.w	r1, r0, #97	; 0x61
  404e1a:	b289      	uxth	r1, r1
  404e1c:	2919      	cmp	r1, #25
  404e1e:	d803      	bhi.n	404e28 <follow_path+0x198>
  404e20:	3820      	subs	r0, #32
  404e22:	f047 0701 	orr.w	r7, r7, #1
  404e26:	b280      	uxth	r0, r0
  404e28:	69b1      	ldr	r1, [r6, #24]
  404e2a:	f801 000c 	strb.w	r0, [r1, ip]
  404e2e:	f10c 0c01 	add.w	ip, ip, #1
  404e32:	e7a8      	b.n	404d86 <follow_path+0xf6>
  404e34:	69b3      	ldr	r3, [r6, #24]
  404e36:	781a      	ldrb	r2, [r3, #0]
  404e38:	2ae5      	cmp	r2, #229	; 0xe5
  404e3a:	d101      	bne.n	404e40 <follow_path+0x1b0>
  404e3c:	2205      	movs	r2, #5
  404e3e:	701a      	strb	r2, [r3, #0]
  404e40:	f1b9 0f08 	cmp.w	r9, #8
  404e44:	d101      	bne.n	404e4a <follow_path+0x1ba>
  404e46:	00bf      	lsls	r7, r7, #2
  404e48:	b2ff      	uxtb	r7, r7
  404e4a:	f007 030c 	and.w	r3, r7, #12
  404e4e:	2b0c      	cmp	r3, #12
  404e50:	d003      	beq.n	404e5a <follow_path+0x1ca>
  404e52:	f007 0203 	and.w	r2, r7, #3
  404e56:	2a03      	cmp	r2, #3
  404e58:	d101      	bne.n	404e5e <follow_path+0x1ce>
  404e5a:	f044 0402 	orr.w	r4, r4, #2
  404e5e:	f004 0202 	and.w	r2, r4, #2
  404e62:	b2d2      	uxtb	r2, r2
  404e64:	b94a      	cbnz	r2, 404e7a <follow_path+0x1ea>
  404e66:	f007 0703 	and.w	r7, r7, #3
  404e6a:	2f01      	cmp	r7, #1
  404e6c:	bf08      	it	eq
  404e6e:	f044 0410 	orreq.w	r4, r4, #16
  404e72:	2b04      	cmp	r3, #4
  404e74:	bf08      	it	eq
  404e76:	f044 0408 	orreq.w	r4, r4, #8
  404e7a:	69b3      	ldr	r3, [r6, #24]
  404e7c:	4630      	mov	r0, r6
  404e7e:	72dc      	strb	r4, [r3, #11]
  404e80:	2100      	movs	r1, #0
  404e82:	4b21      	ldr	r3, [pc, #132]	; (404f08 <follow_path+0x278>)
  404e84:	4798      	blx	r3
  404e86:	b910      	cbnz	r0, 404e8e <follow_path+0x1fe>
  404e88:	4630      	mov	r0, r6
  404e8a:	4b24      	ldr	r3, [pc, #144]	; (404f1c <follow_path+0x28c>)
  404e8c:	4798      	blx	r3
  404e8e:	69b3      	ldr	r3, [r6, #24]
  404e90:	7adb      	ldrb	r3, [r3, #11]
  404e92:	b148      	cbz	r0, 404ea8 <follow_path+0x218>
  404e94:	2804      	cmp	r0, #4
  404e96:	d134      	bne.n	404f02 <follow_path+0x272>
  404e98:	f003 0004 	and.w	r0, r3, #4
  404e9c:	b2c0      	uxtb	r0, r0
  404e9e:	2800      	cmp	r0, #0
  404ea0:	bf14      	ite	ne
  404ea2:	2004      	movne	r0, #4
  404ea4:	2005      	moveq	r0, #5
  404ea6:	e02c      	b.n	404f02 <follow_path+0x272>
  404ea8:	f003 0304 	and.w	r3, r3, #4
  404eac:	b2db      	uxtb	r3, r3
  404eae:	bb43      	cbnz	r3, 404f02 <follow_path+0x272>
  404eb0:	6973      	ldr	r3, [r6, #20]
  404eb2:	7ada      	ldrb	r2, [r3, #11]
  404eb4:	f002 0210 	and.w	r2, r2, #16
  404eb8:	b2d2      	uxtb	r2, r2
  404eba:	b15a      	cbz	r2, 404ed4 <follow_path+0x244>
  404ebc:	7d59      	ldrb	r1, [r3, #21]
  404ebe:	7d1a      	ldrb	r2, [r3, #20]
  404ec0:	ea42 2201 	orr.w	r2, r2, r1, lsl #8
  404ec4:	7ed9      	ldrb	r1, [r3, #27]
  404ec6:	7e9b      	ldrb	r3, [r3, #26]
  404ec8:	ea43 2301 	orr.w	r3, r3, r1, lsl #8
  404ecc:	ea43 4302 	orr.w	r3, r3, r2, lsl #16
  404ed0:	60b3      	str	r3, [r6, #8]
  404ed2:	e6f4      	b.n	404cbe <follow_path+0x2e>
  404ed4:	2005      	movs	r0, #5
  404ed6:	e014      	b.n	404f02 <follow_path+0x272>
  404ed8:	2200      	movs	r2, #0
  404eda:	eb0b 0745 	add.w	r7, fp, r5, lsl #1
  404ede:	f82b 2015 	strh.w	r2, [fp, r5, lsl #1]
  404ee2:	69b0      	ldr	r0, [r6, #24]
  404ee4:	2120      	movs	r1, #32
  404ee6:	e72a      	b.n	404d3e <follow_path+0xae>
  404ee8:	f1a0 0141 	sub.w	r1, r0, #65	; 0x41
  404eec:	b289      	uxth	r1, r1
  404eee:	2919      	cmp	r1, #25
  404ef0:	d98e      	bls.n	404e10 <follow_path+0x180>
  404ef2:	e790      	b.n	404e16 <follow_path+0x186>
  404ef4:	2006      	movs	r0, #6
  404ef6:	e004      	b.n	404f02 <follow_path+0x272>
  404ef8:	f1b9 0f0b 	cmp.w	r9, #11
  404efc:	f47f af65 	bne.w	404dca <follow_path+0x13a>
  404f00:	e759      	b.n	404db6 <follow_path+0x126>
  404f02:	e8bd 8ffe 	ldmia.w	sp!, {r1, r2, r3, r4, r5, r6, r7, r8, r9, sl, fp, pc}
  404f06:	bf00      	nop
  404f08:	004047a1 	.word	0x004047a1
  404f0c:	00405849 	.word	0x00405849
  404f10:	0040a2f2 	.word	0x0040a2f2
  404f14:	0040a273 	.word	0x0040a273
  404f18:	0040a2fb 	.word	0x0040a2fb
  404f1c:	00404b51 	.word	0x00404b51

00404f20 <dir_register>:
  404f20:	e92d 4ff0 	stmdb	sp!, {r4, r5, r6, r7, r8, r9, sl, fp, lr}
  404f24:	6985      	ldr	r5, [r0, #24]
  404f26:	b087      	sub	sp, #28
  404f28:	f10d 080c 	add.w	r8, sp, #12
  404f2c:	69c7      	ldr	r7, [r0, #28]
  404f2e:	220c      	movs	r2, #12
  404f30:	4604      	mov	r4, r0
  404f32:	4629      	mov	r1, r5
  404f34:	4640      	mov	r0, r8
  404f36:	4e91      	ldr	r6, [pc, #580]	; (40517c <dir_register+0x25c>)
  404f38:	47b0      	blx	r6
  404f3a:	f89d 3017 	ldrb.w	r3, [sp, #23]
  404f3e:	07da      	lsls	r2, r3, #31
  404f40:	d55f      	bpl.n	405002 <dir_register+0xe2>
  404f42:	2300      	movs	r3, #0
  404f44:	72eb      	strb	r3, [r5, #11]
  404f46:	f04f 0a01 	mov.w	sl, #1
  404f4a:	61e3      	str	r3, [r4, #28]
  404f4c:	46b1      	mov	r9, r6
  404f4e:	220b      	movs	r2, #11
  404f50:	4628      	mov	r0, r5
  404f52:	4641      	mov	r1, r8
  404f54:	47c8      	blx	r9
  404f56:	f1ba 0f05 	cmp.w	sl, #5
  404f5a:	d90c      	bls.n	404f76 <dir_register+0x56>
  404f5c:	1ebb      	subs	r3, r7, #2
  404f5e:	4652      	mov	r2, sl
  404f60:	03d1      	lsls	r1, r2, #15
  404f62:	ea41 0252 	orr.w	r2, r1, r2, lsr #1
  404f66:	f833 1f02 	ldrh.w	r1, [r3, #2]!
  404f6a:	1852      	adds	r2, r2, r1
  404f6c:	8859      	ldrh	r1, [r3, #2]
  404f6e:	b292      	uxth	r2, r2
  404f70:	2900      	cmp	r1, #0
  404f72:	d1f5      	bne.n	404f60 <dir_register+0x40>
  404f74:	e000      	b.n	404f78 <dir_register+0x58>
  404f76:	4652      	mov	r2, sl
  404f78:	2307      	movs	r3, #7
  404f7a:	f002 000f 	and.w	r0, r2, #15
  404f7e:	f100 0130 	add.w	r1, r0, #48	; 0x30
  404f82:	2939      	cmp	r1, #57	; 0x39
  404f84:	bf88      	it	hi
  404f86:	f100 0137 	addhi.w	r1, r0, #55	; 0x37
  404f8a:	f3c2 120f 	ubfx	r2, r2, #4, #16
  404f8e:	a801      	add	r0, sp, #4
  404f90:	5419      	strb	r1, [r3, r0]
  404f92:	3b01      	subs	r3, #1
  404f94:	2a00      	cmp	r2, #0
  404f96:	d1f0      	bne.n	404f7a <dir_register+0x5a>
  404f98:	a806      	add	r0, sp, #24
  404f9a:	18c1      	adds	r1, r0, r3
  404f9c:	207e      	movs	r0, #126	; 0x7e
  404f9e:	f801 0c14 	strb.w	r0, [r1, #-20]
  404fa2:	e000      	b.n	404fa6 <dir_register+0x86>
  404fa4:	3201      	adds	r2, #1
  404fa6:	429a      	cmp	r2, r3
  404fa8:	d002      	beq.n	404fb0 <dir_register+0x90>
  404faa:	5ca9      	ldrb	r1, [r5, r2]
  404fac:	2920      	cmp	r1, #32
  404fae:	d1f9      	bne.n	404fa4 <dir_register+0x84>
  404fb0:	2b07      	cmp	r3, #7
  404fb2:	d805      	bhi.n	404fc0 <dir_register+0xa0>
  404fb4:	a806      	add	r0, sp, #24
  404fb6:	18c1      	adds	r1, r0, r3
  404fb8:	f811 1c14 	ldrb.w	r1, [r1, #-20]
  404fbc:	3301      	adds	r3, #1
  404fbe:	e000      	b.n	404fc2 <dir_register+0xa2>
  404fc0:	2120      	movs	r1, #32
  404fc2:	54a9      	strb	r1, [r5, r2]
  404fc4:	3201      	adds	r2, #1
  404fc6:	2a07      	cmp	r2, #7
  404fc8:	d9f2      	bls.n	404fb0 <dir_register+0x90>
  404fca:	4620      	mov	r0, r4
  404fcc:	2100      	movs	r1, #0
  404fce:	4b6c      	ldr	r3, [pc, #432]	; (405180 <dir_register+0x260>)
  404fd0:	4798      	blx	r3
  404fd2:	4606      	mov	r6, r0
  404fd4:	2800      	cmp	r0, #0
  404fd6:	f040 80c1 	bne.w	40515c <dir_register+0x23c>
  404fda:	4620      	mov	r0, r4
  404fdc:	4b69      	ldr	r3, [pc, #420]	; (405184 <dir_register+0x264>)
  404fde:	4798      	blx	r3
  404fe0:	4606      	mov	r6, r0
  404fe2:	2800      	cmp	r0, #0
  404fe4:	f040 80ba 	bne.w	40515c <dir_register+0x23c>
  404fe8:	f10a 0a01 	add.w	sl, sl, #1
  404fec:	fa1f fa8a 	uxth.w	sl, sl
  404ff0:	f1ba 0f64 	cmp.w	sl, #100	; 0x64
  404ff4:	d1ab      	bne.n	404f4e <dir_register+0x2e>
  404ff6:	2607      	movs	r6, #7
  404ff8:	e0bc      	b.n	405174 <dir_register+0x254>
  404ffa:	f89d 3017 	ldrb.w	r3, [sp, #23]
  404ffe:	72eb      	strb	r3, [r5, #11]
  405000:	61e7      	str	r7, [r4, #28]
  405002:	f89d 3017 	ldrb.w	r3, [sp, #23]
  405006:	f003 0302 	and.w	r3, r3, #2
  40500a:	b2db      	uxtb	r3, r3
  40500c:	b92b      	cbnz	r3, 40501a <dir_register+0xfa>
  40500e:	f04f 0801 	mov.w	r8, #1
  405012:	e00e      	b.n	405032 <dir_register+0x112>
  405014:	3301      	adds	r3, #1
  405016:	b29b      	uxth	r3, r3
  405018:	e000      	b.n	40501c <dir_register+0xfc>
  40501a:	2300      	movs	r3, #0
  40501c:	f837 2013 	ldrh.w	r2, [r7, r3, lsl #1]
  405020:	2a00      	cmp	r2, #0
  405022:	d1f7      	bne.n	405014 <dir_register+0xf4>
  405024:	f103 0819 	add.w	r8, r3, #25
  405028:	220d      	movs	r2, #13
  40502a:	fb98 f8f2 	sdiv	r8, r8, r2
  40502e:	fa1f f888 	uxth.w	r8, r8
  405032:	4620      	mov	r0, r4
  405034:	2100      	movs	r1, #0
  405036:	4b52      	ldr	r3, [pc, #328]	; (405180 <dir_register+0x260>)
  405038:	4798      	blx	r3
  40503a:	4606      	mov	r6, r0
  40503c:	2800      	cmp	r0, #0
  40503e:	f040 8099 	bne.w	405174 <dir_register+0x254>
  405042:	f8df a148 	ldr.w	sl, [pc, #328]	; 40518c <dir_register+0x26c>
  405046:	f8df 9148 	ldr.w	r9, [pc, #328]	; 405190 <dir_register+0x270>
  40504a:	4607      	mov	r7, r0
  40504c:	4605      	mov	r5, r0
  40504e:	6820      	ldr	r0, [r4, #0]
  405050:	6921      	ldr	r1, [r4, #16]
  405052:	47d0      	blx	sl
  405054:	4606      	mov	r6, r0
  405056:	2800      	cmp	r0, #0
  405058:	f040 808c 	bne.w	405174 <dir_register+0x254>
  40505c:	6963      	ldr	r3, [r4, #20]
  40505e:	781b      	ldrb	r3, [r3, #0]
  405060:	2be5      	cmp	r3, #229	; 0xe5
  405062:	d000      	beq.n	405066 <dir_register+0x146>
  405064:	b933      	cbnz	r3, 405074 <dir_register+0x154>
  405066:	b905      	cbnz	r5, 40506a <dir_register+0x14a>
  405068:	88e7      	ldrh	r7, [r4, #6]
  40506a:	3501      	adds	r5, #1
  40506c:	b2ad      	uxth	r5, r5
  40506e:	4545      	cmp	r5, r8
  405070:	d101      	bne.n	405076 <dir_register+0x156>
  405072:	e076      	b.n	405162 <dir_register+0x242>
  405074:	4605      	mov	r5, r0
  405076:	4620      	mov	r0, r4
  405078:	2101      	movs	r1, #1
  40507a:	47c8      	blx	r9
  40507c:	4606      	mov	r6, r0
  40507e:	2800      	cmp	r0, #0
  405080:	d0e5      	beq.n	40504e <dir_register+0x12e>
  405082:	e077      	b.n	405174 <dir_register+0x254>
  405084:	4620      	mov	r0, r4
  405086:	4639      	mov	r1, r7
  405088:	4b3d      	ldr	r3, [pc, #244]	; (405180 <dir_register+0x260>)
  40508a:	4798      	blx	r3
  40508c:	4606      	mov	r6, r0
  40508e:	2800      	cmp	r0, #0
  405090:	d170      	bne.n	405174 <dir_register+0x254>
  405092:	69a0      	ldr	r0, [r4, #24]
  405094:	4b3c      	ldr	r3, [pc, #240]	; (405188 <dir_register+0x268>)
  405096:	4798      	blx	r3
  405098:	3d01      	subs	r5, #1
  40509a:	f64f 79ff 	movw	r9, #65535	; 0xffff
  40509e:	4607      	mov	r7, r0
  4050a0:	b2ad      	uxth	r5, r5
  4050a2:	46c8      	mov	r8, r9
  4050a4:	4b39      	ldr	r3, [pc, #228]	; (40518c <dir_register+0x26c>)
  4050a6:	6820      	ldr	r0, [r4, #0]
  4050a8:	6921      	ldr	r1, [r4, #16]
  4050aa:	4798      	blx	r3
  4050ac:	4603      	mov	r3, r0
  4050ae:	4606      	mov	r6, r0
  4050b0:	2800      	cmp	r0, #0
  4050b2:	d15f      	bne.n	405174 <dir_register+0x254>
  4050b4:	6962      	ldr	r2, [r4, #20]
  4050b6:	210f      	movs	r1, #15
  4050b8:	fa5f fe85 	uxtb.w	lr, r5
  4050bc:	69e0      	ldr	r0, [r4, #28]
  4050be:	260d      	movs	r6, #13
  4050c0:	72d1      	strb	r1, [r2, #11]
  4050c2:	f8df b0d0 	ldr.w	fp, [pc, #208]	; 405194 <dir_register+0x274>
  4050c6:	f10e 31ff 	add.w	r1, lr, #4294967295
  4050ca:	4371      	muls	r1, r6
  4050cc:	7357      	strb	r7, [r2, #13]
  4050ce:	7313      	strb	r3, [r2, #12]
  4050d0:	7693      	strb	r3, [r2, #26]
  4050d2:	76d3      	strb	r3, [r2, #27]
  4050d4:	461e      	mov	r6, r3
  4050d6:	454b      	cmp	r3, r9
  4050d8:	bf18      	it	ne
  4050da:	f830 3011 	ldrhne.w	r3, [r0, r1, lsl #1]
  4050de:	f816 c00b 	ldrb.w	ip, [r6, fp]
  4050e2:	bf18      	it	ne
  4050e4:	3101      	addne	r1, #1
  4050e6:	3601      	adds	r6, #1
  4050e8:	f802 300c 	strb.w	r3, [r2, ip]
  4050ec:	ea4f 2a13 	mov.w	sl, r3, lsr #8
  4050f0:	4494      	add	ip, r2
  4050f2:	2b00      	cmp	r3, #0
  4050f4:	bf08      	it	eq
  4050f6:	464b      	moveq	r3, r9
  4050f8:	2e0d      	cmp	r6, #13
  4050fa:	f88c a001 	strb.w	sl, [ip, #1]
  4050fe:	d1ea      	bne.n	4050d6 <dir_register+0x1b6>
  405100:	4543      	cmp	r3, r8
  405102:	d002      	beq.n	40510a <dir_register+0x1ea>
  405104:	f830 3011 	ldrh.w	r3, [r0, r1, lsl #1]
  405108:	b91b      	cbnz	r3, 405112 <dir_register+0x1f2>
  40510a:	f045 0e40 	orr.w	lr, r5, #64	; 0x40
  40510e:	fa5f fe8e 	uxtb.w	lr, lr
  405112:	f882 e000 	strb.w	lr, [r2]
  405116:	6823      	ldr	r3, [r4, #0]
  405118:	2201      	movs	r2, #1
  40511a:	711a      	strb	r2, [r3, #4]
  40511c:	4620      	mov	r0, r4
  40511e:	2100      	movs	r1, #0
  405120:	4b1b      	ldr	r3, [pc, #108]	; (405190 <dir_register+0x270>)
  405122:	4798      	blx	r3
  405124:	4606      	mov	r6, r0
  405126:	bb28      	cbnz	r0, 405174 <dir_register+0x254>
  405128:	3d01      	subs	r5, #1
  40512a:	b2ad      	uxth	r5, r5
  40512c:	2d00      	cmp	r5, #0
  40512e:	d1b9      	bne.n	4050a4 <dir_register+0x184>
  405130:	e019      	b.n	405166 <dir_register+0x246>
  405132:	6965      	ldr	r5, [r4, #20]
  405134:	4633      	mov	r3, r6
  405136:	4632      	mov	r2, r6
  405138:	54ea      	strb	r2, [r5, r3]
  40513a:	3301      	adds	r3, #1
  40513c:	2b20      	cmp	r3, #32
  40513e:	d1fb      	bne.n	405138 <dir_register+0x218>
  405140:	220b      	movs	r2, #11
  405142:	4b0e      	ldr	r3, [pc, #56]	; (40517c <dir_register+0x25c>)
  405144:	4628      	mov	r0, r5
  405146:	69a1      	ldr	r1, [r4, #24]
  405148:	4798      	blx	r3
  40514a:	69a3      	ldr	r3, [r4, #24]
  40514c:	2201      	movs	r2, #1
  40514e:	7adb      	ldrb	r3, [r3, #11]
  405150:	f003 0318 	and.w	r3, r3, #24
  405154:	732b      	strb	r3, [r5, #12]
  405156:	6823      	ldr	r3, [r4, #0]
  405158:	711a      	strb	r2, [r3, #4]
  40515a:	e00b      	b.n	405174 <dir_register+0x254>
  40515c:	2e04      	cmp	r6, #4
  40515e:	d109      	bne.n	405174 <dir_register+0x254>
  405160:	e74b      	b.n	404ffa <dir_register+0xda>
  405162:	2d01      	cmp	r5, #1
  405164:	d18e      	bne.n	405084 <dir_register+0x164>
  405166:	6820      	ldr	r0, [r4, #0]
  405168:	6921      	ldr	r1, [r4, #16]
  40516a:	4b08      	ldr	r3, [pc, #32]	; (40518c <dir_register+0x26c>)
  40516c:	4798      	blx	r3
  40516e:	4606      	mov	r6, r0
  405170:	2800      	cmp	r0, #0
  405172:	d0de      	beq.n	405132 <dir_register+0x212>
  405174:	4630      	mov	r0, r6
  405176:	b007      	add	sp, #28
  405178:	e8bd 8ff0 	ldmia.w	sp!, {r4, r5, r6, r7, r8, r9, sl, fp, pc}
  40517c:	00404171 	.word	0x00404171
  405180:	004047a1 	.word	0x004047a1
  405184:	00404b51 	.word	0x00404b51
  405188:	0040419b 	.word	0x0040419b
  40518c:	004041b9 	.word	0x004041b9
  405190:	00404a45 	.word	0x00404a45
  405194:	0040a303 	.word	0x0040a303

00405198 <f_mount>:
  405198:	b948      	cbnz	r0, 4051ae <f_mount+0x16>
  40519a:	4a06      	ldr	r2, [pc, #24]	; (4051b4 <f_mount+0x1c>)
  40519c:	6813      	ldr	r3, [r2, #0]
  40519e:	b103      	cbz	r3, 4051a2 <f_mount+0xa>
  4051a0:	7018      	strb	r0, [r3, #0]
  4051a2:	b109      	cbz	r1, 4051a8 <f_mount+0x10>
  4051a4:	2300      	movs	r3, #0
  4051a6:	700b      	strb	r3, [r1, #0]
  4051a8:	6011      	str	r1, [r2, #0]
  4051aa:	2000      	movs	r0, #0
  4051ac:	4770      	bx	lr
  4051ae:	200b      	movs	r0, #11
  4051b0:	4770      	bx	lr
  4051b2:	bf00      	nop
  4051b4:	2000100c 	.word	0x2000100c

004051b8 <f_open>:
  4051b8:	e92d 41f0 	stmdb	sp!, {r4, r5, r6, r7, r8, lr}
  4051bc:	2300      	movs	r3, #0
  4051be:	f5ad 7d0e 	sub.w	sp, sp, #568	; 0x238
  4051c2:	6003      	str	r3, [r0, #0]
  4051c4:	9101      	str	r1, [sp, #4]
  4051c6:	4b52      	ldr	r3, [pc, #328]	; (405310 <f_open+0x158>)
  4051c8:	4605      	mov	r5, r0
  4051ca:	4617      	mov	r7, r2
  4051cc:	f002 061f 	and.w	r6, r2, #31
  4051d0:	a801      	add	r0, sp, #4
  4051d2:	a905      	add	r1, sp, #20
  4051d4:	f002 021e 	and.w	r2, r2, #30
  4051d8:	4798      	blx	r3
  4051da:	ab02      	add	r3, sp, #8
  4051dc:	930b      	str	r3, [sp, #44]	; 0x2c
  4051de:	ab0e      	add	r3, sp, #56	; 0x38
  4051e0:	930c      	str	r3, [sp, #48]	; 0x30
  4051e2:	b918      	cbnz	r0, 4051ec <f_open+0x34>
  4051e4:	a805      	add	r0, sp, #20
  4051e6:	9901      	ldr	r1, [sp, #4]
  4051e8:	4b4a      	ldr	r3, [pc, #296]	; (405314 <f_open+0x15c>)
  4051ea:	4798      	blx	r3
  4051ec:	9c0a      	ldr	r4, [sp, #40]	; 0x28
  4051ee:	b918      	cbnz	r0, 4051f8 <f_open+0x40>
  4051f0:	2c00      	cmp	r4, #0
  4051f2:	bf0c      	ite	eq
  4051f4:	2006      	moveq	r0, #6
  4051f6:	2000      	movne	r0, #0
  4051f8:	f017 0f1c 	tst.w	r7, #28
  4051fc:	d049      	beq.n	405292 <f_open+0xda>
  4051fe:	b148      	cbz	r0, 405214 <f_open+0x5c>
  405200:	2804      	cmp	r0, #4
  405202:	d102      	bne.n	40520a <f_open+0x52>
  405204:	a805      	add	r0, sp, #20
  405206:	4b44      	ldr	r3, [pc, #272]	; (405318 <f_open+0x160>)
  405208:	4798      	blx	r3
  40520a:	f046 0608 	orr.w	r6, r6, #8
  40520e:	9c0a      	ldr	r4, [sp, #40]	; 0x28
  405210:	b148      	cbz	r0, 405226 <f_open+0x6e>
  405212:	e079      	b.n	405308 <f_open+0x150>
  405214:	7ae3      	ldrb	r3, [r4, #11]
  405216:	f013 0f11 	tst.w	r3, #17
  40521a:	d174      	bne.n	405306 <f_open+0x14e>
  40521c:	f007 0704 	and.w	r7, r7, #4
  405220:	b2ff      	uxtb	r7, r7
  405222:	2f00      	cmp	r7, #0
  405224:	d16b      	bne.n	4052fe <f_open+0x146>
  405226:	f006 0308 	and.w	r3, r6, #8
  40522a:	b2db      	uxtb	r3, r3
  40522c:	2b00      	cmp	r3, #0
  40522e:	d03e      	beq.n	4052ae <f_open+0xf6>
  405230:	4b3a      	ldr	r3, [pc, #232]	; (40531c <f_open+0x164>)
  405232:	4798      	blx	r3
  405234:	7d22      	ldrb	r2, [r4, #20]
  405236:	7d67      	ldrb	r7, [r4, #21]
  405238:	f3c0 2307 	ubfx	r3, r0, #8, #8
  40523c:	7ee1      	ldrb	r1, [r4, #27]
  40523e:	ea42 2707 	orr.w	r7, r2, r7, lsl #8
  405242:	7ea2      	ldrb	r2, [r4, #26]
  405244:	73a0      	strb	r0, [r4, #14]
  405246:	73e3      	strb	r3, [r4, #15]
  405248:	0c03      	lsrs	r3, r0, #16
  40524a:	0e00      	lsrs	r0, r0, #24
  40524c:	7423      	strb	r3, [r4, #16]
  40524e:	7460      	strb	r0, [r4, #17]
  405250:	2300      	movs	r3, #0
  405252:	ea42 2201 	orr.w	r2, r2, r1, lsl #8
  405256:	9805      	ldr	r0, [sp, #20]
  405258:	72e3      	strb	r3, [r4, #11]
  40525a:	7723      	strb	r3, [r4, #28]
  40525c:	7763      	strb	r3, [r4, #29]
  40525e:	77a3      	strb	r3, [r4, #30]
  405260:	77e3      	strb	r3, [r4, #31]
  405262:	76a3      	strb	r3, [r4, #26]
  405264:	76e3      	strb	r3, [r4, #27]
  405266:	7523      	strb	r3, [r4, #20]
  405268:	7563      	strb	r3, [r4, #21]
  40526a:	2301      	movs	r3, #1
  40526c:	ea52 4707 	orrs.w	r7, r2, r7, lsl #16
  405270:	7103      	strb	r3, [r0, #4]
  405272:	d01c      	beq.n	4052ae <f_open+0xf6>
  405274:	4639      	mov	r1, r7
  405276:	4b2a      	ldr	r3, [pc, #168]	; (405320 <f_open+0x168>)
  405278:	f8d0 802c 	ldr.w	r8, [r0, #44]	; 0x2c
  40527c:	4798      	blx	r3
  40527e:	2800      	cmp	r0, #0
  405280:	d142      	bne.n	405308 <f_open+0x150>
  405282:	9805      	ldr	r0, [sp, #20]
  405284:	3f01      	subs	r7, #1
  405286:	60c7      	str	r7, [r0, #12]
  405288:	4641      	mov	r1, r8
  40528a:	4b26      	ldr	r3, [pc, #152]	; (405324 <f_open+0x16c>)
  40528c:	4798      	blx	r3
  40528e:	b170      	cbz	r0, 4052ae <f_open+0xf6>
  405290:	e03a      	b.n	405308 <f_open+0x150>
  405292:	2800      	cmp	r0, #0
  405294:	d138      	bne.n	405308 <f_open+0x150>
  405296:	7ae3      	ldrb	r3, [r4, #11]
  405298:	f003 0210 	and.w	r2, r3, #16
  40529c:	b2d2      	uxtb	r2, r2
  40529e:	2a00      	cmp	r2, #0
  4052a0:	d12f      	bne.n	405302 <f_open+0x14a>
  4052a2:	f007 0702 	and.w	r7, r7, #2
  4052a6:	b2ff      	uxtb	r7, r7
  4052a8:	b10f      	cbz	r7, 4052ae <f_open+0xf6>
  4052aa:	07d9      	lsls	r1, r3, #31
  4052ac:	d42b      	bmi.n	405306 <f_open+0x14e>
  4052ae:	f006 0308 	and.w	r3, r6, #8
  4052b2:	b2db      	uxtb	r3, r3
  4052b4:	b10b      	cbz	r3, 4052ba <f_open+0x102>
  4052b6:	f046 0620 	orr.w	r6, r6, #32
  4052ba:	9b05      	ldr	r3, [sp, #20]
  4052bc:	6ada      	ldr	r2, [r3, #44]	; 0x2c
  4052be:	71ae      	strb	r6, [r5, #6]
  4052c0:	61ea      	str	r2, [r5, #28]
  4052c2:	622c      	str	r4, [r5, #32]
  4052c4:	7d22      	ldrb	r2, [r4, #20]
  4052c6:	7d61      	ldrb	r1, [r4, #21]
  4052c8:	7ee0      	ldrb	r0, [r4, #27]
  4052ca:	ea42 2101 	orr.w	r1, r2, r1, lsl #8
  4052ce:	7ea2      	ldrb	r2, [r4, #26]
  4052d0:	ea42 2200 	orr.w	r2, r2, r0, lsl #8
  4052d4:	ea42 4201 	orr.w	r2, r2, r1, lsl #16
  4052d8:	612a      	str	r2, [r5, #16]
  4052da:	7fa2      	ldrb	r2, [r4, #30]
  4052dc:	7fe1      	ldrb	r1, [r4, #31]
  4052de:	0412      	lsls	r2, r2, #16
  4052e0:	ea42 6201 	orr.w	r2, r2, r1, lsl #24
  4052e4:	7f21      	ldrb	r1, [r4, #28]
  4052e6:	2000      	movs	r0, #0
  4052e8:	430a      	orrs	r2, r1
  4052ea:	7f61      	ldrb	r1, [r4, #29]
  4052ec:	602b      	str	r3, [r5, #0]
  4052ee:	88db      	ldrh	r3, [r3, #6]
  4052f0:	ea42 2201 	orr.w	r2, r2, r1, lsl #8
  4052f4:	60ea      	str	r2, [r5, #12]
  4052f6:	60a8      	str	r0, [r5, #8]
  4052f8:	61a8      	str	r0, [r5, #24]
  4052fa:	80ab      	strh	r3, [r5, #4]
  4052fc:	e004      	b.n	405308 <f_open+0x150>
  4052fe:	2008      	movs	r0, #8
  405300:	e002      	b.n	405308 <f_open+0x150>
  405302:	2004      	movs	r0, #4
  405304:	e000      	b.n	405308 <f_open+0x150>
  405306:	2007      	movs	r0, #7
  405308:	f50d 7d0e 	add.w	sp, sp, #568	; 0x238
  40530c:	e8bd 81f0 	ldmia.w	sp!, {r4, r5, r6, r7, r8, pc}
  405310:	004043b1 	.word	0x004043b1
  405314:	00404c91 	.word	0x00404c91
  405318:	00404f21 	.word	0x00404f21
  40531c:	00404119 	.word	0x00404119
  405320:	004049d5 	.word	0x004049d5
  405324:	004041b9 	.word	0x004041b9

00405328 <f_write>:
  405328:	e92d 4ff7 	stmdb	sp!, {r0, r1, r2, r4, r5, r6, r7, r8, r9, sl, fp, lr}
  40532c:	4604      	mov	r4, r0
  40532e:	4699      	mov	r9, r3
  405330:	2300      	movs	r3, #0
  405332:	f8c9 3000 	str.w	r3, [r9]
  405336:	460f      	mov	r7, r1
  405338:	6800      	ldr	r0, [r0, #0]
  40533a:	88a1      	ldrh	r1, [r4, #4]
  40533c:	4b66      	ldr	r3, [pc, #408]	; (4054d8 <f_write+0x1b0>)
  40533e:	4616      	mov	r6, r2
  405340:	4798      	blx	r3
  405342:	4605      	mov	r5, r0
  405344:	2800      	cmp	r0, #0
  405346:	f040 80c4 	bne.w	4054d2 <f_write+0x1aa>
  40534a:	79a3      	ldrb	r3, [r4, #6]
  40534c:	061a      	lsls	r2, r3, #24
  40534e:	d454      	bmi.n	4053fa <f_write+0xd2>
  405350:	f003 0302 	and.w	r3, r3, #2
  405354:	b2db      	uxtb	r3, r3
  405356:	2b00      	cmp	r3, #0
  405358:	f000 80ba 	beq.w	4054d0 <f_write+0x1a8>
  40535c:	68e3      	ldr	r3, [r4, #12]
  40535e:	42de      	cmn	r6, r3
  405360:	bf28      	it	cs
  405362:	2600      	movcs	r6, #0
  405364:	e0aa      	b.n	4054bc <f_write+0x194>
  405366:	68a3      	ldr	r3, [r4, #8]
  405368:	05da      	lsls	r2, r3, #23
  40536a:	f040 808a 	bne.w	405482 <f_write+0x15a>
  40536e:	6820      	ldr	r0, [r4, #0]
  405370:	f890 a002 	ldrb.w	sl, [r0, #2]
  405374:	f10a 3aff 	add.w	sl, sl, #4294967295
  405378:	ea0a 2a53 	and.w	sl, sl, r3, lsr #9
  40537c:	f01a 0aff 	ands.w	sl, sl, #255	; 0xff
  405380:	d11a      	bne.n	4053b8 <f_write+0x90>
  405382:	b933      	cbnz	r3, 405392 <f_write+0x6a>
  405384:	6921      	ldr	r1, [r4, #16]
  405386:	b979      	cbnz	r1, 4053a8 <f_write+0x80>
  405388:	4b54      	ldr	r3, [pc, #336]	; (4054dc <f_write+0x1b4>)
  40538a:	4798      	blx	r3
  40538c:	4601      	mov	r1, r0
  40538e:	6120      	str	r0, [r4, #16]
  405390:	e003      	b.n	40539a <f_write+0x72>
  405392:	6961      	ldr	r1, [r4, #20]
  405394:	4b51      	ldr	r3, [pc, #324]	; (4054dc <f_write+0x1b4>)
  405396:	4798      	blx	r3
  405398:	4601      	mov	r1, r0
  40539a:	b929      	cbnz	r1, 4053a8 <f_write+0x80>
  40539c:	68a3      	ldr	r3, [r4, #8]
  40539e:	68e2      	ldr	r2, [r4, #12]
  4053a0:	4293      	cmp	r3, r2
  4053a2:	f200 808f 	bhi.w	4054c4 <f_write+0x19c>
  4053a6:	e08e      	b.n	4054c6 <f_write+0x19e>
  4053a8:	2901      	cmp	r1, #1
  4053aa:	79a3      	ldrb	r3, [r4, #6]
  4053ac:	d100      	bne.n	4053b0 <f_write+0x88>
  4053ae:	e021      	b.n	4053f4 <f_write+0xcc>
  4053b0:	1c48      	adds	r0, r1, #1
  4053b2:	d100      	bne.n	4053b6 <f_write+0x8e>
  4053b4:	e05e      	b.n	405474 <f_write+0x14c>
  4053b6:	6161      	str	r1, [r4, #20]
  4053b8:	79a3      	ldrb	r3, [r4, #6]
  4053ba:	f003 0340 	and.w	r3, r3, #64	; 0x40
  4053be:	b2db      	uxtb	r3, r3
  4053c0:	b173      	cbz	r3, 4053e0 <f_write+0xb8>
  4053c2:	4621      	mov	r1, r4
  4053c4:	f851 3b24 	ldr.w	r3, [r1], #36
  4053c8:	69a2      	ldr	r2, [r4, #24]
  4053ca:	7858      	ldrb	r0, [r3, #1]
  4053cc:	f8df c114 	ldr.w	ip, [pc, #276]	; 4054e4 <f_write+0x1bc>
  4053d0:	2301      	movs	r3, #1
  4053d2:	47e0      	blx	ip
  4053d4:	79a3      	ldrb	r3, [r4, #6]
  4053d6:	b100      	cbz	r0, 4053da <f_write+0xb2>
  4053d8:	e04c      	b.n	405474 <f_write+0x14c>
  4053da:	f023 0340 	bic.w	r3, r3, #64	; 0x40
  4053de:	71a3      	strb	r3, [r4, #6]
  4053e0:	6823      	ldr	r3, [r4, #0]
  4053e2:	6961      	ldr	r1, [r4, #20]
  4053e4:	4618      	mov	r0, r3
  4053e6:	9301      	str	r3, [sp, #4]
  4053e8:	f8df c0fc 	ldr.w	ip, [pc, #252]	; 4054e8 <f_write+0x1c0>
  4053ec:	47e0      	blx	ip
  4053ee:	9b01      	ldr	r3, [sp, #4]
  4053f0:	b928      	cbnz	r0, 4053fe <f_write+0xd6>
  4053f2:	79a3      	ldrb	r3, [r4, #6]
  4053f4:	f063 037f 	orn	r3, r3, #127	; 0x7f
  4053f8:	71a3      	strb	r3, [r4, #6]
  4053fa:	2502      	movs	r5, #2
  4053fc:	e069      	b.n	4054d2 <f_write+0x1aa>
  4053fe:	ea5f 2b56 	movs.w	fp, r6, lsr #9
  405402:	eb00 080a 	add.w	r8, r0, sl
  405406:	d024      	beq.n	405452 <f_write+0x12a>
  405408:	789a      	ldrb	r2, [r3, #2]
  40540a:	eb0b 010a 	add.w	r1, fp, sl
  40540e:	4291      	cmp	r1, r2
  405410:	bf88      	it	hi
  405412:	ebca 0b02 	rsbhi	fp, sl, r2
  405416:	7858      	ldrb	r0, [r3, #1]
  405418:	4639      	mov	r1, r7
  40541a:	4642      	mov	r2, r8
  40541c:	fa5f f38b 	uxtb.w	r3, fp
  405420:	f8df a0c0 	ldr.w	sl, [pc, #192]	; 4054e4 <f_write+0x1bc>
  405424:	47d0      	blx	sl
  405426:	b100      	cbz	r0, 40542a <f_write+0x102>
  405428:	e023      	b.n	405472 <f_write+0x14a>
  40542a:	69a1      	ldr	r1, [r4, #24]
  40542c:	ebc8 0101 	rsb	r1, r8, r1
  405430:	4559      	cmp	r1, fp
  405432:	d20b      	bcs.n	40544c <f_write+0x124>
  405434:	4b2a      	ldr	r3, [pc, #168]	; (4054e0 <f_write+0x1b8>)
  405436:	f104 0024 	add.w	r0, r4, #36	; 0x24
  40543a:	eb07 2141 	add.w	r1, r7, r1, lsl #9
  40543e:	f44f 7200 	mov.w	r2, #512	; 0x200
  405442:	4798      	blx	r3
  405444:	79a3      	ldrb	r3, [r4, #6]
  405446:	f023 0340 	bic.w	r3, r3, #64	; 0x40
  40544a:	71a3      	strb	r3, [r4, #6]
  40544c:	ea4f 284b 	mov.w	r8, fp, lsl #9
  405450:	e029      	b.n	4054a6 <f_write+0x17e>
  405452:	69a2      	ldr	r2, [r4, #24]
  405454:	4542      	cmp	r2, r8
  405456:	d012      	beq.n	40547e <f_write+0x156>
  405458:	68a1      	ldr	r1, [r4, #8]
  40545a:	68e2      	ldr	r2, [r4, #12]
  40545c:	4291      	cmp	r1, r2
  40545e:	d20e      	bcs.n	40547e <f_write+0x156>
  405460:	7858      	ldrb	r0, [r3, #1]
  405462:	f104 0124 	add.w	r1, r4, #36	; 0x24
  405466:	4642      	mov	r2, r8
  405468:	2301      	movs	r3, #1
  40546a:	f8df c080 	ldr.w	ip, [pc, #128]	; 4054ec <f_write+0x1c4>
  40546e:	47e0      	blx	ip
  405470:	b128      	cbz	r0, 40547e <f_write+0x156>
  405472:	79a3      	ldrb	r3, [r4, #6]
  405474:	f063 037f 	orn	r3, r3, #127	; 0x7f
  405478:	71a3      	strb	r3, [r4, #6]
  40547a:	2501      	movs	r5, #1
  40547c:	e029      	b.n	4054d2 <f_write+0x1aa>
  40547e:	f8c4 8018 	str.w	r8, [r4, #24]
  405482:	68a0      	ldr	r0, [r4, #8]
  405484:	4b16      	ldr	r3, [pc, #88]	; (4054e0 <f_write+0x1b8>)
  405486:	05c0      	lsls	r0, r0, #23
  405488:	0dc0      	lsrs	r0, r0, #23
  40548a:	f5c0 7800 	rsb	r8, r0, #512	; 0x200
  40548e:	4546      	cmp	r6, r8
  405490:	bf38      	it	cc
  405492:	46b0      	movcc	r8, r6
  405494:	1820      	adds	r0, r4, r0
  405496:	3024      	adds	r0, #36	; 0x24
  405498:	4639      	mov	r1, r7
  40549a:	4642      	mov	r2, r8
  40549c:	4798      	blx	r3
  40549e:	79a3      	ldrb	r3, [r4, #6]
  4054a0:	f043 0340 	orr.w	r3, r3, #64	; 0x40
  4054a4:	71a3      	strb	r3, [r4, #6]
  4054a6:	68a3      	ldr	r3, [r4, #8]
  4054a8:	4447      	add	r7, r8
  4054aa:	4443      	add	r3, r8
  4054ac:	60a3      	str	r3, [r4, #8]
  4054ae:	f8d9 3000 	ldr.w	r3, [r9]
  4054b2:	ebc8 0606 	rsb	r6, r8, r6
  4054b6:	4443      	add	r3, r8
  4054b8:	f8c9 3000 	str.w	r3, [r9]
  4054bc:	2e00      	cmp	r6, #0
  4054be:	f47f af52 	bne.w	405366 <f_write+0x3e>
  4054c2:	e76b      	b.n	40539c <f_write+0x74>
  4054c4:	60e3      	str	r3, [r4, #12]
  4054c6:	79a3      	ldrb	r3, [r4, #6]
  4054c8:	f043 0320 	orr.w	r3, r3, #32
  4054cc:	71a3      	strb	r3, [r4, #6]
  4054ce:	e000      	b.n	4054d2 <f_write+0x1aa>
  4054d0:	2507      	movs	r5, #7
  4054d2:	4628      	mov	r0, r5
  4054d4:	e8bd 8ffe 	ldmia.w	sp!, {r1, r2, r3, r4, r5, r6, r7, r8, r9, sl, fp, pc}
  4054d8:	004042fd 	.word	0x004042fd
  4054dc:	00404925 	.word	0x00404925
  4054e0:	00404171 	.word	0x00404171
  4054e4:	00404051 	.word	0x00404051
  4054e8:	00404183 	.word	0x00404183
  4054ec:	00403fe9 	.word	0x00403fe9

004054f0 <f_sync>:
  4054f0:	b538      	push	{r3, r4, r5, lr}
  4054f2:	4604      	mov	r4, r0
  4054f4:	88a1      	ldrh	r1, [r4, #4]
  4054f6:	6800      	ldr	r0, [r0, #0]
  4054f8:	4b28      	ldr	r3, [pc, #160]	; (40559c <f_sync+0xac>)
  4054fa:	4798      	blx	r3
  4054fc:	2800      	cmp	r0, #0
  4054fe:	d14b      	bne.n	405598 <f_sync+0xa8>
  405500:	79a3      	ldrb	r3, [r4, #6]
  405502:	f003 0220 	and.w	r2, r3, #32
  405506:	b2d2      	uxtb	r2, r2
  405508:	2a00      	cmp	r2, #0
  40550a:	d045      	beq.n	405598 <f_sync+0xa8>
  40550c:	f003 0340 	and.w	r3, r3, #64	; 0x40
  405510:	b2db      	uxtb	r3, r3
  405512:	b16b      	cbz	r3, 405530 <f_sync+0x40>
  405514:	4621      	mov	r1, r4
  405516:	f851 3b24 	ldr.w	r3, [r1], #36
  40551a:	69a2      	ldr	r2, [r4, #24]
  40551c:	7858      	ldrb	r0, [r3, #1]
  40551e:	4d20      	ldr	r5, [pc, #128]	; (4055a0 <f_sync+0xb0>)
  405520:	2301      	movs	r3, #1
  405522:	47a8      	blx	r5
  405524:	2800      	cmp	r0, #0
  405526:	d136      	bne.n	405596 <f_sync+0xa6>
  405528:	79a3      	ldrb	r3, [r4, #6]
  40552a:	f023 0340 	bic.w	r3, r3, #64	; 0x40
  40552e:	71a3      	strb	r3, [r4, #6]
  405530:	6820      	ldr	r0, [r4, #0]
  405532:	69e1      	ldr	r1, [r4, #28]
  405534:	4b1b      	ldr	r3, [pc, #108]	; (4055a4 <f_sync+0xb4>)
  405536:	4798      	blx	r3
  405538:	2800      	cmp	r0, #0
  40553a:	d12d      	bne.n	405598 <f_sync+0xa8>
  40553c:	6a25      	ldr	r5, [r4, #32]
  40553e:	7aeb      	ldrb	r3, [r5, #11]
  405540:	f043 0320 	orr.w	r3, r3, #32
  405544:	72eb      	strb	r3, [r5, #11]
  405546:	68e3      	ldr	r3, [r4, #12]
  405548:	772b      	strb	r3, [r5, #28]
  40554a:	89a3      	ldrh	r3, [r4, #12]
  40554c:	0a1b      	lsrs	r3, r3, #8
  40554e:	776b      	strb	r3, [r5, #29]
  405550:	89e3      	ldrh	r3, [r4, #14]
  405552:	77ab      	strb	r3, [r5, #30]
  405554:	7be3      	ldrb	r3, [r4, #15]
  405556:	77eb      	strb	r3, [r5, #31]
  405558:	6923      	ldr	r3, [r4, #16]
  40555a:	76ab      	strb	r3, [r5, #26]
  40555c:	8a23      	ldrh	r3, [r4, #16]
  40555e:	0a1b      	lsrs	r3, r3, #8
  405560:	76eb      	strb	r3, [r5, #27]
  405562:	8a63      	ldrh	r3, [r4, #18]
  405564:	752b      	strb	r3, [r5, #20]
  405566:	8a63      	ldrh	r3, [r4, #18]
  405568:	0a1b      	lsrs	r3, r3, #8
  40556a:	756b      	strb	r3, [r5, #21]
  40556c:	4b0e      	ldr	r3, [pc, #56]	; (4055a8 <f_sync+0xb8>)
  40556e:	4798      	blx	r3
  405570:	f3c0 2307 	ubfx	r3, r0, #8, #8
  405574:	75a8      	strb	r0, [r5, #22]
  405576:	75eb      	strb	r3, [r5, #23]
  405578:	0c03      	lsrs	r3, r0, #16
  40557a:	0e00      	lsrs	r0, r0, #24
  40557c:	762b      	strb	r3, [r5, #24]
  40557e:	7668      	strb	r0, [r5, #25]
  405580:	79a3      	ldrb	r3, [r4, #6]
  405582:	2201      	movs	r2, #1
  405584:	f023 0320 	bic.w	r3, r3, #32
  405588:	71a3      	strb	r3, [r4, #6]
  40558a:	6823      	ldr	r3, [r4, #0]
  40558c:	711a      	strb	r2, [r3, #4]
  40558e:	6820      	ldr	r0, [r4, #0]
  405590:	4b06      	ldr	r3, [pc, #24]	; (4055ac <f_sync+0xbc>)
  405592:	4798      	blx	r3
  405594:	bd38      	pop	{r3, r4, r5, pc}
  405596:	2001      	movs	r0, #1
  405598:	bd38      	pop	{r3, r4, r5, pc}
  40559a:	bf00      	nop
  40559c:	004042fd 	.word	0x004042fd
  4055a0:	00404051 	.word	0x00404051
  4055a4:	004041b9 	.word	0x004041b9
  4055a8:	00404119 	.word	0x00404119
  4055ac:	00404239 	.word	0x00404239

004055b0 <f_close>:
  4055b0:	b510      	push	{r4, lr}
  4055b2:	4b03      	ldr	r3, [pc, #12]	; (4055c0 <f_close+0x10>)
  4055b4:	4604      	mov	r4, r0
  4055b6:	4798      	blx	r3
  4055b8:	b900      	cbnz	r0, 4055bc <f_close+0xc>
  4055ba:	6020      	str	r0, [r4, #0]
  4055bc:	bd10      	pop	{r4, pc}
  4055be:	bf00      	nop
  4055c0:	004054f1 	.word	0x004054f1

004055c4 <f_opendir>:
  4055c4:	b510      	push	{r4, lr}
  4055c6:	4604      	mov	r4, r0
  4055c8:	f5ad 7d06 	sub.w	sp, sp, #536	; 0x218
  4055cc:	9101      	str	r1, [sp, #4]
  4055ce:	a801      	add	r0, sp, #4
  4055d0:	4621      	mov	r1, r4
  4055d2:	2200      	movs	r2, #0
  4055d4:	4b18      	ldr	r3, [pc, #96]	; (405638 <f_opendir+0x74>)
  4055d6:	4798      	blx	r3
  4055d8:	2800      	cmp	r0, #0
  4055da:	d129      	bne.n	405630 <f_opendir+0x6c>
  4055dc:	ab03      	add	r3, sp, #12
  4055de:	61a3      	str	r3, [r4, #24]
  4055e0:	ab06      	add	r3, sp, #24
  4055e2:	61e3      	str	r3, [r4, #28]
  4055e4:	4620      	mov	r0, r4
  4055e6:	9901      	ldr	r1, [sp, #4]
  4055e8:	4b14      	ldr	r3, [pc, #80]	; (40563c <f_opendir+0x78>)
  4055ea:	4798      	blx	r3
  4055ec:	b990      	cbnz	r0, 405614 <f_opendir+0x50>
  4055ee:	6963      	ldr	r3, [r4, #20]
  4055f0:	b1b3      	cbz	r3, 405620 <f_opendir+0x5c>
  4055f2:	7ada      	ldrb	r2, [r3, #11]
  4055f4:	f002 0210 	and.w	r2, r2, #16
  4055f8:	b2d2      	uxtb	r2, r2
  4055fa:	b17a      	cbz	r2, 40561c <f_opendir+0x58>
  4055fc:	7d59      	ldrb	r1, [r3, #21]
  4055fe:	7d1a      	ldrb	r2, [r3, #20]
  405600:	ea42 2201 	orr.w	r2, r2, r1, lsl #8
  405604:	7ed9      	ldrb	r1, [r3, #27]
  405606:	7e9b      	ldrb	r3, [r3, #26]
  405608:	ea43 2301 	orr.w	r3, r3, r1, lsl #8
  40560c:	ea43 4302 	orr.w	r3, r3, r2, lsl #16
  405610:	60a3      	str	r3, [r4, #8]
  405612:	e005      	b.n	405620 <f_opendir+0x5c>
  405614:	2804      	cmp	r0, #4
  405616:	bf08      	it	eq
  405618:	2005      	moveq	r0, #5
  40561a:	e009      	b.n	405630 <f_opendir+0x6c>
  40561c:	2005      	movs	r0, #5
  40561e:	e007      	b.n	405630 <f_opendir+0x6c>
  405620:	6823      	ldr	r3, [r4, #0]
  405622:	4620      	mov	r0, r4
  405624:	88db      	ldrh	r3, [r3, #6]
  405626:	2100      	movs	r1, #0
  405628:	80a3      	strh	r3, [r4, #4]
  40562a:	4b05      	ldr	r3, [pc, #20]	; (405640 <f_opendir+0x7c>)
  40562c:	4798      	blx	r3
  40562e:	e7f1      	b.n	405614 <f_opendir+0x50>
  405630:	f50d 7d06 	add.w	sp, sp, #536	; 0x218
  405634:	bd10      	pop	{r4, pc}
  405636:	bf00      	nop
  405638:	004043b1 	.word	0x004043b1
  40563c:	00404c91 	.word	0x00404c91
  405640:	004047a1 	.word	0x004047a1

00405644 <f_mkdir>:
  405644:	e92d 4ff0 	stmdb	sp!, {r4, r5, r6, r7, r8, r9, sl, fp, lr}
  405648:	4b75      	ldr	r3, [pc, #468]	; (405820 <f_mkdir+0x1dc>)
  40564a:	f5ad 7d13 	sub.w	sp, sp, #588	; 0x24c
  40564e:	9005      	str	r0, [sp, #20]
  405650:	4798      	blx	r3
  405652:	4b74      	ldr	r3, [pc, #464]	; (405824 <f_mkdir+0x1e0>)
  405654:	4681      	mov	r9, r0
  405656:	a909      	add	r1, sp, #36	; 0x24
  405658:	a805      	add	r0, sp, #20
  40565a:	2201      	movs	r2, #1
  40565c:	4798      	blx	r3
  40565e:	4603      	mov	r3, r0
  405660:	4604      	mov	r4, r0
  405662:	2800      	cmp	r0, #0
  405664:	f040 80d7 	bne.w	405816 <f_mkdir+0x1d2>
  405668:	ab06      	add	r3, sp, #24
  40566a:	930f      	str	r3, [sp, #60]	; 0x3c
  40566c:	ab12      	add	r3, sp, #72	; 0x48
  40566e:	9310      	str	r3, [sp, #64]	; 0x40
  405670:	a809      	add	r0, sp, #36	; 0x24
  405672:	4b6d      	ldr	r3, [pc, #436]	; (405828 <f_mkdir+0x1e4>)
  405674:	9905      	ldr	r1, [sp, #20]
  405676:	4798      	blx	r3
  405678:	4603      	mov	r3, r0
  40567a:	2800      	cmp	r0, #0
  40567c:	f000 80bc 	beq.w	4057f8 <f_mkdir+0x1b4>
  405680:	2804      	cmp	r0, #4
  405682:	f040 80c8 	bne.w	405816 <f_mkdir+0x1d2>
  405686:	9809      	ldr	r0, [sp, #36]	; 0x24
  405688:	4621      	mov	r1, r4
  40568a:	4b68      	ldr	r3, [pc, #416]	; (40582c <f_mkdir+0x1e8>)
  40568c:	4798      	blx	r3
  40568e:	4605      	mov	r5, r0
  405690:	2800      	cmp	r0, #0
  405692:	f000 80b3 	beq.w	4057fc <f_mkdir+0x1b8>
  405696:	2801      	cmp	r0, #1
  405698:	f000 80b2 	beq.w	405800 <f_mkdir+0x1bc>
  40569c:	2301      	movs	r3, #1
  40569e:	3001      	adds	r0, #1
  4056a0:	f000 8086 	beq.w	4057b0 <f_mkdir+0x16c>
  4056a4:	e0ae      	b.n	405804 <f_mkdir+0x1c0>
  4056a6:	9c09      	ldr	r4, [sp, #36]	; 0x24
  4056a8:	4a61      	ldr	r2, [pc, #388]	; (405830 <f_mkdir+0x1ec>)
  4056aa:	9302      	str	r3, [sp, #8]
  4056ac:	4620      	mov	r0, r4
  4056ae:	4629      	mov	r1, r5
  4056b0:	4790      	blx	r2
  4056b2:	9b02      	ldr	r3, [sp, #8]
  4056b4:	4607      	mov	r7, r0
  4056b6:	f104 0630 	add.w	r6, r4, #48	; 0x30
  4056ba:	461a      	mov	r2, r3
  4056bc:	54f2      	strb	r2, [r6, r3]
  4056be:	3301      	adds	r3, #1
  4056c0:	f5b3 7f00 	cmp.w	r3, #512	; 0x200
  4056c4:	d1fa      	bne.n	4056bc <f_mkdir+0x78>
  4056c6:	2300      	movs	r3, #0
  4056c8:	2220      	movs	r2, #32
  4056ca:	54f2      	strb	r2, [r6, r3]
  4056cc:	3301      	adds	r3, #1
  4056ce:	2b0b      	cmp	r3, #11
  4056d0:	d1fb      	bne.n	4056ca <f_mkdir+0x86>
  4056d2:	2210      	movs	r2, #16
  4056d4:	f884 203b 	strb.w	r2, [r4, #59]	; 0x3b
  4056d8:	f3c9 2207 	ubfx	r2, r9, #8, #8
  4056dc:	f884 2047 	strb.w	r2, [r4, #71]	; 0x47
  4056e0:	f88d 2011 	strb.w	r2, [sp, #17]
  4056e4:	f3c5 2207 	ubfx	r2, r5, #8, #8
  4056e8:	f884 204b 	strb.w	r2, [r4, #75]	; 0x4b
  4056ec:	f88d 2012 	strb.w	r2, [sp, #18]
  4056f0:	0c2a      	lsrs	r2, r5, #16
  4056f2:	232e      	movs	r3, #46	; 0x2e
  4056f4:	b2d1      	uxtb	r1, r2
  4056f6:	fa5f fb89 	uxtb.w	fp, r9
  4056fa:	0a12      	lsrs	r2, r2, #8
  4056fc:	f3c9 4a07 	ubfx	sl, r9, #16, #8
  405700:	fa5f f885 	uxtb.w	r8, r5
  405704:	ea4f 6919 	mov.w	r9, r9, lsr #24
  405708:	f884 3030 	strb.w	r3, [r4, #48]	; 0x30
  40570c:	f884 1044 	strb.w	r1, [r4, #68]	; 0x44
  405710:	f884 2045 	strb.w	r2, [r4, #69]	; 0x45
  405714:	f884 b046 	strb.w	fp, [r4, #70]	; 0x46
  405718:	f884 a048 	strb.w	sl, [r4, #72]	; 0x48
  40571c:	f884 9049 	strb.w	r9, [r4, #73]	; 0x49
  405720:	f884 804a 	strb.w	r8, [r4, #74]	; 0x4a
  405724:	9103      	str	r1, [sp, #12]
  405726:	f88d 2013 	strb.w	r2, [sp, #19]
  40572a:	4631      	mov	r1, r6
  40572c:	2220      	movs	r2, #32
  40572e:	9302      	str	r3, [sp, #8]
  405730:	f104 0050 	add.w	r0, r4, #80	; 0x50
  405734:	f8df c10c 	ldr.w	ip, [pc, #268]	; 405844 <f_mkdir+0x200>
  405738:	47e0      	blx	ip
  40573a:	9b02      	ldr	r3, [sp, #8]
  40573c:	9a09      	ldr	r2, [sp, #36]	; 0x24
  40573e:	f884 3051 	strb.w	r3, [r4, #81]	; 0x51
  405742:	7811      	ldrb	r1, [r2, #0]
  405744:	9b0b      	ldr	r3, [sp, #44]	; 0x2c
  405746:	2903      	cmp	r1, #3
  405748:	d103      	bne.n	405752 <f_mkdir+0x10e>
  40574a:	6a51      	ldr	r1, [r2, #36]	; 0x24
  40574c:	428b      	cmp	r3, r1
  40574e:	bf08      	it	eq
  405750:	2300      	moveq	r3, #0
  405752:	f884 306a 	strb.w	r3, [r4, #106]	; 0x6a
  405756:	f3c3 2107 	ubfx	r1, r3, #8, #8
  40575a:	0c1b      	lsrs	r3, r3, #16
  40575c:	f884 3064 	strb.w	r3, [r4, #100]	; 0x64
  405760:	0a1b      	lsrs	r3, r3, #8
  405762:	f884 106b 	strb.w	r1, [r4, #107]	; 0x6b
  405766:	f884 3065 	strb.w	r3, [r4, #101]	; 0x65
  40576a:	7892      	ldrb	r2, [r2, #2]
  40576c:	f04f 0c01 	mov.w	ip, #1
  405770:	4c30      	ldr	r4, [pc, #192]	; (405834 <f_mkdir+0x1f0>)
  405772:	e016      	b.n	4057a2 <f_mkdir+0x15e>
  405774:	9809      	ldr	r0, [sp, #36]	; 0x24
  405776:	2100      	movs	r1, #0
  405778:	62c7      	str	r7, [r0, #44]	; 0x2c
  40577a:	f880 c004 	strb.w	ip, [r0, #4]
  40577e:	9202      	str	r2, [sp, #8]
  405780:	f8cd c004 	str.w	ip, [sp, #4]
  405784:	47a0      	blx	r4
  405786:	3701      	adds	r7, #1
  405788:	4603      	mov	r3, r0
  40578a:	9a02      	ldr	r2, [sp, #8]
  40578c:	f8dd c004 	ldr.w	ip, [sp, #4]
  405790:	b970      	cbnz	r0, 4057b0 <f_mkdir+0x16c>
  405792:	4601      	mov	r1, r0
  405794:	54f1      	strb	r1, [r6, r3]
  405796:	3301      	adds	r3, #1
  405798:	f5b3 7f00 	cmp.w	r3, #512	; 0x200
  40579c:	d1fa      	bne.n	405794 <f_mkdir+0x150>
  40579e:	3a01      	subs	r2, #1
  4057a0:	b2d2      	uxtb	r2, r2
  4057a2:	2a00      	cmp	r2, #0
  4057a4:	d1e6      	bne.n	405774 <f_mkdir+0x130>
  4057a6:	4b24      	ldr	r3, [pc, #144]	; (405838 <f_mkdir+0x1f4>)
  4057a8:	a809      	add	r0, sp, #36	; 0x24
  4057aa:	4798      	blx	r3
  4057ac:	4603      	mov	r3, r0
  4057ae:	b130      	cbz	r0, 4057be <f_mkdir+0x17a>
  4057b0:	9302      	str	r3, [sp, #8]
  4057b2:	9809      	ldr	r0, [sp, #36]	; 0x24
  4057b4:	4629      	mov	r1, r5
  4057b6:	4a21      	ldr	r2, [pc, #132]	; (40583c <f_mkdir+0x1f8>)
  4057b8:	4790      	blx	r2
  4057ba:	9b02      	ldr	r3, [sp, #8]
  4057bc:	e02b      	b.n	405816 <f_mkdir+0x1d2>
  4057be:	9b0e      	ldr	r3, [sp, #56]	; 0x38
  4057c0:	2210      	movs	r2, #16
  4057c2:	72da      	strb	r2, [r3, #11]
  4057c4:	f89d 1012 	ldrb.w	r1, [sp, #18]
  4057c8:	f89d 2011 	ldrb.w	r2, [sp, #17]
  4057cc:	76d9      	strb	r1, [r3, #27]
  4057ce:	75da      	strb	r2, [r3, #23]
  4057d0:	f89d 1013 	ldrb.w	r1, [sp, #19]
  4057d4:	9a03      	ldr	r2, [sp, #12]
  4057d6:	9809      	ldr	r0, [sp, #36]	; 0x24
  4057d8:	f883 b016 	strb.w	fp, [r3, #22]
  4057dc:	f883 a018 	strb.w	sl, [r3, #24]
  4057e0:	f883 9019 	strb.w	r9, [r3, #25]
  4057e4:	f883 801a 	strb.w	r8, [r3, #26]
  4057e8:	751a      	strb	r2, [r3, #20]
  4057ea:	7559      	strb	r1, [r3, #21]
  4057ec:	2301      	movs	r3, #1
  4057ee:	7103      	strb	r3, [r0, #4]
  4057f0:	4b13      	ldr	r3, [pc, #76]	; (405840 <f_mkdir+0x1fc>)
  4057f2:	4798      	blx	r3
  4057f4:	4603      	mov	r3, r0
  4057f6:	e00e      	b.n	405816 <f_mkdir+0x1d2>
  4057f8:	2308      	movs	r3, #8
  4057fa:	e00c      	b.n	405816 <f_mkdir+0x1d2>
  4057fc:	2307      	movs	r3, #7
  4057fe:	e7d7      	b.n	4057b0 <f_mkdir+0x16c>
  405800:	2302      	movs	r3, #2
  405802:	e7d5      	b.n	4057b0 <f_mkdir+0x16c>
  405804:	4b0b      	ldr	r3, [pc, #44]	; (405834 <f_mkdir+0x1f0>)
  405806:	9809      	ldr	r0, [sp, #36]	; 0x24
  405808:	4621      	mov	r1, r4
  40580a:	4798      	blx	r3
  40580c:	4603      	mov	r3, r0
  40580e:	2800      	cmp	r0, #0
  405810:	f43f af49 	beq.w	4056a6 <f_mkdir+0x62>
  405814:	e7cc      	b.n	4057b0 <f_mkdir+0x16c>
  405816:	4618      	mov	r0, r3
  405818:	f50d 7d13 	add.w	sp, sp, #588	; 0x24c
  40581c:	e8bd 8ff0 	ldmia.w	sp!, {r4, r5, r6, r7, r8, r9, sl, fp, pc}
  405820:	00404119 	.word	0x00404119
  405824:	004043b1 	.word	0x004043b1
  405828:	00404c91 	.word	0x00404c91
  40582c:	00404925 	.word	0x00404925
  405830:	00404183 	.word	0x00404183
  405834:	004041b9 	.word	0x004041b9
  405838:	00404f21 	.word	0x00404f21
  40583c:	004049d5 	.word	0x004049d5
  405840:	00404239 	.word	0x00404239
  405844:	00404171 	.word	0x00404171

00405848 <ff_convert>:
  405848:	287f      	cmp	r0, #127	; 0x7f
  40584a:	b510      	push	{r4, lr}
  40584c:	d916      	bls.n	40587c <ff_convert+0x34>
  40584e:	b131      	cbz	r1, 40585e <ff_convert+0x16>
  405850:	28ff      	cmp	r0, #255	; 0xff
  405852:	d812      	bhi.n	40587a <ff_convert+0x32>
  405854:	4b0a      	ldr	r3, [pc, #40]	; (405880 <ff_convert+0x38>)
  405856:	3880      	subs	r0, #128	; 0x80
  405858:	f833 0010 	ldrh.w	r0, [r3, r0, lsl #1]
  40585c:	bd10      	pop	{r4, pc}
  40585e:	4a08      	ldr	r2, [pc, #32]	; (405880 <ff_convert+0x38>)
  405860:	f832 4011 	ldrh.w	r4, [r2, r1, lsl #1]
  405864:	b28b      	uxth	r3, r1
  405866:	4284      	cmp	r4, r0
  405868:	d003      	beq.n	405872 <ff_convert+0x2a>
  40586a:	3101      	adds	r1, #1
  40586c:	2980      	cmp	r1, #128	; 0x80
  40586e:	d1f7      	bne.n	405860 <ff_convert+0x18>
  405870:	460b      	mov	r3, r1
  405872:	f103 0080 	add.w	r0, r3, #128	; 0x80
  405876:	b2c0      	uxtb	r0, r0
  405878:	bd10      	pop	{r4, pc}
  40587a:	2000      	movs	r0, #0
  40587c:	bd10      	pop	{r4, pc}
  40587e:	bf00      	nop
  405880:	0040a4f0 	.word	0x0040a4f0

00405884 <ff_wtoupper>:
  405884:	2300      	movs	r3, #0
  405886:	4906      	ldr	r1, [pc, #24]	; (4058a0 <ff_wtoupper+0x1c>)
  405888:	e000      	b.n	40588c <ff_wtoupper+0x8>
  40588a:	3301      	adds	r3, #1
  40588c:	f831 2013 	ldrh.w	r2, [r1, r3, lsl #1]
  405890:	b122      	cbz	r2, 40589c <ff_wtoupper+0x18>
  405892:	4290      	cmp	r0, r2
  405894:	d1f9      	bne.n	40588a <ff_wtoupper+0x6>
  405896:	4a03      	ldr	r2, [pc, #12]	; (4058a4 <ff_wtoupper+0x20>)
  405898:	f832 0013 	ldrh.w	r0, [r2, r3, lsl #1]
  40589c:	4770      	bx	lr
  40589e:	bf00      	nop
  4058a0:	0040a310 	.word	0x0040a310
  4058a4:	0040a5f0 	.word	0x0040a5f0

004058a8 <sd_mmc_test_unit_ready>:
  4058a8:	b510      	push	{r4, lr}
  4058aa:	4b0b      	ldr	r3, [pc, #44]	; (4058d8 <sd_mmc_test_unit_ready+0x30>)
  4058ac:	4604      	mov	r4, r0
  4058ae:	4798      	blx	r3
  4058b0:	2801      	cmp	r0, #1
  4058b2:	d005      	beq.n	4058c0 <sd_mmc_test_unit_ready+0x18>
  4058b4:	d306      	bcc.n	4058c4 <sd_mmc_test_unit_ready+0x1c>
  4058b6:	2802      	cmp	r0, #2
  4058b8:	bf0c      	ite	eq
  4058ba:	2002      	moveq	r0, #2
  4058bc:	2001      	movne	r0, #1
  4058be:	bd10      	pop	{r4, pc}
  4058c0:	2003      	movs	r0, #3
  4058c2:	bd10      	pop	{r4, pc}
  4058c4:	4620      	mov	r0, r4
  4058c6:	4b05      	ldr	r3, [pc, #20]	; (4058dc <sd_mmc_test_unit_ready+0x34>)
  4058c8:	4798      	blx	r3
  4058ca:	f010 0f03 	tst.w	r0, #3
  4058ce:	bf0c      	ite	eq
  4058d0:	2002      	moveq	r0, #2
  4058d2:	2000      	movne	r0, #0
  4058d4:	bd10      	pop	{r4, pc}
  4058d6:	bf00      	nop
  4058d8:	00400b91 	.word	0x00400b91
  4058dc:	00401279 	.word	0x00401279

004058e0 <sd_mmc_test_unit_ready_0>:
  4058e0:	b508      	push	{r3, lr}
  4058e2:	2000      	movs	r0, #0
  4058e4:	4b01      	ldr	r3, [pc, #4]	; (4058ec <sd_mmc_test_unit_ready_0+0xc>)
  4058e6:	4798      	blx	r3
  4058e8:	bd08      	pop	{r3, pc}
  4058ea:	bf00      	nop
  4058ec:	004058a9 	.word	0x004058a9

004058f0 <sd_mmc_read_capacity>:
  4058f0:	b538      	push	{r3, r4, r5, lr}
  4058f2:	4b05      	ldr	r3, [pc, #20]	; (405908 <sd_mmc_read_capacity+0x18>)
  4058f4:	4604      	mov	r4, r0
  4058f6:	460d      	mov	r5, r1
  4058f8:	4798      	blx	r3
  4058fa:	0040      	lsls	r0, r0, #1
  4058fc:	3801      	subs	r0, #1
  4058fe:	6028      	str	r0, [r5, #0]
  405900:	4b02      	ldr	r3, [pc, #8]	; (40590c <sd_mmc_read_capacity+0x1c>)
  405902:	4620      	mov	r0, r4
  405904:	4798      	blx	r3
  405906:	bd38      	pop	{r3, r4, r5, pc}
  405908:	0040129d 	.word	0x0040129d
  40590c:	004058a9 	.word	0x004058a9

00405910 <sd_mmc_read_capacity_0>:
  405910:	b508      	push	{r3, lr}
  405912:	4601      	mov	r1, r0
  405914:	4b01      	ldr	r3, [pc, #4]	; (40591c <sd_mmc_read_capacity_0+0xc>)
  405916:	2000      	movs	r0, #0
  405918:	4798      	blx	r3
  40591a:	bd08      	pop	{r3, pc}
  40591c:	004058f1 	.word	0x004058f1

00405920 <sd_mmc_wr_protect_0>:
  405920:	b508      	push	{r3, lr}
  405922:	2000      	movs	r0, #0
  405924:	4b01      	ldr	r3, [pc, #4]	; (40592c <sd_mmc_wr_protect_0+0xc>)
  405926:	4798      	blx	r3
  405928:	bd08      	pop	{r3, pc}
  40592a:	bf00      	nop
  40592c:	004012c1 	.word	0x004012c1

00405930 <sd_mmc_mem_2_ram>:
  405930:	b510      	push	{r4, lr}
  405932:	4b0b      	ldr	r3, [pc, #44]	; (405960 <sd_mmc_mem_2_ram+0x30>)
  405934:	4614      	mov	r4, r2
  405936:	2201      	movs	r2, #1
  405938:	4798      	blx	r3
  40593a:	b120      	cbz	r0, 405946 <sd_mmc_mem_2_ram+0x16>
  40593c:	2802      	cmp	r0, #2
  40593e:	bf0c      	ite	eq
  405940:	2002      	moveq	r0, #2
  405942:	2001      	movne	r0, #1
  405944:	bd10      	pop	{r4, pc}
  405946:	4620      	mov	r0, r4
  405948:	2101      	movs	r1, #1
  40594a:	4b06      	ldr	r3, [pc, #24]	; (405964 <sd_mmc_mem_2_ram+0x34>)
  40594c:	4798      	blx	r3
  40594e:	b928      	cbnz	r0, 40595c <sd_mmc_mem_2_ram+0x2c>
  405950:	4b05      	ldr	r3, [pc, #20]	; (405968 <sd_mmc_mem_2_ram+0x38>)
  405952:	4798      	blx	r3
  405954:	3000      	adds	r0, #0
  405956:	bf18      	it	ne
  405958:	2001      	movne	r0, #1
  40595a:	bd10      	pop	{r4, pc}
  40595c:	2001      	movs	r0, #1
  40595e:	bd10      	pop	{r4, pc}
  405960:	004012c5 	.word	0x004012c5
  405964:	004013b5 	.word	0x004013b5
  405968:	004013d9 	.word	0x004013d9

0040596c <sd_mmc_mem_2_ram_0>:
  40596c:	b508      	push	{r3, lr}
  40596e:	4603      	mov	r3, r0
  405970:	460a      	mov	r2, r1
  405972:	2000      	movs	r0, #0
  405974:	4619      	mov	r1, r3
  405976:	4b01      	ldr	r3, [pc, #4]	; (40597c <sd_mmc_mem_2_ram_0+0x10>)
  405978:	4798      	blx	r3
  40597a:	bd08      	pop	{r3, pc}
  40597c:	00405931 	.word	0x00405931

00405980 <sd_mmc_ram_2_mem>:
  405980:	b510      	push	{r4, lr}
  405982:	4b0b      	ldr	r3, [pc, #44]	; (4059b0 <sd_mmc_ram_2_mem+0x30>)
  405984:	4614      	mov	r4, r2
  405986:	2201      	movs	r2, #1
  405988:	4798      	blx	r3
  40598a:	b120      	cbz	r0, 405996 <sd_mmc_ram_2_mem+0x16>
  40598c:	2802      	cmp	r0, #2
  40598e:	bf0c      	ite	eq
  405990:	2002      	moveq	r0, #2
  405992:	2001      	movne	r0, #1
  405994:	bd10      	pop	{r4, pc}
  405996:	4620      	mov	r0, r4
  405998:	2101      	movs	r1, #1
  40599a:	4b06      	ldr	r3, [pc, #24]	; (4059b4 <sd_mmc_ram_2_mem+0x34>)
  40599c:	4798      	blx	r3
  40599e:	b928      	cbnz	r0, 4059ac <sd_mmc_ram_2_mem+0x2c>
  4059a0:	4b05      	ldr	r3, [pc, #20]	; (4059b8 <sd_mmc_ram_2_mem+0x38>)
  4059a2:	4798      	blx	r3
  4059a4:	3000      	adds	r0, #0
  4059a6:	bf18      	it	ne
  4059a8:	2001      	movne	r0, #1
  4059aa:	bd10      	pop	{r4, pc}
  4059ac:	2001      	movs	r0, #1
  4059ae:	bd10      	pop	{r4, pc}
  4059b0:	00401429 	.word	0x00401429
  4059b4:	004014cd 	.word	0x004014cd
  4059b8:	004014f1 	.word	0x004014f1

004059bc <sd_mmc_ram_2_mem_0>:
  4059bc:	b508      	push	{r3, lr}
  4059be:	4603      	mov	r3, r0
  4059c0:	460a      	mov	r2, r1
  4059c2:	2000      	movs	r0, #0
  4059c4:	4619      	mov	r1, r3
  4059c6:	4b01      	ldr	r3, [pc, #4]	; (4059cc <sd_mmc_ram_2_mem_0+0x10>)
  4059c8:	4798      	blx	r3
  4059ca:	bd08      	pop	{r3, pc}
  4059cc:	00405981 	.word	0x00405981

004059d0 <main>:
  4059d0:	b538      	push	{r3, r4, r5, lr}
  4059d2:	4b1e      	ldr	r3, [pc, #120]	; (405a4c <main+0x7c>)
  4059d4:	4798      	blx	r3
  4059d6:	4b1e      	ldr	r3, [pc, #120]	; (405a50 <main+0x80>)
  4059d8:	4798      	blx	r3
  4059da:	f04f 5160 	mov.w	r1, #939524096	; 0x38000000
  4059de:	202d      	movs	r0, #45	; 0x2d
  4059e0:	4b1c      	ldr	r3, [pc, #112]	; (405a54 <main+0x84>)
  4059e2:	4798      	blx	r3
  4059e4:	202d      	movs	r0, #45	; 0x2d
  4059e6:	4b1c      	ldr	r3, [pc, #112]	; (405a58 <main+0x88>)
  4059e8:	4798      	blx	r3
  4059ea:	4b1c      	ldr	r3, [pc, #112]	; (405a5c <main+0x8c>)
  4059ec:	2501      	movs	r5, #1
  4059ee:	701d      	strb	r5, [r3, #0]
  4059f0:	f3bf 8f5f 	dmb	sy
  4059f4:	b662      	cpsie	i
  4059f6:	4c1a      	ldr	r4, [pc, #104]	; (405a60 <main+0x90>)
  4059f8:	4b1a      	ldr	r3, [pc, #104]	; (405a64 <main+0x94>)
  4059fa:	4798      	blx	r3
  4059fc:	481a      	ldr	r0, [pc, #104]	; (405a68 <main+0x98>)
  4059fe:	4b1b      	ldr	r3, [pc, #108]	; (405a6c <main+0x9c>)
  405a00:	4798      	blx	r3
  405a02:	6165      	str	r5, [r4, #20]
  405a04:	f8c4 50a0 	str.w	r5, [r4, #160]	; 0xa0
  405a08:	6665      	str	r5, [r4, #100]	; 0x64
  405a0a:	f8c4 5090 	str.w	r5, [r4, #144]	; 0x90
  405a0e:	6565      	str	r5, [r4, #84]	; 0x54
  405a10:	6265      	str	r5, [r4, #36]	; 0x24
  405a12:	6f23      	ldr	r3, [r4, #112]	; 0x70
  405a14:	f023 0301 	bic.w	r3, r3, #1
  405a18:	6723      	str	r3, [r4, #112]	; 0x70
  405a1a:	6f63      	ldr	r3, [r4, #116]	; 0x74
  405a1c:	f023 0301 	bic.w	r3, r3, #1
  405a20:	6763      	str	r3, [r4, #116]	; 0x74
  405a22:	4b13      	ldr	r3, [pc, #76]	; (405a70 <main+0xa0>)
  405a24:	4798      	blx	r3
  405a26:	4b13      	ldr	r3, [pc, #76]	; (405a74 <main+0xa4>)
  405a28:	4798      	blx	r3
  405a2a:	4b13      	ldr	r3, [pc, #76]	; (405a78 <main+0xa8>)
  405a2c:	4798      	blx	r3
  405a2e:	6be3      	ldr	r3, [r4, #60]	; 0x3c
  405a30:	07db      	lsls	r3, r3, #31
  405a32:	d402      	bmi.n	405a3a <main+0x6a>
  405a34:	4628      	mov	r0, r5
  405a36:	4b11      	ldr	r3, [pc, #68]	; (405a7c <main+0xac>)
  405a38:	4798      	blx	r3
  405a3a:	4b11      	ldr	r3, [pc, #68]	; (405a80 <main+0xb0>)
  405a3c:	2200      	movs	r2, #0
  405a3e:	601a      	str	r2, [r3, #0]
  405a40:	4b10      	ldr	r3, [pc, #64]	; (405a84 <main+0xb4>)
  405a42:	4798      	blx	r3
  405a44:	4c10      	ldr	r4, [pc, #64]	; (405a88 <main+0xb8>)
  405a46:	47a0      	blx	r4
  405a48:	e7fd      	b.n	405a46 <main+0x76>
  405a4a:	bf00      	nop
  405a4c:	004015dd 	.word	0x004015dd
  405a50:	00402245 	.word	0x00402245
  405a54:	004027e1 	.word	0x004027e1
  405a58:	004027c5 	.word	0x004027c5
  405a5c:	2000010c 	.word	0x2000010c
  405a60:	400e0e00 	.word	0x400e0e00
  405a64:	004021a5 	.word	0x004021a5
  405a68:	015cc5b7 	.word	0x015cc5b7
  405a6c:	20000001 	.word	0x20000001
  405a70:	00400789 	.word	0x00400789
  405a74:	00400701 	.word	0x00400701
  405a78:	0040075d 	.word	0x0040075d
  405a7c:	00403f11 	.word	0x00403f11
  405a80:	20001010 	.word	0x20001010
  405a84:	004006b5 	.word	0x004006b5
  405a88:	004009b9 	.word	0x004009b9

00405a8c <atexit>:
  405a8c:	4601      	mov	r1, r0
  405a8e:	2000      	movs	r0, #0
  405a90:	4602      	mov	r2, r0
  405a92:	4603      	mov	r3, r0
  405a94:	f001 bb72 	b.w	40717c <__register_exitproc>

00405a98 <__libc_fini_array>:
  405a98:	b570      	push	{r4, r5, r6, lr}
  405a9a:	4b09      	ldr	r3, [pc, #36]	; (405ac0 <__libc_fini_array+0x28>)
  405a9c:	4c09      	ldr	r4, [pc, #36]	; (405ac4 <__libc_fini_array+0x2c>)
  405a9e:	2500      	movs	r5, #0
  405aa0:	1ae4      	subs	r4, r4, r3
  405aa2:	10a4      	asrs	r4, r4, #2
  405aa4:	eb03 0684 	add.w	r6, r3, r4, lsl #2
  405aa8:	e002      	b.n	405ab0 <__libc_fini_array+0x18>
  405aaa:	5972      	ldr	r2, [r6, r5]
  405aac:	4790      	blx	r2
  405aae:	3c01      	subs	r4, #1
  405ab0:	3d04      	subs	r5, #4
  405ab2:	2c00      	cmp	r4, #0
  405ab4:	d1f9      	bne.n	405aaa <__libc_fini_array+0x12>
  405ab6:	e8bd 4070 	ldmia.w	sp!, {r4, r5, r6, lr}
  405aba:	f004 bee3 	b.w	40a884 <_fini>
  405abe:	bf00      	nop
  405ac0:	0040a890 	.word	0x0040a890
  405ac4:	0040a894 	.word	0x0040a894

00405ac8 <__libc_init_array>:
  405ac8:	b570      	push	{r4, r5, r6, lr}
  405aca:	4b0e      	ldr	r3, [pc, #56]	; (405b04 <__libc_init_array+0x3c>)
  405acc:	4d0e      	ldr	r5, [pc, #56]	; (405b08 <__libc_init_array+0x40>)
  405ace:	2400      	movs	r4, #0
  405ad0:	1aed      	subs	r5, r5, r3
  405ad2:	10ad      	asrs	r5, r5, #2
  405ad4:	461e      	mov	r6, r3
  405ad6:	e003      	b.n	405ae0 <__libc_init_array+0x18>
  405ad8:	f856 2024 	ldr.w	r2, [r6, r4, lsl #2]
  405adc:	4790      	blx	r2
  405ade:	3401      	adds	r4, #1
  405ae0:	42ac      	cmp	r4, r5
  405ae2:	d1f9      	bne.n	405ad8 <__libc_init_array+0x10>
  405ae4:	f004 fec4 	bl	40a870 <_init>
  405ae8:	4d08      	ldr	r5, [pc, #32]	; (405b0c <__libc_init_array+0x44>)
  405aea:	4b09      	ldr	r3, [pc, #36]	; (405b10 <__libc_init_array+0x48>)
  405aec:	2400      	movs	r4, #0
  405aee:	1aed      	subs	r5, r5, r3
  405af0:	10ad      	asrs	r5, r5, #2
  405af2:	461e      	mov	r6, r3
  405af4:	e003      	b.n	405afe <__libc_init_array+0x36>
  405af6:	f856 2024 	ldr.w	r2, [r6, r4, lsl #2]
  405afa:	4790      	blx	r2
  405afc:	3401      	adds	r4, #1
  405afe:	42ac      	cmp	r4, r5
  405b00:	d1f9      	bne.n	405af6 <__libc_init_array+0x2e>
  405b02:	bd70      	pop	{r4, r5, r6, pc}
  405b04:	0040a87c 	.word	0x0040a87c
  405b08:	0040a87c 	.word	0x0040a87c
  405b0c:	0040a884 	.word	0x0040a884
  405b10:	0040a87c 	.word	0x0040a87c

00405b14 <memcpy>:
  405b14:	b510      	push	{r4, lr}
  405b16:	2300      	movs	r3, #0
  405b18:	e002      	b.n	405b20 <memcpy+0xc>
  405b1a:	5ccc      	ldrb	r4, [r1, r3]
  405b1c:	54c4      	strb	r4, [r0, r3]
  405b1e:	3301      	adds	r3, #1
  405b20:	4293      	cmp	r3, r2
  405b22:	d1fa      	bne.n	405b1a <memcpy+0x6>
  405b24:	bd10      	pop	{r4, pc}

00405b26 <memset>:
  405b26:	1882      	adds	r2, r0, r2
  405b28:	4603      	mov	r3, r0
  405b2a:	e001      	b.n	405b30 <memset+0xa>
  405b2c:	f803 1b01 	strb.w	r1, [r3], #1
  405b30:	4293      	cmp	r3, r2
  405b32:	d1fb      	bne.n	405b2c <memset+0x6>
  405b34:	4770      	bx	lr
	...

00405b38 <_printf_r>:
  405b38:	b40e      	push	{r1, r2, r3}
  405b3a:	b503      	push	{r0, r1, lr}
  405b3c:	ab03      	add	r3, sp, #12
  405b3e:	f853 2b04 	ldr.w	r2, [r3], #4
  405b42:	6881      	ldr	r1, [r0, #8]
  405b44:	9301      	str	r3, [sp, #4]
  405b46:	f000 fdb7 	bl	4066b8 <_vfprintf_r>
  405b4a:	e8bd 400c 	ldmia.w	sp!, {r2, r3, lr}
  405b4e:	b003      	add	sp, #12
  405b50:	4770      	bx	lr

00405b52 <printf>:
  405b52:	b40f      	push	{r0, r1, r2, r3}
  405b54:	b507      	push	{r0, r1, r2, lr}
  405b56:	4906      	ldr	r1, [pc, #24]	; (405b70 <printf+0x1e>)
  405b58:	ab04      	add	r3, sp, #16
  405b5a:	6808      	ldr	r0, [r1, #0]
  405b5c:	f853 2b04 	ldr.w	r2, [r3], #4
  405b60:	6881      	ldr	r1, [r0, #8]
  405b62:	9301      	str	r3, [sp, #4]
  405b64:	f000 fda8 	bl	4066b8 <_vfprintf_r>
  405b68:	e8bd 400e 	ldmia.w	sp!, {r1, r2, r3, lr}
  405b6c:	b004      	add	sp, #16
  405b6e:	4770      	bx	lr
  405b70:	20000110 	.word	0x20000110

00405b74 <_puts_r>:
  405b74:	b530      	push	{r4, r5, lr}
  405b76:	4605      	mov	r5, r0
  405b78:	b089      	sub	sp, #36	; 0x24
  405b7a:	4608      	mov	r0, r1
  405b7c:	460c      	mov	r4, r1
  405b7e:	f000 f8b1 	bl	405ce4 <strlen>
  405b82:	4a13      	ldr	r2, [pc, #76]	; (405bd0 <_puts_r+0x5c>)
  405b84:	9404      	str	r4, [sp, #16]
  405b86:	9206      	str	r2, [sp, #24]
  405b88:	2201      	movs	r2, #1
  405b8a:	1883      	adds	r3, r0, r2
  405b8c:	9303      	str	r3, [sp, #12]
  405b8e:	ab04      	add	r3, sp, #16
  405b90:	9301      	str	r3, [sp, #4]
  405b92:	2302      	movs	r3, #2
  405b94:	9302      	str	r3, [sp, #8]
  405b96:	4b0f      	ldr	r3, [pc, #60]	; (405bd4 <_puts_r+0x60>)
  405b98:	9207      	str	r2, [sp, #28]
  405b9a:	681b      	ldr	r3, [r3, #0]
  405b9c:	9005      	str	r0, [sp, #20]
  405b9e:	689b      	ldr	r3, [r3, #8]
  405ba0:	899a      	ldrh	r2, [r3, #12]
  405ba2:	f402 5100 	and.w	r1, r2, #8192	; 0x2000
  405ba6:	b209      	sxth	r1, r1
  405ba8:	b931      	cbnz	r1, 405bb8 <_puts_r+0x44>
  405baa:	f442 5200 	orr.w	r2, r2, #8192	; 0x2000
  405bae:	819a      	strh	r2, [r3, #12]
  405bb0:	6e5a      	ldr	r2, [r3, #100]	; 0x64
  405bb2:	f422 5200 	bic.w	r2, r2, #8192	; 0x2000
  405bb6:	665a      	str	r2, [r3, #100]	; 0x64
  405bb8:	4628      	mov	r0, r5
  405bba:	68a9      	ldr	r1, [r5, #8]
  405bbc:	aa01      	add	r2, sp, #4
  405bbe:	f001 fe21 	bl	407804 <__sfvwrite_r>
  405bc2:	2800      	cmp	r0, #0
  405bc4:	bf0c      	ite	eq
  405bc6:	200a      	moveq	r0, #10
  405bc8:	f04f 30ff 	movne.w	r0, #4294967295
  405bcc:	b009      	add	sp, #36	; 0x24
  405bce:	bd30      	pop	{r4, r5, pc}
  405bd0:	00409e82 	.word	0x00409e82
  405bd4:	20000110 	.word	0x20000110

00405bd8 <puts>:
  405bd8:	4b02      	ldr	r3, [pc, #8]	; (405be4 <puts+0xc>)
  405bda:	4601      	mov	r1, r0
  405bdc:	6818      	ldr	r0, [r3, #0]
  405bde:	f7ff bfc9 	b.w	405b74 <_puts_r>
  405be2:	bf00      	nop
  405be4:	20000110 	.word	0x20000110

00405be8 <setbuf>:
  405be8:	2900      	cmp	r1, #0
  405bea:	bf0c      	ite	eq
  405bec:	2202      	moveq	r2, #2
  405bee:	2200      	movne	r2, #0
  405bf0:	f44f 6380 	mov.w	r3, #1024	; 0x400
  405bf4:	f000 b800 	b.w	405bf8 <setvbuf>

00405bf8 <setvbuf>:
  405bf8:	e92d 41f0 	stmdb	sp!, {r4, r5, r6, r7, r8, lr}
  405bfc:	461d      	mov	r5, r3
  405bfe:	4b37      	ldr	r3, [pc, #220]	; (405cdc <setvbuf+0xe4>)
  405c00:	4604      	mov	r4, r0
  405c02:	6818      	ldr	r0, [r3, #0]
  405c04:	460e      	mov	r6, r1
  405c06:	4617      	mov	r7, r2
  405c08:	4698      	mov	r8, r3
  405c0a:	b118      	cbz	r0, 405c14 <setvbuf+0x1c>
  405c0c:	6b82      	ldr	r2, [r0, #56]	; 0x38
  405c0e:	b90a      	cbnz	r2, 405c14 <setvbuf+0x1c>
  405c10:	f001 fc08 	bl	407424 <__sinit>
  405c14:	2f02      	cmp	r7, #2
  405c16:	d85d      	bhi.n	405cd4 <setvbuf+0xdc>
  405c18:	2d00      	cmp	r5, #0
  405c1a:	db5b      	blt.n	405cd4 <setvbuf+0xdc>
  405c1c:	f8d8 0000 	ldr.w	r0, [r8]
  405c20:	4621      	mov	r1, r4
  405c22:	f001 fb0b 	bl	40723c <_fflush_r>
  405c26:	2300      	movs	r3, #0
  405c28:	6063      	str	r3, [r4, #4]
  405c2a:	61a3      	str	r3, [r4, #24]
  405c2c:	89a3      	ldrh	r3, [r4, #12]
  405c2e:	f003 0380 	and.w	r3, r3, #128	; 0x80
  405c32:	b21b      	sxth	r3, r3
  405c34:	b123      	cbz	r3, 405c40 <setvbuf+0x48>
  405c36:	4b29      	ldr	r3, [pc, #164]	; (405cdc <setvbuf+0xe4>)
  405c38:	6921      	ldr	r1, [r4, #16]
  405c3a:	6818      	ldr	r0, [r3, #0]
  405c3c:	f001 fd2e 	bl	40769c <_free_r>
  405c40:	89a3      	ldrh	r3, [r4, #12]
  405c42:	2f02      	cmp	r7, #2
  405c44:	f023 0383 	bic.w	r3, r3, #131	; 0x83
  405c48:	81a3      	strh	r3, [r4, #12]
  405c4a:	d012      	beq.n	405c72 <setvbuf+0x7a>
  405c4c:	bb36      	cbnz	r6, 405c9c <setvbuf+0xa4>
  405c4e:	2d00      	cmp	r5, #0
  405c50:	bf08      	it	eq
  405c52:	f44f 6580 	moveq.w	r5, #1024	; 0x400
  405c56:	4628      	mov	r0, r5
  405c58:	f002 f822 	bl	407ca0 <malloc>
  405c5c:	4606      	mov	r6, r0
  405c5e:	b9c8      	cbnz	r0, 405c94 <setvbuf+0x9c>
  405c60:	f44f 6080 	mov.w	r0, #1024	; 0x400
  405c64:	f002 f81c 	bl	407ca0 <malloc>
  405c68:	4606      	mov	r6, r0
  405c6a:	b988      	cbnz	r0, 405c90 <setvbuf+0x98>
  405c6c:	f04f 30ff 	mov.w	r0, #4294967295
  405c70:	e000      	b.n	405c74 <setvbuf+0x7c>
  405c72:	2000      	movs	r0, #0
  405c74:	89a3      	ldrh	r3, [r4, #12]
  405c76:	f043 0302 	orr.w	r3, r3, #2
  405c7a:	81a3      	strh	r3, [r4, #12]
  405c7c:	2300      	movs	r3, #0
  405c7e:	60a3      	str	r3, [r4, #8]
  405c80:	f104 0343 	add.w	r3, r4, #67	; 0x43
  405c84:	6023      	str	r3, [r4, #0]
  405c86:	6123      	str	r3, [r4, #16]
  405c88:	2301      	movs	r3, #1
  405c8a:	6163      	str	r3, [r4, #20]
  405c8c:	e8bd 81f0 	ldmia.w	sp!, {r4, r5, r6, r7, r8, pc}
  405c90:	f44f 6580 	mov.w	r5, #1024	; 0x400
  405c94:	89a3      	ldrh	r3, [r4, #12]
  405c96:	f043 0380 	orr.w	r3, r3, #128	; 0x80
  405c9a:	81a3      	strh	r3, [r4, #12]
  405c9c:	2f01      	cmp	r7, #1
  405c9e:	d105      	bne.n	405cac <setvbuf+0xb4>
  405ca0:	89a3      	ldrh	r3, [r4, #12]
  405ca2:	f043 0301 	orr.w	r3, r3, #1
  405ca6:	81a3      	strh	r3, [r4, #12]
  405ca8:	426b      	negs	r3, r5
  405caa:	61a3      	str	r3, [r4, #24]
  405cac:	4b0b      	ldr	r3, [pc, #44]	; (405cdc <setvbuf+0xe4>)
  405cae:	4a0c      	ldr	r2, [pc, #48]	; (405ce0 <setvbuf+0xe8>)
  405cb0:	681b      	ldr	r3, [r3, #0]
  405cb2:	63da      	str	r2, [r3, #60]	; 0x3c
  405cb4:	89a3      	ldrh	r3, [r4, #12]
  405cb6:	6026      	str	r6, [r4, #0]
  405cb8:	f003 0008 	and.w	r0, r3, #8
  405cbc:	b200      	sxth	r0, r0
  405cbe:	6126      	str	r6, [r4, #16]
  405cc0:	6165      	str	r5, [r4, #20]
  405cc2:	b148      	cbz	r0, 405cd8 <setvbuf+0xe0>
  405cc4:	f013 0f03 	tst.w	r3, #3
  405cc8:	bf18      	it	ne
  405cca:	2500      	movne	r5, #0
  405ccc:	60a5      	str	r5, [r4, #8]
  405cce:	2000      	movs	r0, #0
  405cd0:	e8bd 81f0 	ldmia.w	sp!, {r4, r5, r6, r7, r8, pc}
  405cd4:	f04f 30ff 	mov.w	r0, #4294967295
  405cd8:	e8bd 81f0 	ldmia.w	sp!, {r4, r5, r6, r7, r8, pc}
  405cdc:	20000110 	.word	0x20000110
  405ce0:	00407399 	.word	0x00407399

00405ce4 <strlen>:
  405ce4:	4603      	mov	r3, r0
  405ce6:	f813 2b01 	ldrb.w	r2, [r3], #1
  405cea:	2a00      	cmp	r2, #0
  405cec:	d1fb      	bne.n	405ce6 <strlen+0x2>
  405cee:	1a18      	subs	r0, r3, r0
  405cf0:	3801      	subs	r0, #1
  405cf2:	4770      	bx	lr

00405cf4 <__sprint_r>:
  405cf4:	6893      	ldr	r3, [r2, #8]
  405cf6:	e92d 47f0 	stmdb	sp!, {r4, r5, r6, r7, r8, r9, sl, lr}
  405cfa:	4681      	mov	r9, r0
  405cfc:	460f      	mov	r7, r1
  405cfe:	4614      	mov	r4, r2
  405d00:	b91b      	cbnz	r3, 405d0a <__sprint_r+0x16>
  405d02:	6053      	str	r3, [r2, #4]
  405d04:	4618      	mov	r0, r3
  405d06:	e8bd 87f0 	ldmia.w	sp!, {r4, r5, r6, r7, r8, r9, sl, pc}
  405d0a:	6e4b      	ldr	r3, [r1, #100]	; 0x64
  405d0c:	049b      	lsls	r3, r3, #18
  405d0e:	d520      	bpl.n	405d52 <__sprint_r+0x5e>
  405d10:	6815      	ldr	r5, [r2, #0]
  405d12:	e018      	b.n	405d46 <__sprint_r+0x52>
  405d14:	f855 3c04 	ldr.w	r3, [r5, #-4]
  405d18:	f855 ac08 	ldr.w	sl, [r5, #-8]
  405d1c:	ea4f 0893 	mov.w	r8, r3, lsr #2
  405d20:	2600      	movs	r6, #0
  405d22:	e008      	b.n	405d36 <__sprint_r+0x42>
  405d24:	4648      	mov	r0, r9
  405d26:	f85a 1026 	ldr.w	r1, [sl, r6, lsl #2]
  405d2a:	463a      	mov	r2, r7
  405d2c:	f001 fbf6 	bl	40751c <_fputwc_r>
  405d30:	1c43      	adds	r3, r0, #1
  405d32:	d010      	beq.n	405d56 <__sprint_r+0x62>
  405d34:	3601      	adds	r6, #1
  405d36:	4546      	cmp	r6, r8
  405d38:	dbf4      	blt.n	405d24 <__sprint_r+0x30>
  405d3a:	68a3      	ldr	r3, [r4, #8]
  405d3c:	ea4f 0888 	mov.w	r8, r8, lsl #2
  405d40:	ebc8 0303 	rsb	r3, r8, r3
  405d44:	60a3      	str	r3, [r4, #8]
  405d46:	68a3      	ldr	r3, [r4, #8]
  405d48:	3508      	adds	r5, #8
  405d4a:	2b00      	cmp	r3, #0
  405d4c:	d1e2      	bne.n	405d14 <__sprint_r+0x20>
  405d4e:	4618      	mov	r0, r3
  405d50:	e001      	b.n	405d56 <__sprint_r+0x62>
  405d52:	f001 fd57 	bl	407804 <__sfvwrite_r>
  405d56:	2300      	movs	r3, #0
  405d58:	60a3      	str	r3, [r4, #8]
  405d5a:	6063      	str	r3, [r4, #4]
  405d5c:	e8bd 87f0 	ldmia.w	sp!, {r4, r5, r6, r7, r8, r9, sl, pc}

00405d60 <_vfiprintf_r>:
  405d60:	e92d 4ff0 	stmdb	sp!, {r4, r5, r6, r7, r8, r9, sl, fp, lr}
  405d64:	f2ad 4dd4 	subw	sp, sp, #1236	; 0x4d4
  405d68:	460e      	mov	r6, r1
  405d6a:	4615      	mov	r5, r2
  405d6c:	461c      	mov	r4, r3
  405d6e:	9002      	str	r0, [sp, #8]
  405d70:	b118      	cbz	r0, 405d7a <_vfiprintf_r+0x1a>
  405d72:	6b83      	ldr	r3, [r0, #56]	; 0x38
  405d74:	b90b      	cbnz	r3, 405d7a <_vfiprintf_r+0x1a>
  405d76:	f001 fb55 	bl	407424 <__sinit>
  405d7a:	89b3      	ldrh	r3, [r6, #12]
  405d7c:	f403 5200 	and.w	r2, r3, #8192	; 0x2000
  405d80:	b212      	sxth	r2, r2
  405d82:	b932      	cbnz	r2, 405d92 <_vfiprintf_r+0x32>
  405d84:	f443 5300 	orr.w	r3, r3, #8192	; 0x2000
  405d88:	81b3      	strh	r3, [r6, #12]
  405d8a:	6e73      	ldr	r3, [r6, #100]	; 0x64
  405d8c:	f423 5300 	bic.w	r3, r3, #8192	; 0x2000
  405d90:	6673      	str	r3, [r6, #100]	; 0x64
  405d92:	89b3      	ldrh	r3, [r6, #12]
  405d94:	f003 0308 	and.w	r3, r3, #8
  405d98:	b21b      	sxth	r3, r3
  405d9a:	b13b      	cbz	r3, 405dac <_vfiprintf_r+0x4c>
  405d9c:	6933      	ldr	r3, [r6, #16]
  405d9e:	b12b      	cbz	r3, 405dac <_vfiprintf_r+0x4c>
  405da0:	89b2      	ldrh	r2, [r6, #12]
  405da2:	f002 031a 	and.w	r3, r2, #26
  405da6:	2b0a      	cmp	r3, #10
  405da8:	d144      	bne.n	405e34 <_vfiprintf_r+0xd4>
  405daa:	e00a      	b.n	405dc2 <_vfiprintf_r+0x62>
  405dac:	9802      	ldr	r0, [sp, #8]
  405dae:	4631      	mov	r1, r6
  405db0:	f001 f988 	bl	4070c4 <__swsetup_r>
  405db4:	2800      	cmp	r0, #0
  405db6:	d0f3      	beq.n	405da0 <_vfiprintf_r+0x40>
  405db8:	f04f 30ff 	mov.w	r0, #4294967295
  405dbc:	9004      	str	r0, [sp, #16]
  405dbe:	f000 bc67 	b.w	406690 <_vfiprintf_r+0x930>
  405dc2:	89f3      	ldrh	r3, [r6, #14]
  405dc4:	0419      	lsls	r1, r3, #16
  405dc6:	d435      	bmi.n	405e34 <_vfiprintf_r+0xd4>
  405dc8:	f8ad 3076 	strh.w	r3, [sp, #118]	; 0x76
  405dcc:	69f3      	ldr	r3, [r6, #28]
  405dce:	f022 0202 	bic.w	r2, r2, #2
  405dd2:	9321      	str	r3, [sp, #132]	; 0x84
  405dd4:	6a73      	ldr	r3, [r6, #36]	; 0x24
  405dd6:	f8ad 2074 	strh.w	r2, [sp, #116]	; 0x74
  405dda:	9323      	str	r3, [sp, #140]	; 0x8c
  405ddc:	ab34      	add	r3, sp, #208	; 0xd0
  405dde:	6e72      	ldr	r2, [r6, #100]	; 0x64
  405de0:	931a      	str	r3, [sp, #104]	; 0x68
  405de2:	931e      	str	r3, [sp, #120]	; 0x78
  405de4:	f44f 6380 	mov.w	r3, #1024	; 0x400
  405de8:	931c      	str	r3, [sp, #112]	; 0x70
  405dea:	931f      	str	r3, [sp, #124]	; 0x7c
  405dec:	2300      	movs	r3, #0
  405dee:	9233      	str	r2, [sp, #204]	; 0xcc
  405df0:	9320      	str	r3, [sp, #128]	; 0x80
  405df2:	9802      	ldr	r0, [sp, #8]
  405df4:	a91a      	add	r1, sp, #104	; 0x68
  405df6:	462a      	mov	r2, r5
  405df8:	4623      	mov	r3, r4
  405dfa:	f7ff ffb1 	bl	405d60 <_vfiprintf_r>
  405dfe:	2800      	cmp	r0, #0
  405e00:	9004      	str	r0, [sp, #16]
  405e02:	db09      	blt.n	405e18 <_vfiprintf_r+0xb8>
  405e04:	a91a      	add	r1, sp, #104	; 0x68
  405e06:	9802      	ldr	r0, [sp, #8]
  405e08:	f001 fa18 	bl	40723c <_fflush_r>
  405e0c:	9904      	ldr	r1, [sp, #16]
  405e0e:	2800      	cmp	r0, #0
  405e10:	bf18      	it	ne
  405e12:	f04f 31ff 	movne.w	r1, #4294967295
  405e16:	9104      	str	r1, [sp, #16]
  405e18:	f8bd 3074 	ldrh.w	r3, [sp, #116]	; 0x74
  405e1c:	f003 0340 	and.w	r3, r3, #64	; 0x40
  405e20:	b21b      	sxth	r3, r3
  405e22:	2b00      	cmp	r3, #0
  405e24:	f000 8434 	beq.w	406690 <_vfiprintf_r+0x930>
  405e28:	89b3      	ldrh	r3, [r6, #12]
  405e2a:	f043 0340 	orr.w	r3, r3, #64	; 0x40
  405e2e:	81b3      	strh	r3, [r6, #12]
  405e30:	f000 bc2e 	b.w	406690 <_vfiprintf_r+0x930>
  405e34:	2300      	movs	r3, #0
  405e36:	aa34      	add	r2, sp, #208	; 0xd0
  405e38:	920d      	str	r2, [sp, #52]	; 0x34
  405e3a:	930f      	str	r3, [sp, #60]	; 0x3c
  405e3c:	930e      	str	r3, [sp, #56]	; 0x38
  405e3e:	9503      	str	r5, [sp, #12]
  405e40:	9307      	str	r3, [sp, #28]
  405e42:	9304      	str	r3, [sp, #16]
  405e44:	4693      	mov	fp, r2
  405e46:	9b03      	ldr	r3, [sp, #12]
  405e48:	461d      	mov	r5, r3
  405e4a:	f813 2b01 	ldrb.w	r2, [r3], #1
  405e4e:	b91a      	cbnz	r2, 405e58 <_vfiprintf_r+0xf8>
  405e50:	9a03      	ldr	r2, [sp, #12]
  405e52:	1aaf      	subs	r7, r5, r2
  405e54:	d103      	bne.n	405e5e <_vfiprintf_r+0xfe>
  405e56:	e01d      	b.n	405e94 <_vfiprintf_r+0x134>
  405e58:	2a25      	cmp	r2, #37	; 0x25
  405e5a:	d1f5      	bne.n	405e48 <_vfiprintf_r+0xe8>
  405e5c:	e7f8      	b.n	405e50 <_vfiprintf_r+0xf0>
  405e5e:	9b03      	ldr	r3, [sp, #12]
  405e60:	e88b 0088 	stmia.w	fp, {r3, r7}
  405e64:	9b0f      	ldr	r3, [sp, #60]	; 0x3c
  405e66:	19db      	adds	r3, r3, r7
  405e68:	930f      	str	r3, [sp, #60]	; 0x3c
  405e6a:	9b0e      	ldr	r3, [sp, #56]	; 0x38
  405e6c:	3301      	adds	r3, #1
  405e6e:	2b07      	cmp	r3, #7
  405e70:	930e      	str	r3, [sp, #56]	; 0x38
  405e72:	dc02      	bgt.n	405e7a <_vfiprintf_r+0x11a>
  405e74:	f10b 0b08 	add.w	fp, fp, #8
  405e78:	e009      	b.n	405e8e <_vfiprintf_r+0x12e>
  405e7a:	9802      	ldr	r0, [sp, #8]
  405e7c:	4631      	mov	r1, r6
  405e7e:	aa0d      	add	r2, sp, #52	; 0x34
  405e80:	f7ff ff38 	bl	405cf4 <__sprint_r>
  405e84:	2800      	cmp	r0, #0
  405e86:	f040 83fc 	bne.w	406682 <_vfiprintf_r+0x922>
  405e8a:	f10d 0bd0 	add.w	fp, sp, #208	; 0xd0
  405e8e:	9804      	ldr	r0, [sp, #16]
  405e90:	19c0      	adds	r0, r0, r7
  405e92:	9004      	str	r0, [sp, #16]
  405e94:	782b      	ldrb	r3, [r5, #0]
  405e96:	2b00      	cmp	r3, #0
  405e98:	f000 83ec 	beq.w	406674 <_vfiprintf_r+0x914>
  405e9c:	3501      	adds	r5, #1
  405e9e:	2300      	movs	r3, #0
  405ea0:	2100      	movs	r1, #0
  405ea2:	9503      	str	r5, [sp, #12]
  405ea4:	f88d 102f 	strb.w	r1, [sp, #47]	; 0x2f
  405ea8:	f04f 3aff 	mov.w	sl, #4294967295
  405eac:	9306      	str	r3, [sp, #24]
  405eae:	461d      	mov	r5, r3
  405eb0:	200a      	movs	r0, #10
  405eb2:	e004      	b.n	405ebe <_vfiprintf_r+0x15e>
  405eb4:	4663      	mov	r3, ip
  405eb6:	e002      	b.n	405ebe <_vfiprintf_r+0x15e>
  405eb8:	4614      	mov	r4, r2
  405eba:	f04f 3aff 	mov.w	sl, #4294967295
  405ebe:	9a03      	ldr	r2, [sp, #12]
  405ec0:	f812 cb01 	ldrb.w	ip, [r2], #1
  405ec4:	9203      	str	r2, [sp, #12]
  405ec6:	f1bc 0f63 	cmp.w	ip, #99	; 0x63
  405eca:	f000 80c1 	beq.w	406050 <_vfiprintf_r+0x2f0>
  405ece:	dc34      	bgt.n	405f3a <_vfiprintf_r+0x1da>
  405ed0:	f1bc 0f39 	cmp.w	ip, #57	; 0x39
  405ed4:	dc1e      	bgt.n	405f14 <_vfiprintf_r+0x1b4>
  405ed6:	f1bc 0f31 	cmp.w	ip, #49	; 0x31
  405eda:	f280 809a 	bge.w	406012 <_vfiprintf_r+0x2b2>
  405ede:	f1bc 0f2b 	cmp.w	ip, #43	; 0x2b
  405ee2:	d0e7      	beq.n	405eb4 <_vfiprintf_r+0x154>
  405ee4:	dc0a      	bgt.n	405efc <_vfiprintf_r+0x19c>
  405ee6:	f1bc 0f23 	cmp.w	ip, #35	; 0x23
  405eea:	d061      	beq.n	405fb0 <_vfiprintf_r+0x250>
  405eec:	f1bc 0f2a 	cmp.w	ip, #42	; 0x2a
  405ef0:	d061      	beq.n	405fb6 <_vfiprintf_r+0x256>
  405ef2:	f1bc 0f20 	cmp.w	ip, #32
  405ef6:	f040 821b 	bne.w	406330 <_vfiprintf_r+0x5d0>
  405efa:	e055      	b.n	405fa8 <_vfiprintf_r+0x248>
  405efc:	f1bc 0f2e 	cmp.w	ip, #46	; 0x2e
  405f00:	d064      	beq.n	405fcc <_vfiprintf_r+0x26c>
  405f02:	f1bc 0f30 	cmp.w	ip, #48	; 0x30
  405f06:	f000 8081 	beq.w	40600c <_vfiprintf_r+0x2ac>
  405f0a:	f1bc 0f2d 	cmp.w	ip, #45	; 0x2d
  405f0e:	f040 820f 	bne.w	406330 <_vfiprintf_r+0x5d0>
  405f12:	e058      	b.n	405fc6 <_vfiprintf_r+0x266>
  405f14:	f1bc 0f4f 	cmp.w	ip, #79	; 0x4f
  405f18:	f000 80f1 	beq.w	4060fe <_vfiprintf_r+0x39e>
  405f1c:	dc04      	bgt.n	405f28 <_vfiprintf_r+0x1c8>
  405f1e:	f1bc 0f44 	cmp.w	ip, #68	; 0x44
  405f22:	f040 8205 	bne.w	406330 <_vfiprintf_r+0x5d0>
  405f26:	e09b      	b.n	406060 <_vfiprintf_r+0x300>
  405f28:	f1bc 0f55 	cmp.w	ip, #85	; 0x55
  405f2c:	f000 8135 	beq.w	40619a <_vfiprintf_r+0x43a>
  405f30:	f1bc 0f58 	cmp.w	ip, #88	; 0x58
  405f34:	f040 81fc 	bne.w	406330 <_vfiprintf_r+0x5d0>
  405f38:	e032      	b.n	405fa0 <_vfiprintf_r+0x240>
  405f3a:	f1bc 0f6f 	cmp.w	ip, #111	; 0x6f
  405f3e:	f000 80e0 	beq.w	406102 <_vfiprintf_r+0x3a2>
  405f42:	dc13      	bgt.n	405f6c <_vfiprintf_r+0x20c>
  405f44:	f1bc 0f69 	cmp.w	ip, #105	; 0x69
  405f48:	d027      	beq.n	405f9a <_vfiprintf_r+0x23a>
  405f4a:	dc07      	bgt.n	405f5c <_vfiprintf_r+0x1fc>
  405f4c:	f1bc 0f64 	cmp.w	ip, #100	; 0x64
  405f50:	d023      	beq.n	405f9a <_vfiprintf_r+0x23a>
  405f52:	f1bc 0f68 	cmp.w	ip, #104	; 0x68
  405f56:	f040 81eb 	bne.w	406330 <_vfiprintf_r+0x5d0>
  405f5a:	e069      	b.n	406030 <_vfiprintf_r+0x2d0>
  405f5c:	f1bc 0f6c 	cmp.w	ip, #108	; 0x6c
  405f60:	d069      	beq.n	406036 <_vfiprintf_r+0x2d6>
  405f62:	f1bc 0f6e 	cmp.w	ip, #110	; 0x6e
  405f66:	f040 81e3 	bne.w	406330 <_vfiprintf_r+0x5d0>
  405f6a:	e0a7      	b.n	4060bc <_vfiprintf_r+0x35c>
  405f6c:	f1bc 0f73 	cmp.w	ip, #115	; 0x73
  405f70:	f000 80f8 	beq.w	406164 <_vfiprintf_r+0x404>
  405f74:	dc08      	bgt.n	405f88 <_vfiprintf_r+0x228>
  405f76:	f1bc 0f70 	cmp.w	ip, #112	; 0x70
  405f7a:	f000 80e3 	beq.w	406144 <_vfiprintf_r+0x3e4>
  405f7e:	f1bc 0f71 	cmp.w	ip, #113	; 0x71
  405f82:	f040 81d5 	bne.w	406330 <_vfiprintf_r+0x5d0>
  405f86:	e060      	b.n	40604a <_vfiprintf_r+0x2ea>
  405f88:	f1bc 0f75 	cmp.w	ip, #117	; 0x75
  405f8c:	f000 8107 	beq.w	40619e <_vfiprintf_r+0x43e>
  405f90:	f1bc 0f78 	cmp.w	ip, #120	; 0x78
  405f94:	f040 81cc 	bne.w	406330 <_vfiprintf_r+0x5d0>
  405f98:	e11d      	b.n	4061d6 <_vfiprintf_r+0x476>
  405f9a:	f88d 302f 	strb.w	r3, [sp, #47]	; 0x2f
  405f9e:	e063      	b.n	406068 <_vfiprintf_r+0x308>
  405fa0:	f88d 302f 	strb.w	r3, [sp, #47]	; 0x2f
  405fa4:	4ba3      	ldr	r3, [pc, #652]	; (406234 <_vfiprintf_r+0x4d4>)
  405fa6:	e119      	b.n	4061dc <_vfiprintf_r+0x47c>
  405fa8:	2b00      	cmp	r3, #0
  405faa:	bf08      	it	eq
  405fac:	2320      	moveq	r3, #32
  405fae:	e786      	b.n	405ebe <_vfiprintf_r+0x15e>
  405fb0:	f045 0501 	orr.w	r5, r5, #1
  405fb4:	e783      	b.n	405ebe <_vfiprintf_r+0x15e>
  405fb6:	1d22      	adds	r2, r4, #4
  405fb8:	6824      	ldr	r4, [r4, #0]
  405fba:	2c00      	cmp	r4, #0
  405fbc:	9406      	str	r4, [sp, #24]
  405fbe:	da13      	bge.n	405fe8 <_vfiprintf_r+0x288>
  405fc0:	4261      	negs	r1, r4
  405fc2:	9106      	str	r1, [sp, #24]
  405fc4:	4614      	mov	r4, r2
  405fc6:	f045 0504 	orr.w	r5, r5, #4
  405fca:	e778      	b.n	405ebe <_vfiprintf_r+0x15e>
  405fcc:	9a03      	ldr	r2, [sp, #12]
  405fce:	f812 cb01 	ldrb.w	ip, [r2], #1
  405fd2:	f1bc 0f2a 	cmp.w	ip, #42	; 0x2a
  405fd6:	9203      	str	r2, [sp, #12]
  405fd8:	d10f      	bne.n	405ffa <_vfiprintf_r+0x29a>
  405fda:	f8d4 a000 	ldr.w	sl, [r4]
  405fde:	1d22      	adds	r2, r4, #4
  405fe0:	f1ba 0f00 	cmp.w	sl, #0
  405fe4:	f6ff af68 	blt.w	405eb8 <_vfiprintf_r+0x158>
  405fe8:	4614      	mov	r4, r2
  405fea:	e768      	b.n	405ebe <_vfiprintf_r+0x15e>
  405fec:	9903      	ldr	r1, [sp, #12]
  405fee:	fb00 2a0a 	mla	sl, r0, sl, r2
  405ff2:	f811 cb01 	ldrb.w	ip, [r1], #1
  405ff6:	9103      	str	r1, [sp, #12]
  405ff8:	e001      	b.n	405ffe <_vfiprintf_r+0x29e>
  405ffa:	f04f 0a00 	mov.w	sl, #0
  405ffe:	f1ac 0230 	sub.w	r2, ip, #48	; 0x30
  406002:	2a09      	cmp	r2, #9
  406004:	d9f2      	bls.n	405fec <_vfiprintf_r+0x28c>
  406006:	ea4a 7aea 	orr.w	sl, sl, sl, asr #31
  40600a:	e75c      	b.n	405ec6 <_vfiprintf_r+0x166>
  40600c:	f045 0580 	orr.w	r5, r5, #128	; 0x80
  406010:	e755      	b.n	405ebe <_vfiprintf_r+0x15e>
  406012:	9903      	ldr	r1, [sp, #12]
  406014:	2200      	movs	r2, #0
  406016:	f1ac 0c30 	sub.w	ip, ip, #48	; 0x30
  40601a:	fb00 c202 	mla	r2, r0, r2, ip
  40601e:	f811 cb01 	ldrb.w	ip, [r1], #1
  406022:	f1ac 0730 	sub.w	r7, ip, #48	; 0x30
  406026:	2f09      	cmp	r7, #9
  406028:	9103      	str	r1, [sp, #12]
  40602a:	d9f4      	bls.n	406016 <_vfiprintf_r+0x2b6>
  40602c:	9206      	str	r2, [sp, #24]
  40602e:	e74a      	b.n	405ec6 <_vfiprintf_r+0x166>
  406030:	f045 0540 	orr.w	r5, r5, #64	; 0x40
  406034:	e743      	b.n	405ebe <_vfiprintf_r+0x15e>
  406036:	9903      	ldr	r1, [sp, #12]
  406038:	780a      	ldrb	r2, [r1, #0]
  40603a:	2a6c      	cmp	r2, #108	; 0x6c
  40603c:	d102      	bne.n	406044 <_vfiprintf_r+0x2e4>
  40603e:	3101      	adds	r1, #1
  406040:	9103      	str	r1, [sp, #12]
  406042:	e002      	b.n	40604a <_vfiprintf_r+0x2ea>
  406044:	f045 0510 	orr.w	r5, r5, #16
  406048:	e739      	b.n	405ebe <_vfiprintf_r+0x15e>
  40604a:	f045 0520 	orr.w	r5, r5, #32
  40604e:	e736      	b.n	405ebe <_vfiprintf_r+0x15e>
  406050:	6823      	ldr	r3, [r4, #0]
  406052:	2200      	movs	r2, #0
  406054:	f88d 3040 	strb.w	r3, [sp, #64]	; 0x40
  406058:	f88d 202f 	strb.w	r2, [sp, #47]	; 0x2f
  40605c:	3404      	adds	r4, #4
  40605e:	e172      	b.n	406346 <_vfiprintf_r+0x5e6>
  406060:	f88d 302f 	strb.w	r3, [sp, #47]	; 0x2f
  406064:	f045 0510 	orr.w	r5, r5, #16
  406068:	06aa      	lsls	r2, r5, #26
  40606a:	d507      	bpl.n	40607c <_vfiprintf_r+0x31c>
  40606c:	3407      	adds	r4, #7
  40606e:	f024 0307 	bic.w	r3, r4, #7
  406072:	f103 0408 	add.w	r4, r3, #8
  406076:	e9d3 8900 	ldrd	r8, r9, [r3]
  40607a:	e011      	b.n	4060a0 <_vfiprintf_r+0x340>
  40607c:	f015 0f10 	tst.w	r5, #16
  406080:	f104 0304 	add.w	r3, r4, #4
  406084:	d001      	beq.n	40608a <_vfiprintf_r+0x32a>
  406086:	6822      	ldr	r2, [r4, #0]
  406088:	e006      	b.n	406098 <_vfiprintf_r+0x338>
  40608a:	f015 0f40 	tst.w	r5, #64	; 0x40
  40608e:	6822      	ldr	r2, [r4, #0]
  406090:	d002      	beq.n	406098 <_vfiprintf_r+0x338>
  406092:	fa0f f882 	sxth.w	r8, r2
  406096:	e000      	b.n	40609a <_vfiprintf_r+0x33a>
  406098:	4690      	mov	r8, r2
  40609a:	ea4f 79e8 	mov.w	r9, r8, asr #31
  40609e:	461c      	mov	r4, r3
  4060a0:	f1b8 0f00 	cmp.w	r8, #0
  4060a4:	f179 0300 	sbcs.w	r3, r9, #0
  4060a8:	f280 80c8 	bge.w	40623c <_vfiprintf_r+0x4dc>
  4060ac:	232d      	movs	r3, #45	; 0x2d
  4060ae:	f1d8 0800 	rsbs	r8, r8, #0
  4060b2:	eb69 0949 	sbc.w	r9, r9, r9, lsl #1
  4060b6:	f88d 302f 	strb.w	r3, [sp, #47]	; 0x2f
  4060ba:	e0bf      	b.n	40623c <_vfiprintf_r+0x4dc>
  4060bc:	f015 0f20 	tst.w	r5, #32
  4060c0:	f88d 302f 	strb.w	r3, [sp, #47]	; 0x2f
  4060c4:	f104 0204 	add.w	r2, r4, #4
  4060c8:	d005      	beq.n	4060d6 <_vfiprintf_r+0x376>
  4060ca:	9b04      	ldr	r3, [sp, #16]
  4060cc:	6821      	ldr	r1, [r4, #0]
  4060ce:	17d8      	asrs	r0, r3, #31
  4060d0:	600b      	str	r3, [r1, #0]
  4060d2:	6048      	str	r0, [r1, #4]
  4060d4:	e004      	b.n	4060e0 <_vfiprintf_r+0x380>
  4060d6:	06eb      	lsls	r3, r5, #27
  4060d8:	d504      	bpl.n	4060e4 <_vfiprintf_r+0x384>
  4060da:	6823      	ldr	r3, [r4, #0]
  4060dc:	9804      	ldr	r0, [sp, #16]
  4060de:	6018      	str	r0, [r3, #0]
  4060e0:	4614      	mov	r4, r2
  4060e2:	e6b0      	b.n	405e46 <_vfiprintf_r+0xe6>
  4060e4:	f015 0f40 	tst.w	r5, #64	; 0x40
  4060e8:	6822      	ldr	r2, [r4, #0]
  4060ea:	bf14      	ite	ne
  4060ec:	9904      	ldrne	r1, [sp, #16]
  4060ee:	9804      	ldreq	r0, [sp, #16]
  4060f0:	f104 0304 	add.w	r3, r4, #4
  4060f4:	bf14      	ite	ne
  4060f6:	8011      	strhne	r1, [r2, #0]
  4060f8:	6010      	streq	r0, [r2, #0]
  4060fa:	461c      	mov	r4, r3
  4060fc:	e6a3      	b.n	405e46 <_vfiprintf_r+0xe6>
  4060fe:	f045 0510 	orr.w	r5, r5, #16
  406102:	f015 0320 	ands.w	r3, r5, #32
  406106:	d008      	beq.n	40611a <_vfiprintf_r+0x3ba>
  406108:	3407      	adds	r4, #7
  40610a:	f024 0307 	bic.w	r3, r4, #7
  40610e:	f103 0408 	add.w	r4, r3, #8
  406112:	e9d3 8900 	ldrd	r8, r9, [r3]
  406116:	2300      	movs	r3, #0
  406118:	e088      	b.n	40622c <_vfiprintf_r+0x4cc>
  40611a:	f015 0110 	ands.w	r1, r5, #16
  40611e:	f104 0204 	add.w	r2, r4, #4
  406122:	d000      	beq.n	406126 <_vfiprintf_r+0x3c6>
  406124:	e008      	b.n	406138 <_vfiprintf_r+0x3d8>
  406126:	f015 0340 	ands.w	r3, r5, #64	; 0x40
  40612a:	d005      	beq.n	406138 <_vfiprintf_r+0x3d8>
  40612c:	f8b4 8000 	ldrh.w	r8, [r4]
  406130:	f04f 0900 	mov.w	r9, #0
  406134:	4614      	mov	r4, r2
  406136:	e7ee      	b.n	406116 <_vfiprintf_r+0x3b6>
  406138:	6821      	ldr	r1, [r4, #0]
  40613a:	f04f 0900 	mov.w	r9, #0
  40613e:	4688      	mov	r8, r1
  406140:	4614      	mov	r4, r2
  406142:	e073      	b.n	40622c <_vfiprintf_r+0x4cc>
  406144:	6823      	ldr	r3, [r4, #0]
  406146:	493c      	ldr	r1, [pc, #240]	; (406238 <_vfiprintf_r+0x4d8>)
  406148:	4698      	mov	r8, r3
  40614a:	2330      	movs	r3, #48	; 0x30
  40614c:	f88d 3030 	strb.w	r3, [sp, #48]	; 0x30
  406150:	2378      	movs	r3, #120	; 0x78
  406152:	f04f 0900 	mov.w	r9, #0
  406156:	f045 0502 	orr.w	r5, r5, #2
  40615a:	f88d 3031 	strb.w	r3, [sp, #49]	; 0x31
  40615e:	3404      	adds	r4, #4
  406160:	9107      	str	r1, [sp, #28]
  406162:	e062      	b.n	40622a <_vfiprintf_r+0x4ca>
  406164:	4623      	mov	r3, r4
  406166:	681f      	ldr	r7, [r3, #0]
  406168:	2200      	movs	r2, #0
  40616a:	3404      	adds	r4, #4
  40616c:	f1ba 0f00 	cmp.w	sl, #0
  406170:	f88d 202f 	strb.w	r2, [sp, #47]	; 0x2f
  406174:	4638      	mov	r0, r7
  406176:	db0c      	blt.n	406192 <_vfiprintf_r+0x432>
  406178:	2100      	movs	r1, #0
  40617a:	4652      	mov	r2, sl
  40617c:	f001 ff9c 	bl	4080b8 <memchr>
  406180:	2800      	cmp	r0, #0
  406182:	f000 80e6 	beq.w	406352 <_vfiprintf_r+0x5f2>
  406186:	ebc7 0900 	rsb	r9, r7, r0
  40618a:	45d1      	cmp	r9, sl
  40618c:	f300 80e4 	bgt.w	406358 <_vfiprintf_r+0x5f8>
  406190:	e0e3      	b.n	40635a <_vfiprintf_r+0x5fa>
  406192:	f7ff fda7 	bl	405ce4 <strlen>
  406196:	4681      	mov	r9, r0
  406198:	e0df      	b.n	40635a <_vfiprintf_r+0x5fa>
  40619a:	f045 0510 	orr.w	r5, r5, #16
  40619e:	06af      	lsls	r7, r5, #26
  4061a0:	d507      	bpl.n	4061b2 <_vfiprintf_r+0x452>
  4061a2:	3407      	adds	r4, #7
  4061a4:	f024 0307 	bic.w	r3, r4, #7
  4061a8:	f103 0408 	add.w	r4, r3, #8
  4061ac:	e9d3 8900 	ldrd	r8, r9, [r3]
  4061b0:	e00f      	b.n	4061d2 <_vfiprintf_r+0x472>
  4061b2:	f015 0f10 	tst.w	r5, #16
  4061b6:	f104 0304 	add.w	r3, r4, #4
  4061ba:	d000      	beq.n	4061be <_vfiprintf_r+0x45e>
  4061bc:	e004      	b.n	4061c8 <_vfiprintf_r+0x468>
  4061be:	0668      	lsls	r0, r5, #25
  4061c0:	d502      	bpl.n	4061c8 <_vfiprintf_r+0x468>
  4061c2:	f8b4 8000 	ldrh.w	r8, [r4]
  4061c6:	e001      	b.n	4061cc <_vfiprintf_r+0x46c>
  4061c8:	6822      	ldr	r2, [r4, #0]
  4061ca:	4690      	mov	r8, r2
  4061cc:	f04f 0900 	mov.w	r9, #0
  4061d0:	461c      	mov	r4, r3
  4061d2:	2301      	movs	r3, #1
  4061d4:	e02a      	b.n	40622c <_vfiprintf_r+0x4cc>
  4061d6:	f88d 302f 	strb.w	r3, [sp, #47]	; 0x2f
  4061da:	4b17      	ldr	r3, [pc, #92]	; (406238 <_vfiprintf_r+0x4d8>)
  4061dc:	06a9      	lsls	r1, r5, #26
  4061de:	9307      	str	r3, [sp, #28]
  4061e0:	d507      	bpl.n	4061f2 <_vfiprintf_r+0x492>
  4061e2:	3407      	adds	r4, #7
  4061e4:	f024 0307 	bic.w	r3, r4, #7
  4061e8:	f103 0408 	add.w	r4, r3, #8
  4061ec:	e9d3 8900 	ldrd	r8, r9, [r3]
  4061f0:	e00f      	b.n	406212 <_vfiprintf_r+0x4b2>
  4061f2:	f015 0f10 	tst.w	r5, #16
  4061f6:	f104 0304 	add.w	r3, r4, #4
  4061fa:	d000      	beq.n	4061fe <_vfiprintf_r+0x49e>
  4061fc:	e004      	b.n	406208 <_vfiprintf_r+0x4a8>
  4061fe:	066a      	lsls	r2, r5, #25
  406200:	d502      	bpl.n	406208 <_vfiprintf_r+0x4a8>
  406202:	f8b4 8000 	ldrh.w	r8, [r4]
  406206:	e001      	b.n	40620c <_vfiprintf_r+0x4ac>
  406208:	6822      	ldr	r2, [r4, #0]
  40620a:	4690      	mov	r8, r2
  40620c:	f04f 0900 	mov.w	r9, #0
  406210:	461c      	mov	r4, r3
  406212:	07ef      	lsls	r7, r5, #31
  406214:	d509      	bpl.n	40622a <_vfiprintf_r+0x4ca>
  406216:	ea58 0009 	orrs.w	r0, r8, r9
  40621a:	d006      	beq.n	40622a <_vfiprintf_r+0x4ca>
  40621c:	2330      	movs	r3, #48	; 0x30
  40621e:	f88d 3030 	strb.w	r3, [sp, #48]	; 0x30
  406222:	f88d c031 	strb.w	ip, [sp, #49]	; 0x31
  406226:	f045 0502 	orr.w	r5, r5, #2
  40622a:	2302      	movs	r3, #2
  40622c:	2100      	movs	r1, #0
  40622e:	f88d 102f 	strb.w	r1, [sp, #47]	; 0x2f
  406232:	e004      	b.n	40623e <_vfiprintf_r+0x4de>
  406234:	0040a7f6 	.word	0x0040a7f6
  406238:	0040a807 	.word	0x0040a807
  40623c:	2301      	movs	r3, #1
  40623e:	f1ba 0f00 	cmp.w	sl, #0
  406242:	bfa8      	it	ge
  406244:	f025 0580 	bicge.w	r5, r5, #128	; 0x80
  406248:	ea58 0209 	orrs.w	r2, r8, r9
  40624c:	d102      	bne.n	406254 <_vfiprintf_r+0x4f4>
  40624e:	f1ba 0f00 	cmp.w	sl, #0
  406252:	d05f      	beq.n	406314 <_vfiprintf_r+0x5b4>
  406254:	2b01      	cmp	r3, #1
  406256:	d021      	beq.n	40629c <_vfiprintf_r+0x53c>
  406258:	2b02      	cmp	r3, #2
  40625a:	d044      	beq.n	4062e6 <_vfiprintf_r+0x586>
  40625c:	f10d 0367 	add.w	r3, sp, #103	; 0x67
  406260:	2007      	movs	r0, #7
  406262:	ea08 0200 	and.w	r2, r8, r0
  406266:	f102 0130 	add.w	r1, r2, #48	; 0x30
  40626a:	ea4f 02d8 	mov.w	r2, r8, lsr #3
  40626e:	ea42 7249 	orr.w	r2, r2, r9, lsl #29
  406272:	ea4f 00d9 	mov.w	r0, r9, lsr #3
  406276:	b2c9      	uxtb	r1, r1
  406278:	4690      	mov	r8, r2
  40627a:	4681      	mov	r9, r0
  40627c:	461f      	mov	r7, r3
  40627e:	7019      	strb	r1, [r3, #0]
  406280:	3b01      	subs	r3, #1
  406282:	ea58 0209 	orrs.w	r2, r8, r9
  406286:	d1eb      	bne.n	406260 <_vfiprintf_r+0x500>
  406288:	07e8      	lsls	r0, r5, #31
  40628a:	463a      	mov	r2, r7
  40628c:	d54b      	bpl.n	406326 <_vfiprintf_r+0x5c6>
  40628e:	2930      	cmp	r1, #48	; 0x30
  406290:	d049      	beq.n	406326 <_vfiprintf_r+0x5c6>
  406292:	461f      	mov	r7, r3
  406294:	2330      	movs	r3, #48	; 0x30
  406296:	f802 3c01 	strb.w	r3, [r2, #-1]
  40629a:	e044      	b.n	406326 <_vfiprintf_r+0x5c6>
  40629c:	f1b9 0f00 	cmp.w	r9, #0
  4062a0:	bf08      	it	eq
  4062a2:	f1b8 0f0a 	cmpeq.w	r8, #10
  4062a6:	d203      	bcs.n	4062b0 <_vfiprintf_r+0x550>
  4062a8:	f108 0330 	add.w	r3, r8, #48	; 0x30
  4062ac:	af10      	add	r7, sp, #64	; 0x40
  4062ae:	e036      	b.n	40631e <_vfiprintf_r+0x5be>
  4062b0:	f10d 0367 	add.w	r3, sp, #103	; 0x67
  4062b4:	9305      	str	r3, [sp, #20]
  4062b6:	4640      	mov	r0, r8
  4062b8:	4649      	mov	r1, r9
  4062ba:	220a      	movs	r2, #10
  4062bc:	2300      	movs	r3, #0
  4062be:	f002 fab3 	bl	408828 <__aeabi_uldivmod>
  4062c2:	9805      	ldr	r0, [sp, #20]
  4062c4:	3230      	adds	r2, #48	; 0x30
  4062c6:	f800 2901 	strb.w	r2, [r0], #-1
  4062ca:	4649      	mov	r1, r9
  4062cc:	220a      	movs	r2, #10
  4062ce:	2300      	movs	r3, #0
  4062d0:	9f05      	ldr	r7, [sp, #20]
  4062d2:	9005      	str	r0, [sp, #20]
  4062d4:	4640      	mov	r0, r8
  4062d6:	f002 faa7 	bl	408828 <__aeabi_uldivmod>
  4062da:	4680      	mov	r8, r0
  4062dc:	4689      	mov	r9, r1
  4062de:	ea58 0109 	orrs.w	r1, r8, r9
  4062e2:	d1e8      	bne.n	4062b6 <_vfiprintf_r+0x556>
  4062e4:	e01f      	b.n	406326 <_vfiprintf_r+0x5c6>
  4062e6:	f10d 0c67 	add.w	ip, sp, #103	; 0x67
  4062ea:	200f      	movs	r0, #15
  4062ec:	9907      	ldr	r1, [sp, #28]
  4062ee:	ea08 0200 	and.w	r2, r8, r0
  4062f2:	188a      	adds	r2, r1, r2
  4062f4:	7813      	ldrb	r3, [r2, #0]
  4062f6:	4667      	mov	r7, ip
  4062f8:	f80c 3901 	strb.w	r3, [ip], #-1
  4062fc:	ea4f 1318 	mov.w	r3, r8, lsr #4
  406300:	ea43 7309 	orr.w	r3, r3, r9, lsl #28
  406304:	ea4f 1219 	mov.w	r2, r9, lsr #4
  406308:	4698      	mov	r8, r3
  40630a:	4691      	mov	r9, r2
  40630c:	ea58 0209 	orrs.w	r2, r8, r9
  406310:	d1eb      	bne.n	4062ea <_vfiprintf_r+0x58a>
  406312:	e008      	b.n	406326 <_vfiprintf_r+0x5c6>
  406314:	b933      	cbnz	r3, 406324 <_vfiprintf_r+0x5c4>
  406316:	07e9      	lsls	r1, r5, #31
  406318:	d504      	bpl.n	406324 <_vfiprintf_r+0x5c4>
  40631a:	af10      	add	r7, sp, #64	; 0x40
  40631c:	2330      	movs	r3, #48	; 0x30
  40631e:	f807 3f27 	strb.w	r3, [r7, #39]!
  406322:	e000      	b.n	406326 <_vfiprintf_r+0x5c6>
  406324:	af1a      	add	r7, sp, #104	; 0x68
  406326:	f10d 0968 	add.w	r9, sp, #104	; 0x68
  40632a:	ebc7 0909 	rsb	r9, r7, r9
  40632e:	e016      	b.n	40635e <_vfiprintf_r+0x5fe>
  406330:	f88d 302f 	strb.w	r3, [sp, #47]	; 0x2f
  406334:	f1bc 0f00 	cmp.w	ip, #0
  406338:	f000 819c 	beq.w	406674 <_vfiprintf_r+0x914>
  40633c:	2300      	movs	r3, #0
  40633e:	f88d c040 	strb.w	ip, [sp, #64]	; 0x40
  406342:	f88d 302f 	strb.w	r3, [sp, #47]	; 0x2f
  406346:	f04f 0901 	mov.w	r9, #1
  40634a:	f04f 0a00 	mov.w	sl, #0
  40634e:	af10      	add	r7, sp, #64	; 0x40
  406350:	e005      	b.n	40635e <_vfiprintf_r+0x5fe>
  406352:	46d1      	mov	r9, sl
  406354:	4682      	mov	sl, r0
  406356:	e002      	b.n	40635e <_vfiprintf_r+0x5fe>
  406358:	46d1      	mov	r9, sl
  40635a:	f04f 0a00 	mov.w	sl, #0
  40635e:	45d1      	cmp	r9, sl
  406360:	bfac      	ite	ge
  406362:	464b      	movge	r3, r9
  406364:	4653      	movlt	r3, sl
  406366:	9305      	str	r3, [sp, #20]
  406368:	f89d 302f 	ldrb.w	r3, [sp, #47]	; 0x2f
  40636c:	b113      	cbz	r3, 406374 <_vfiprintf_r+0x614>
  40636e:	9b05      	ldr	r3, [sp, #20]
  406370:	3301      	adds	r3, #1
  406372:	9305      	str	r3, [sp, #20]
  406374:	f015 0302 	ands.w	r3, r5, #2
  406378:	9308      	str	r3, [sp, #32]
  40637a:	d002      	beq.n	406382 <_vfiprintf_r+0x622>
  40637c:	9b05      	ldr	r3, [sp, #20]
  40637e:	3302      	adds	r3, #2
  406380:	9305      	str	r3, [sp, #20]
  406382:	f015 0384 	ands.w	r3, r5, #132	; 0x84
  406386:	9309      	str	r3, [sp, #36]	; 0x24
  406388:	d145      	bne.n	406416 <_vfiprintf_r+0x6b6>
  40638a:	9806      	ldr	r0, [sp, #24]
  40638c:	9b05      	ldr	r3, [sp, #20]
  40638e:	ebc3 0c00 	rsb	ip, r3, r0
  406392:	f1bc 0f00 	cmp.w	ip, #0
  406396:	dc20      	bgt.n	4063da <_vfiprintf_r+0x67a>
  406398:	e03d      	b.n	406416 <_vfiprintf_r+0x6b6>
  40639a:	9a0f      	ldr	r2, [sp, #60]	; 0x3c
  40639c:	f8cb 8000 	str.w	r8, [fp]
  4063a0:	3210      	adds	r2, #16
  4063a2:	920f      	str	r2, [sp, #60]	; 0x3c
  4063a4:	9a0e      	ldr	r2, [sp, #56]	; 0x38
  4063a6:	f8cb 3004 	str.w	r3, [fp, #4]
  4063aa:	3201      	adds	r2, #1
  4063ac:	2a07      	cmp	r2, #7
  4063ae:	920e      	str	r2, [sp, #56]	; 0x38
  4063b0:	dc02      	bgt.n	4063b8 <_vfiprintf_r+0x658>
  4063b2:	f10b 0b08 	add.w	fp, fp, #8
  4063b6:	e00d      	b.n	4063d4 <_vfiprintf_r+0x674>
  4063b8:	9802      	ldr	r0, [sp, #8]
  4063ba:	4631      	mov	r1, r6
  4063bc:	aa0d      	add	r2, sp, #52	; 0x34
  4063be:	e88d 1008 	stmia.w	sp, {r3, ip}
  4063c2:	f7ff fc97 	bl	405cf4 <__sprint_r>
  4063c6:	e89d 1008 	ldmia.w	sp, {r3, ip}
  4063ca:	2800      	cmp	r0, #0
  4063cc:	f040 8159 	bne.w	406682 <_vfiprintf_r+0x922>
  4063d0:	f10d 0bd0 	add.w	fp, sp, #208	; 0xd0
  4063d4:	f1ac 0c10 	sub.w	ip, ip, #16
  4063d8:	e002      	b.n	4063e0 <_vfiprintf_r+0x680>
  4063da:	f8df 8290 	ldr.w	r8, [pc, #656]	; 40666c <_vfiprintf_r+0x90c>
  4063de:	2310      	movs	r3, #16
  4063e0:	f1bc 0f10 	cmp.w	ip, #16
  4063e4:	dcd9      	bgt.n	40639a <_vfiprintf_r+0x63a>
  4063e6:	4ba1      	ldr	r3, [pc, #644]	; (40666c <_vfiprintf_r+0x90c>)
  4063e8:	e88b 1008 	stmia.w	fp, {r3, ip}
  4063ec:	9b0f      	ldr	r3, [sp, #60]	; 0x3c
  4063ee:	4463      	add	r3, ip
  4063f0:	930f      	str	r3, [sp, #60]	; 0x3c
  4063f2:	9b0e      	ldr	r3, [sp, #56]	; 0x38
  4063f4:	3301      	adds	r3, #1
  4063f6:	2b07      	cmp	r3, #7
  4063f8:	930e      	str	r3, [sp, #56]	; 0x38
  4063fa:	dc02      	bgt.n	406402 <_vfiprintf_r+0x6a2>
  4063fc:	f10b 0b08 	add.w	fp, fp, #8
  406400:	e009      	b.n	406416 <_vfiprintf_r+0x6b6>
  406402:	9802      	ldr	r0, [sp, #8]
  406404:	4631      	mov	r1, r6
  406406:	aa0d      	add	r2, sp, #52	; 0x34
  406408:	f7ff fc74 	bl	405cf4 <__sprint_r>
  40640c:	2800      	cmp	r0, #0
  40640e:	f040 8138 	bne.w	406682 <_vfiprintf_r+0x922>
  406412:	f10d 0bd0 	add.w	fp, sp, #208	; 0xd0
  406416:	f89d 202f 	ldrb.w	r2, [sp, #47]	; 0x2f
  40641a:	f10d 032f 	add.w	r3, sp, #47	; 0x2f
  40641e:	b1ca      	cbz	r2, 406454 <_vfiprintf_r+0x6f4>
  406420:	f8cb 3000 	str.w	r3, [fp]
  406424:	2301      	movs	r3, #1
  406426:	f8cb 3004 	str.w	r3, [fp, #4]
  40642a:	9b0f      	ldr	r3, [sp, #60]	; 0x3c
  40642c:	3301      	adds	r3, #1
  40642e:	930f      	str	r3, [sp, #60]	; 0x3c
  406430:	9b0e      	ldr	r3, [sp, #56]	; 0x38
  406432:	3301      	adds	r3, #1
  406434:	2b07      	cmp	r3, #7
  406436:	930e      	str	r3, [sp, #56]	; 0x38
  406438:	dc02      	bgt.n	406440 <_vfiprintf_r+0x6e0>
  40643a:	f10b 0b08 	add.w	fp, fp, #8
  40643e:	e009      	b.n	406454 <_vfiprintf_r+0x6f4>
  406440:	9802      	ldr	r0, [sp, #8]
  406442:	4631      	mov	r1, r6
  406444:	aa0d      	add	r2, sp, #52	; 0x34
  406446:	f7ff fc55 	bl	405cf4 <__sprint_r>
  40644a:	2800      	cmp	r0, #0
  40644c:	f040 8119 	bne.w	406682 <_vfiprintf_r+0x922>
  406450:	f10d 0bd0 	add.w	fp, sp, #208	; 0xd0
  406454:	9b08      	ldr	r3, [sp, #32]
  406456:	b1d3      	cbz	r3, 40648e <_vfiprintf_r+0x72e>
  406458:	ab0c      	add	r3, sp, #48	; 0x30
  40645a:	f8cb 3000 	str.w	r3, [fp]
  40645e:	2302      	movs	r3, #2
  406460:	f8cb 3004 	str.w	r3, [fp, #4]
  406464:	9b0f      	ldr	r3, [sp, #60]	; 0x3c
  406466:	3302      	adds	r3, #2
  406468:	930f      	str	r3, [sp, #60]	; 0x3c
  40646a:	9b0e      	ldr	r3, [sp, #56]	; 0x38
  40646c:	3301      	adds	r3, #1
  40646e:	2b07      	cmp	r3, #7
  406470:	930e      	str	r3, [sp, #56]	; 0x38
  406472:	dc02      	bgt.n	40647a <_vfiprintf_r+0x71a>
  406474:	f10b 0b08 	add.w	fp, fp, #8
  406478:	e009      	b.n	40648e <_vfiprintf_r+0x72e>
  40647a:	9802      	ldr	r0, [sp, #8]
  40647c:	4631      	mov	r1, r6
  40647e:	aa0d      	add	r2, sp, #52	; 0x34
  406480:	f7ff fc38 	bl	405cf4 <__sprint_r>
  406484:	2800      	cmp	r0, #0
  406486:	f040 80fc 	bne.w	406682 <_vfiprintf_r+0x922>
  40648a:	f10d 0bd0 	add.w	fp, sp, #208	; 0xd0
  40648e:	9b09      	ldr	r3, [sp, #36]	; 0x24
  406490:	2b80      	cmp	r3, #128	; 0x80
  406492:	d145      	bne.n	406520 <_vfiprintf_r+0x7c0>
  406494:	9806      	ldr	r0, [sp, #24]
  406496:	9b05      	ldr	r3, [sp, #20]
  406498:	ebc3 0c00 	rsb	ip, r3, r0
  40649c:	f1bc 0f00 	cmp.w	ip, #0
  4064a0:	dc20      	bgt.n	4064e4 <_vfiprintf_r+0x784>
  4064a2:	e03d      	b.n	406520 <_vfiprintf_r+0x7c0>
  4064a4:	9a0f      	ldr	r2, [sp, #60]	; 0x3c
  4064a6:	f8cb 8000 	str.w	r8, [fp]
  4064aa:	3210      	adds	r2, #16
  4064ac:	920f      	str	r2, [sp, #60]	; 0x3c
  4064ae:	9a0e      	ldr	r2, [sp, #56]	; 0x38
  4064b0:	f8cb 3004 	str.w	r3, [fp, #4]
  4064b4:	3201      	adds	r2, #1
  4064b6:	2a07      	cmp	r2, #7
  4064b8:	920e      	str	r2, [sp, #56]	; 0x38
  4064ba:	dc02      	bgt.n	4064c2 <_vfiprintf_r+0x762>
  4064bc:	f10b 0b08 	add.w	fp, fp, #8
  4064c0:	e00d      	b.n	4064de <_vfiprintf_r+0x77e>
  4064c2:	9802      	ldr	r0, [sp, #8]
  4064c4:	4631      	mov	r1, r6
  4064c6:	aa0d      	add	r2, sp, #52	; 0x34
  4064c8:	e88d 1008 	stmia.w	sp, {r3, ip}
  4064cc:	f7ff fc12 	bl	405cf4 <__sprint_r>
  4064d0:	e89d 1008 	ldmia.w	sp, {r3, ip}
  4064d4:	2800      	cmp	r0, #0
  4064d6:	f040 80d4 	bne.w	406682 <_vfiprintf_r+0x922>
  4064da:	f10d 0bd0 	add.w	fp, sp, #208	; 0xd0
  4064de:	f1ac 0c10 	sub.w	ip, ip, #16
  4064e2:	e002      	b.n	4064ea <_vfiprintf_r+0x78a>
  4064e4:	f8df 8188 	ldr.w	r8, [pc, #392]	; 406670 <_vfiprintf_r+0x910>
  4064e8:	2310      	movs	r3, #16
  4064ea:	f1bc 0f10 	cmp.w	ip, #16
  4064ee:	dcd9      	bgt.n	4064a4 <_vfiprintf_r+0x744>
  4064f0:	4b5f      	ldr	r3, [pc, #380]	; (406670 <_vfiprintf_r+0x910>)
  4064f2:	e88b 1008 	stmia.w	fp, {r3, ip}
  4064f6:	9b0f      	ldr	r3, [sp, #60]	; 0x3c
  4064f8:	4463      	add	r3, ip
  4064fa:	930f      	str	r3, [sp, #60]	; 0x3c
  4064fc:	9b0e      	ldr	r3, [sp, #56]	; 0x38
  4064fe:	3301      	adds	r3, #1
  406500:	2b07      	cmp	r3, #7
  406502:	930e      	str	r3, [sp, #56]	; 0x38
  406504:	dc02      	bgt.n	40650c <_vfiprintf_r+0x7ac>
  406506:	f10b 0b08 	add.w	fp, fp, #8
  40650a:	e009      	b.n	406520 <_vfiprintf_r+0x7c0>
  40650c:	9802      	ldr	r0, [sp, #8]
  40650e:	4631      	mov	r1, r6
  406510:	aa0d      	add	r2, sp, #52	; 0x34
  406512:	f7ff fbef 	bl	405cf4 <__sprint_r>
  406516:	2800      	cmp	r0, #0
  406518:	f040 80b3 	bne.w	406682 <_vfiprintf_r+0x922>
  40651c:	f10d 0bd0 	add.w	fp, sp, #208	; 0xd0
  406520:	ebc9 030a 	rsb	r3, r9, sl
  406524:	2b00      	cmp	r3, #0
  406526:	dc1b      	bgt.n	406560 <_vfiprintf_r+0x800>
  406528:	e037      	b.n	40659a <_vfiprintf_r+0x83a>
  40652a:	9a0f      	ldr	r2, [sp, #60]	; 0x3c
  40652c:	e88b 0500 	stmia.w	fp, {r8, sl}
  406530:	3210      	adds	r2, #16
  406532:	920f      	str	r2, [sp, #60]	; 0x3c
  406534:	9a0e      	ldr	r2, [sp, #56]	; 0x38
  406536:	3201      	adds	r2, #1
  406538:	2a07      	cmp	r2, #7
  40653a:	920e      	str	r2, [sp, #56]	; 0x38
  40653c:	dc02      	bgt.n	406544 <_vfiprintf_r+0x7e4>
  40653e:	f10b 0b08 	add.w	fp, fp, #8
  406542:	e00b      	b.n	40655c <_vfiprintf_r+0x7fc>
  406544:	9802      	ldr	r0, [sp, #8]
  406546:	4631      	mov	r1, r6
  406548:	aa0d      	add	r2, sp, #52	; 0x34
  40654a:	9300      	str	r3, [sp, #0]
  40654c:	f7ff fbd2 	bl	405cf4 <__sprint_r>
  406550:	9b00      	ldr	r3, [sp, #0]
  406552:	2800      	cmp	r0, #0
  406554:	f040 8095 	bne.w	406682 <_vfiprintf_r+0x922>
  406558:	f10d 0bd0 	add.w	fp, sp, #208	; 0xd0
  40655c:	3b10      	subs	r3, #16
  40655e:	e003      	b.n	406568 <_vfiprintf_r+0x808>
  406560:	f8df 810c 	ldr.w	r8, [pc, #268]	; 406670 <_vfiprintf_r+0x910>
  406564:	f04f 0a10 	mov.w	sl, #16
  406568:	2b10      	cmp	r3, #16
  40656a:	dcde      	bgt.n	40652a <_vfiprintf_r+0x7ca>
  40656c:	4a40      	ldr	r2, [pc, #256]	; (406670 <_vfiprintf_r+0x910>)
  40656e:	e88b 000c 	stmia.w	fp, {r2, r3}
  406572:	9a0f      	ldr	r2, [sp, #60]	; 0x3c
  406574:	18d3      	adds	r3, r2, r3
  406576:	930f      	str	r3, [sp, #60]	; 0x3c
  406578:	9b0e      	ldr	r3, [sp, #56]	; 0x38
  40657a:	3301      	adds	r3, #1
  40657c:	2b07      	cmp	r3, #7
  40657e:	930e      	str	r3, [sp, #56]	; 0x38
  406580:	dc02      	bgt.n	406588 <_vfiprintf_r+0x828>
  406582:	f10b 0b08 	add.w	fp, fp, #8
  406586:	e008      	b.n	40659a <_vfiprintf_r+0x83a>
  406588:	9802      	ldr	r0, [sp, #8]
  40658a:	4631      	mov	r1, r6
  40658c:	aa0d      	add	r2, sp, #52	; 0x34
  40658e:	f7ff fbb1 	bl	405cf4 <__sprint_r>
  406592:	2800      	cmp	r0, #0
  406594:	d175      	bne.n	406682 <_vfiprintf_r+0x922>
  406596:	f10d 0bd0 	add.w	fp, sp, #208	; 0xd0
  40659a:	9b0f      	ldr	r3, [sp, #60]	; 0x3c
  40659c:	e88b 0280 	stmia.w	fp, {r7, r9}
  4065a0:	444b      	add	r3, r9
  4065a2:	930f      	str	r3, [sp, #60]	; 0x3c
  4065a4:	9b0e      	ldr	r3, [sp, #56]	; 0x38
  4065a6:	3301      	adds	r3, #1
  4065a8:	2b07      	cmp	r3, #7
  4065aa:	930e      	str	r3, [sp, #56]	; 0x38
  4065ac:	dc02      	bgt.n	4065b4 <_vfiprintf_r+0x854>
  4065ae:	f10b 0308 	add.w	r3, fp, #8
  4065b2:	e007      	b.n	4065c4 <_vfiprintf_r+0x864>
  4065b4:	9802      	ldr	r0, [sp, #8]
  4065b6:	4631      	mov	r1, r6
  4065b8:	aa0d      	add	r2, sp, #52	; 0x34
  4065ba:	f7ff fb9b 	bl	405cf4 <__sprint_r>
  4065be:	2800      	cmp	r0, #0
  4065c0:	d15f      	bne.n	406682 <_vfiprintf_r+0x922>
  4065c2:	ab34      	add	r3, sp, #208	; 0xd0
  4065c4:	076a      	lsls	r2, r5, #29
  4065c6:	d40b      	bmi.n	4065e0 <_vfiprintf_r+0x880>
  4065c8:	9804      	ldr	r0, [sp, #16]
  4065ca:	9b05      	ldr	r3, [sp, #20]
  4065cc:	9906      	ldr	r1, [sp, #24]
  4065ce:	428b      	cmp	r3, r1
  4065d0:	bfac      	ite	ge
  4065d2:	18c0      	addge	r0, r0, r3
  4065d4:	1840      	addlt	r0, r0, r1
  4065d6:	9b0f      	ldr	r3, [sp, #60]	; 0x3c
  4065d8:	9004      	str	r0, [sp, #16]
  4065da:	2b00      	cmp	r3, #0
  4065dc:	d037      	beq.n	40664e <_vfiprintf_r+0x8ee>
  4065de:	e03c      	b.n	40665a <_vfiprintf_r+0x8fa>
  4065e0:	9806      	ldr	r0, [sp, #24]
  4065e2:	9905      	ldr	r1, [sp, #20]
  4065e4:	ebc1 0900 	rsb	r9, r1, r0
  4065e8:	f1b9 0f00 	cmp.w	r9, #0
  4065ec:	dc17      	bgt.n	40661e <_vfiprintf_r+0x8be>
  4065ee:	e7eb      	b.n	4065c8 <_vfiprintf_r+0x868>
  4065f0:	9a0f      	ldr	r2, [sp, #60]	; 0x3c
  4065f2:	e883 00a0 	stmia.w	r3, {r5, r7}
  4065f6:	3210      	adds	r2, #16
  4065f8:	920f      	str	r2, [sp, #60]	; 0x3c
  4065fa:	9a0e      	ldr	r2, [sp, #56]	; 0x38
  4065fc:	3201      	adds	r2, #1
  4065fe:	2a07      	cmp	r2, #7
  406600:	920e      	str	r2, [sp, #56]	; 0x38
  406602:	dc01      	bgt.n	406608 <_vfiprintf_r+0x8a8>
  406604:	3308      	adds	r3, #8
  406606:	e007      	b.n	406618 <_vfiprintf_r+0x8b8>
  406608:	9802      	ldr	r0, [sp, #8]
  40660a:	4631      	mov	r1, r6
  40660c:	aa0d      	add	r2, sp, #52	; 0x34
  40660e:	f7ff fb71 	bl	405cf4 <__sprint_r>
  406612:	2800      	cmp	r0, #0
  406614:	d135      	bne.n	406682 <_vfiprintf_r+0x922>
  406616:	ab34      	add	r3, sp, #208	; 0xd0
  406618:	f1a9 0910 	sub.w	r9, r9, #16
  40661c:	e001      	b.n	406622 <_vfiprintf_r+0x8c2>
  40661e:	4d13      	ldr	r5, [pc, #76]	; (40666c <_vfiprintf_r+0x90c>)
  406620:	2710      	movs	r7, #16
  406622:	f1b9 0f10 	cmp.w	r9, #16
  406626:	dce3      	bgt.n	4065f0 <_vfiprintf_r+0x890>
  406628:	4a10      	ldr	r2, [pc, #64]	; (40666c <_vfiprintf_r+0x90c>)
  40662a:	e883 0204 	stmia.w	r3, {r2, r9}
  40662e:	9b0f      	ldr	r3, [sp, #60]	; 0x3c
  406630:	444b      	add	r3, r9
  406632:	930f      	str	r3, [sp, #60]	; 0x3c
  406634:	9b0e      	ldr	r3, [sp, #56]	; 0x38
  406636:	3301      	adds	r3, #1
  406638:	2b07      	cmp	r3, #7
  40663a:	930e      	str	r3, [sp, #56]	; 0x38
  40663c:	ddc4      	ble.n	4065c8 <_vfiprintf_r+0x868>
  40663e:	9802      	ldr	r0, [sp, #8]
  406640:	4631      	mov	r1, r6
  406642:	aa0d      	add	r2, sp, #52	; 0x34
  406644:	f7ff fb56 	bl	405cf4 <__sprint_r>
  406648:	2800      	cmp	r0, #0
  40664a:	d0bd      	beq.n	4065c8 <_vfiprintf_r+0x868>
  40664c:	e019      	b.n	406682 <_vfiprintf_r+0x922>
  40664e:	2200      	movs	r2, #0
  406650:	920e      	str	r2, [sp, #56]	; 0x38
  406652:	f10d 0bd0 	add.w	fp, sp, #208	; 0xd0
  406656:	f7ff bbf6 	b.w	405e46 <_vfiprintf_r+0xe6>
  40665a:	9802      	ldr	r0, [sp, #8]
  40665c:	4631      	mov	r1, r6
  40665e:	aa0d      	add	r2, sp, #52	; 0x34
  406660:	f7ff fb48 	bl	405cf4 <__sprint_r>
  406664:	2800      	cmp	r0, #0
  406666:	d0f2      	beq.n	40664e <_vfiprintf_r+0x8ee>
  406668:	e00b      	b.n	406682 <_vfiprintf_r+0x922>
  40666a:	bf00      	nop
  40666c:	0040a7d6 	.word	0x0040a7d6
  406670:	0040a7e6 	.word	0x0040a7e6
  406674:	9b0f      	ldr	r3, [sp, #60]	; 0x3c
  406676:	b123      	cbz	r3, 406682 <_vfiprintf_r+0x922>
  406678:	9802      	ldr	r0, [sp, #8]
  40667a:	4631      	mov	r1, r6
  40667c:	aa0d      	add	r2, sp, #52	; 0x34
  40667e:	f7ff fb39 	bl	405cf4 <__sprint_r>
  406682:	89b3      	ldrh	r3, [r6, #12]
  406684:	f003 0340 	and.w	r3, r3, #64	; 0x40
  406688:	b21b      	sxth	r3, r3
  40668a:	2b00      	cmp	r3, #0
  40668c:	f47f ab94 	bne.w	405db8 <_vfiprintf_r+0x58>
  406690:	9804      	ldr	r0, [sp, #16]
  406692:	b035      	add	sp, #212	; 0xd4
  406694:	f50d 6d80 	add.w	sp, sp, #1024	; 0x400
  406698:	e8bd 8ff0 	ldmia.w	sp!, {r4, r5, r6, r7, r8, r9, sl, fp, pc}

0040669c <vfiprintf>:
  40669c:	b530      	push	{r4, r5, lr}
  40669e:	4613      	mov	r3, r2
  4066a0:	4a04      	ldr	r2, [pc, #16]	; (4066b4 <vfiprintf+0x18>)
  4066a2:	4605      	mov	r5, r0
  4066a4:	460c      	mov	r4, r1
  4066a6:	6810      	ldr	r0, [r2, #0]
  4066a8:	4629      	mov	r1, r5
  4066aa:	4622      	mov	r2, r4
  4066ac:	e8bd 4030 	ldmia.w	sp!, {r4, r5, lr}
  4066b0:	f7ff bb56 	b.w	405d60 <_vfiprintf_r>
  4066b4:	20000110 	.word	0x20000110

004066b8 <_vfprintf_r>:
  4066b8:	e92d 4ff0 	stmdb	sp!, {r4, r5, r6, r7, r8, r9, sl, fp, lr}
  4066bc:	f2ad 4dd4 	subw	sp, sp, #1236	; 0x4d4
  4066c0:	460e      	mov	r6, r1
  4066c2:	4615      	mov	r5, r2
  4066c4:	461c      	mov	r4, r3
  4066c6:	9002      	str	r0, [sp, #8]
  4066c8:	b118      	cbz	r0, 4066d2 <_vfprintf_r+0x1a>
  4066ca:	6b83      	ldr	r3, [r0, #56]	; 0x38
  4066cc:	b90b      	cbnz	r3, 4066d2 <_vfprintf_r+0x1a>
  4066ce:	f000 fea9 	bl	407424 <__sinit>
  4066d2:	89b3      	ldrh	r3, [r6, #12]
  4066d4:	f403 5200 	and.w	r2, r3, #8192	; 0x2000
  4066d8:	b212      	sxth	r2, r2
  4066da:	b932      	cbnz	r2, 4066ea <_vfprintf_r+0x32>
  4066dc:	f443 5300 	orr.w	r3, r3, #8192	; 0x2000
  4066e0:	81b3      	strh	r3, [r6, #12]
  4066e2:	6e73      	ldr	r3, [r6, #100]	; 0x64
  4066e4:	f423 5300 	bic.w	r3, r3, #8192	; 0x2000
  4066e8:	6673      	str	r3, [r6, #100]	; 0x64
  4066ea:	89b3      	ldrh	r3, [r6, #12]
  4066ec:	f003 0308 	and.w	r3, r3, #8
  4066f0:	b21b      	sxth	r3, r3
  4066f2:	b13b      	cbz	r3, 406704 <_vfprintf_r+0x4c>
  4066f4:	6933      	ldr	r3, [r6, #16]
  4066f6:	b12b      	cbz	r3, 406704 <_vfprintf_r+0x4c>
  4066f8:	89b2      	ldrh	r2, [r6, #12]
  4066fa:	f002 031a 	and.w	r3, r2, #26
  4066fe:	2b0a      	cmp	r3, #10
  406700:	d144      	bne.n	40678c <_vfprintf_r+0xd4>
  406702:	e00a      	b.n	40671a <_vfprintf_r+0x62>
  406704:	9802      	ldr	r0, [sp, #8]
  406706:	4631      	mov	r1, r6
  406708:	f000 fcdc 	bl	4070c4 <__swsetup_r>
  40670c:	2800      	cmp	r0, #0
  40670e:	d0f3      	beq.n	4066f8 <_vfprintf_r+0x40>
  406710:	f04f 30ff 	mov.w	r0, #4294967295
  406714:	9004      	str	r0, [sp, #16]
  406716:	f000 bc67 	b.w	406fe8 <_vfprintf_r+0x930>
  40671a:	89f3      	ldrh	r3, [r6, #14]
  40671c:	0419      	lsls	r1, r3, #16
  40671e:	d435      	bmi.n	40678c <_vfprintf_r+0xd4>
  406720:	f8ad 3076 	strh.w	r3, [sp, #118]	; 0x76
  406724:	69f3      	ldr	r3, [r6, #28]
  406726:	f022 0202 	bic.w	r2, r2, #2
  40672a:	9321      	str	r3, [sp, #132]	; 0x84
  40672c:	6a73      	ldr	r3, [r6, #36]	; 0x24
  40672e:	f8ad 2074 	strh.w	r2, [sp, #116]	; 0x74
  406732:	9323      	str	r3, [sp, #140]	; 0x8c
  406734:	ab34      	add	r3, sp, #208	; 0xd0
  406736:	6e72      	ldr	r2, [r6, #100]	; 0x64
  406738:	931a      	str	r3, [sp, #104]	; 0x68
  40673a:	931e      	str	r3, [sp, #120]	; 0x78
  40673c:	f44f 6380 	mov.w	r3, #1024	; 0x400
  406740:	931c      	str	r3, [sp, #112]	; 0x70
  406742:	931f      	str	r3, [sp, #124]	; 0x7c
  406744:	2300      	movs	r3, #0
  406746:	9233      	str	r2, [sp, #204]	; 0xcc
  406748:	9320      	str	r3, [sp, #128]	; 0x80
  40674a:	9802      	ldr	r0, [sp, #8]
  40674c:	a91a      	add	r1, sp, #104	; 0x68
  40674e:	462a      	mov	r2, r5
  406750:	4623      	mov	r3, r4
  406752:	f7ff ffb1 	bl	4066b8 <_vfprintf_r>
  406756:	2800      	cmp	r0, #0
  406758:	9004      	str	r0, [sp, #16]
  40675a:	db09      	blt.n	406770 <_vfprintf_r+0xb8>
  40675c:	a91a      	add	r1, sp, #104	; 0x68
  40675e:	9802      	ldr	r0, [sp, #8]
  406760:	f000 fd6c 	bl	40723c <_fflush_r>
  406764:	9904      	ldr	r1, [sp, #16]
  406766:	2800      	cmp	r0, #0
  406768:	bf18      	it	ne
  40676a:	f04f 31ff 	movne.w	r1, #4294967295
  40676e:	9104      	str	r1, [sp, #16]
  406770:	f8bd 3074 	ldrh.w	r3, [sp, #116]	; 0x74
  406774:	f003 0340 	and.w	r3, r3, #64	; 0x40
  406778:	b21b      	sxth	r3, r3
  40677a:	2b00      	cmp	r3, #0
  40677c:	f000 8434 	beq.w	406fe8 <_vfprintf_r+0x930>
  406780:	89b3      	ldrh	r3, [r6, #12]
  406782:	f043 0340 	orr.w	r3, r3, #64	; 0x40
  406786:	81b3      	strh	r3, [r6, #12]
  406788:	f000 bc2e 	b.w	406fe8 <_vfprintf_r+0x930>
  40678c:	2300      	movs	r3, #0
  40678e:	aa34      	add	r2, sp, #208	; 0xd0
  406790:	920d      	str	r2, [sp, #52]	; 0x34
  406792:	930f      	str	r3, [sp, #60]	; 0x3c
  406794:	930e      	str	r3, [sp, #56]	; 0x38
  406796:	9503      	str	r5, [sp, #12]
  406798:	9307      	str	r3, [sp, #28]
  40679a:	9304      	str	r3, [sp, #16]
  40679c:	4693      	mov	fp, r2
  40679e:	9b03      	ldr	r3, [sp, #12]
  4067a0:	461d      	mov	r5, r3
  4067a2:	f813 2b01 	ldrb.w	r2, [r3], #1
  4067a6:	b91a      	cbnz	r2, 4067b0 <_vfprintf_r+0xf8>
  4067a8:	9a03      	ldr	r2, [sp, #12]
  4067aa:	1aaf      	subs	r7, r5, r2
  4067ac:	d103      	bne.n	4067b6 <_vfprintf_r+0xfe>
  4067ae:	e01d      	b.n	4067ec <_vfprintf_r+0x134>
  4067b0:	2a25      	cmp	r2, #37	; 0x25
  4067b2:	d1f5      	bne.n	4067a0 <_vfprintf_r+0xe8>
  4067b4:	e7f8      	b.n	4067a8 <_vfprintf_r+0xf0>
  4067b6:	9b03      	ldr	r3, [sp, #12]
  4067b8:	e88b 0088 	stmia.w	fp, {r3, r7}
  4067bc:	9b0f      	ldr	r3, [sp, #60]	; 0x3c
  4067be:	19db      	adds	r3, r3, r7
  4067c0:	930f      	str	r3, [sp, #60]	; 0x3c
  4067c2:	9b0e      	ldr	r3, [sp, #56]	; 0x38
  4067c4:	3301      	adds	r3, #1
  4067c6:	2b07      	cmp	r3, #7
  4067c8:	930e      	str	r3, [sp, #56]	; 0x38
  4067ca:	dc02      	bgt.n	4067d2 <_vfprintf_r+0x11a>
  4067cc:	f10b 0b08 	add.w	fp, fp, #8
  4067d0:	e009      	b.n	4067e6 <_vfprintf_r+0x12e>
  4067d2:	9802      	ldr	r0, [sp, #8]
  4067d4:	4631      	mov	r1, r6
  4067d6:	aa0d      	add	r2, sp, #52	; 0x34
  4067d8:	f7ff fa8c 	bl	405cf4 <__sprint_r>
  4067dc:	2800      	cmp	r0, #0
  4067de:	f040 83fc 	bne.w	406fda <_vfprintf_r+0x922>
  4067e2:	f10d 0bd0 	add.w	fp, sp, #208	; 0xd0
  4067e6:	9804      	ldr	r0, [sp, #16]
  4067e8:	19c0      	adds	r0, r0, r7
  4067ea:	9004      	str	r0, [sp, #16]
  4067ec:	782b      	ldrb	r3, [r5, #0]
  4067ee:	2b00      	cmp	r3, #0
  4067f0:	f000 83ec 	beq.w	406fcc <_vfprintf_r+0x914>
  4067f4:	3501      	adds	r5, #1
  4067f6:	2300      	movs	r3, #0
  4067f8:	2100      	movs	r1, #0
  4067fa:	9503      	str	r5, [sp, #12]
  4067fc:	f88d 102f 	strb.w	r1, [sp, #47]	; 0x2f
  406800:	f04f 3aff 	mov.w	sl, #4294967295
  406804:	9306      	str	r3, [sp, #24]
  406806:	461d      	mov	r5, r3
  406808:	200a      	movs	r0, #10
  40680a:	e004      	b.n	406816 <_vfprintf_r+0x15e>
  40680c:	4663      	mov	r3, ip
  40680e:	e002      	b.n	406816 <_vfprintf_r+0x15e>
  406810:	4614      	mov	r4, r2
  406812:	f04f 3aff 	mov.w	sl, #4294967295
  406816:	9a03      	ldr	r2, [sp, #12]
  406818:	f812 cb01 	ldrb.w	ip, [r2], #1
  40681c:	9203      	str	r2, [sp, #12]
  40681e:	f1bc 0f63 	cmp.w	ip, #99	; 0x63
  406822:	f000 80c1 	beq.w	4069a8 <_vfprintf_r+0x2f0>
  406826:	dc34      	bgt.n	406892 <_vfprintf_r+0x1da>
  406828:	f1bc 0f39 	cmp.w	ip, #57	; 0x39
  40682c:	dc1e      	bgt.n	40686c <_vfprintf_r+0x1b4>
  40682e:	f1bc 0f31 	cmp.w	ip, #49	; 0x31
  406832:	f280 809a 	bge.w	40696a <_vfprintf_r+0x2b2>
  406836:	f1bc 0f2b 	cmp.w	ip, #43	; 0x2b
  40683a:	d0e7      	beq.n	40680c <_vfprintf_r+0x154>
  40683c:	dc0a      	bgt.n	406854 <_vfprintf_r+0x19c>
  40683e:	f1bc 0f23 	cmp.w	ip, #35	; 0x23
  406842:	d061      	beq.n	406908 <_vfprintf_r+0x250>
  406844:	f1bc 0f2a 	cmp.w	ip, #42	; 0x2a
  406848:	d061      	beq.n	40690e <_vfprintf_r+0x256>
  40684a:	f1bc 0f20 	cmp.w	ip, #32
  40684e:	f040 821b 	bne.w	406c88 <_vfprintf_r+0x5d0>
  406852:	e055      	b.n	406900 <_vfprintf_r+0x248>
  406854:	f1bc 0f2e 	cmp.w	ip, #46	; 0x2e
  406858:	d064      	beq.n	406924 <_vfprintf_r+0x26c>
  40685a:	f1bc 0f30 	cmp.w	ip, #48	; 0x30
  40685e:	f000 8081 	beq.w	406964 <_vfprintf_r+0x2ac>
  406862:	f1bc 0f2d 	cmp.w	ip, #45	; 0x2d
  406866:	f040 820f 	bne.w	406c88 <_vfprintf_r+0x5d0>
  40686a:	e058      	b.n	40691e <_vfprintf_r+0x266>
  40686c:	f1bc 0f4f 	cmp.w	ip, #79	; 0x4f
  406870:	f000 80f1 	beq.w	406a56 <_vfprintf_r+0x39e>
  406874:	dc04      	bgt.n	406880 <_vfprintf_r+0x1c8>
  406876:	f1bc 0f44 	cmp.w	ip, #68	; 0x44
  40687a:	f040 8205 	bne.w	406c88 <_vfprintf_r+0x5d0>
  40687e:	e09b      	b.n	4069b8 <_vfprintf_r+0x300>
  406880:	f1bc 0f55 	cmp.w	ip, #85	; 0x55
  406884:	f000 8135 	beq.w	406af2 <_vfprintf_r+0x43a>
  406888:	f1bc 0f58 	cmp.w	ip, #88	; 0x58
  40688c:	f040 81fc 	bne.w	406c88 <_vfprintf_r+0x5d0>
  406890:	e032      	b.n	4068f8 <_vfprintf_r+0x240>
  406892:	f1bc 0f6f 	cmp.w	ip, #111	; 0x6f
  406896:	f000 80e0 	beq.w	406a5a <_vfprintf_r+0x3a2>
  40689a:	dc13      	bgt.n	4068c4 <_vfprintf_r+0x20c>
  40689c:	f1bc 0f69 	cmp.w	ip, #105	; 0x69
  4068a0:	d027      	beq.n	4068f2 <_vfprintf_r+0x23a>
  4068a2:	dc07      	bgt.n	4068b4 <_vfprintf_r+0x1fc>
  4068a4:	f1bc 0f64 	cmp.w	ip, #100	; 0x64
  4068a8:	d023      	beq.n	4068f2 <_vfprintf_r+0x23a>
  4068aa:	f1bc 0f68 	cmp.w	ip, #104	; 0x68
  4068ae:	f040 81eb 	bne.w	406c88 <_vfprintf_r+0x5d0>
  4068b2:	e069      	b.n	406988 <_vfprintf_r+0x2d0>
  4068b4:	f1bc 0f6c 	cmp.w	ip, #108	; 0x6c
  4068b8:	d069      	beq.n	40698e <_vfprintf_r+0x2d6>
  4068ba:	f1bc 0f6e 	cmp.w	ip, #110	; 0x6e
  4068be:	f040 81e3 	bne.w	406c88 <_vfprintf_r+0x5d0>
  4068c2:	e0a7      	b.n	406a14 <_vfprintf_r+0x35c>
  4068c4:	f1bc 0f73 	cmp.w	ip, #115	; 0x73
  4068c8:	f000 80f8 	beq.w	406abc <_vfprintf_r+0x404>
  4068cc:	dc08      	bgt.n	4068e0 <_vfprintf_r+0x228>
  4068ce:	f1bc 0f70 	cmp.w	ip, #112	; 0x70
  4068d2:	f000 80e3 	beq.w	406a9c <_vfprintf_r+0x3e4>
  4068d6:	f1bc 0f71 	cmp.w	ip, #113	; 0x71
  4068da:	f040 81d5 	bne.w	406c88 <_vfprintf_r+0x5d0>
  4068de:	e060      	b.n	4069a2 <_vfprintf_r+0x2ea>
  4068e0:	f1bc 0f75 	cmp.w	ip, #117	; 0x75
  4068e4:	f000 8107 	beq.w	406af6 <_vfprintf_r+0x43e>
  4068e8:	f1bc 0f78 	cmp.w	ip, #120	; 0x78
  4068ec:	f040 81cc 	bne.w	406c88 <_vfprintf_r+0x5d0>
  4068f0:	e11d      	b.n	406b2e <_vfprintf_r+0x476>
  4068f2:	f88d 302f 	strb.w	r3, [sp, #47]	; 0x2f
  4068f6:	e063      	b.n	4069c0 <_vfprintf_r+0x308>
  4068f8:	f88d 302f 	strb.w	r3, [sp, #47]	; 0x2f
  4068fc:	4ba3      	ldr	r3, [pc, #652]	; (406b8c <_vfprintf_r+0x4d4>)
  4068fe:	e119      	b.n	406b34 <_vfprintf_r+0x47c>
  406900:	2b00      	cmp	r3, #0
  406902:	bf08      	it	eq
  406904:	2320      	moveq	r3, #32
  406906:	e786      	b.n	406816 <_vfprintf_r+0x15e>
  406908:	f045 0501 	orr.w	r5, r5, #1
  40690c:	e783      	b.n	406816 <_vfprintf_r+0x15e>
  40690e:	1d22      	adds	r2, r4, #4
  406910:	6824      	ldr	r4, [r4, #0]
  406912:	2c00      	cmp	r4, #0
  406914:	9406      	str	r4, [sp, #24]
  406916:	da13      	bge.n	406940 <_vfprintf_r+0x288>
  406918:	4261      	negs	r1, r4
  40691a:	9106      	str	r1, [sp, #24]
  40691c:	4614      	mov	r4, r2
  40691e:	f045 0504 	orr.w	r5, r5, #4
  406922:	e778      	b.n	406816 <_vfprintf_r+0x15e>
  406924:	9a03      	ldr	r2, [sp, #12]
  406926:	f812 cb01 	ldrb.w	ip, [r2], #1
  40692a:	f1bc 0f2a 	cmp.w	ip, #42	; 0x2a
  40692e:	9203      	str	r2, [sp, #12]
  406930:	d10f      	bne.n	406952 <_vfprintf_r+0x29a>
  406932:	f8d4 a000 	ldr.w	sl, [r4]
  406936:	1d22      	adds	r2, r4, #4
  406938:	f1ba 0f00 	cmp.w	sl, #0
  40693c:	f6ff af68 	blt.w	406810 <_vfprintf_r+0x158>
  406940:	4614      	mov	r4, r2
  406942:	e768      	b.n	406816 <_vfprintf_r+0x15e>
  406944:	9903      	ldr	r1, [sp, #12]
  406946:	fb00 2a0a 	mla	sl, r0, sl, r2
  40694a:	f811 cb01 	ldrb.w	ip, [r1], #1
  40694e:	9103      	str	r1, [sp, #12]
  406950:	e001      	b.n	406956 <_vfprintf_r+0x29e>
  406952:	f04f 0a00 	mov.w	sl, #0
  406956:	f1ac 0230 	sub.w	r2, ip, #48	; 0x30
  40695a:	2a09      	cmp	r2, #9
  40695c:	d9f2      	bls.n	406944 <_vfprintf_r+0x28c>
  40695e:	ea4a 7aea 	orr.w	sl, sl, sl, asr #31
  406962:	e75c      	b.n	40681e <_vfprintf_r+0x166>
  406964:	f045 0580 	orr.w	r5, r5, #128	; 0x80
  406968:	e755      	b.n	406816 <_vfprintf_r+0x15e>
  40696a:	9903      	ldr	r1, [sp, #12]
  40696c:	2200      	movs	r2, #0
  40696e:	f1ac 0c30 	sub.w	ip, ip, #48	; 0x30
  406972:	fb00 c202 	mla	r2, r0, r2, ip
  406976:	f811 cb01 	ldrb.w	ip, [r1], #1
  40697a:	f1ac 0730 	sub.w	r7, ip, #48	; 0x30
  40697e:	2f09      	cmp	r7, #9
  406980:	9103      	str	r1, [sp, #12]
  406982:	d9f4      	bls.n	40696e <_vfprintf_r+0x2b6>
  406984:	9206      	str	r2, [sp, #24]
  406986:	e74a      	b.n	40681e <_vfprintf_r+0x166>
  406988:	f045 0540 	orr.w	r5, r5, #64	; 0x40
  40698c:	e743      	b.n	406816 <_vfprintf_r+0x15e>
  40698e:	9903      	ldr	r1, [sp, #12]
  406990:	780a      	ldrb	r2, [r1, #0]
  406992:	2a6c      	cmp	r2, #108	; 0x6c
  406994:	d102      	bne.n	40699c <_vfprintf_r+0x2e4>
  406996:	3101      	adds	r1, #1
  406998:	9103      	str	r1, [sp, #12]
  40699a:	e002      	b.n	4069a2 <_vfprintf_r+0x2ea>
  40699c:	f045 0510 	orr.w	r5, r5, #16
  4069a0:	e739      	b.n	406816 <_vfprintf_r+0x15e>
  4069a2:	f045 0520 	orr.w	r5, r5, #32
  4069a6:	e736      	b.n	406816 <_vfprintf_r+0x15e>
  4069a8:	6823      	ldr	r3, [r4, #0]
  4069aa:	2200      	movs	r2, #0
  4069ac:	f88d 3040 	strb.w	r3, [sp, #64]	; 0x40
  4069b0:	f88d 202f 	strb.w	r2, [sp, #47]	; 0x2f
  4069b4:	3404      	adds	r4, #4
  4069b6:	e172      	b.n	406c9e <_vfprintf_r+0x5e6>
  4069b8:	f88d 302f 	strb.w	r3, [sp, #47]	; 0x2f
  4069bc:	f045 0510 	orr.w	r5, r5, #16
  4069c0:	06aa      	lsls	r2, r5, #26
  4069c2:	d507      	bpl.n	4069d4 <_vfprintf_r+0x31c>
  4069c4:	3407      	adds	r4, #7
  4069c6:	f024 0307 	bic.w	r3, r4, #7
  4069ca:	f103 0408 	add.w	r4, r3, #8
  4069ce:	e9d3 8900 	ldrd	r8, r9, [r3]
  4069d2:	e011      	b.n	4069f8 <_vfprintf_r+0x340>
  4069d4:	f015 0f10 	tst.w	r5, #16
  4069d8:	f104 0304 	add.w	r3, r4, #4
  4069dc:	d001      	beq.n	4069e2 <_vfprintf_r+0x32a>
  4069de:	6822      	ldr	r2, [r4, #0]
  4069e0:	e006      	b.n	4069f0 <_vfprintf_r+0x338>
  4069e2:	f015 0f40 	tst.w	r5, #64	; 0x40
  4069e6:	6822      	ldr	r2, [r4, #0]
  4069e8:	d002      	beq.n	4069f0 <_vfprintf_r+0x338>
  4069ea:	fa0f f882 	sxth.w	r8, r2
  4069ee:	e000      	b.n	4069f2 <_vfprintf_r+0x33a>
  4069f0:	4690      	mov	r8, r2
  4069f2:	ea4f 79e8 	mov.w	r9, r8, asr #31
  4069f6:	461c      	mov	r4, r3
  4069f8:	f1b8 0f00 	cmp.w	r8, #0
  4069fc:	f179 0300 	sbcs.w	r3, r9, #0
  406a00:	f280 80c8 	bge.w	406b94 <_vfprintf_r+0x4dc>
  406a04:	232d      	movs	r3, #45	; 0x2d
  406a06:	f1d8 0800 	rsbs	r8, r8, #0
  406a0a:	eb69 0949 	sbc.w	r9, r9, r9, lsl #1
  406a0e:	f88d 302f 	strb.w	r3, [sp, #47]	; 0x2f
  406a12:	e0bf      	b.n	406b94 <_vfprintf_r+0x4dc>
  406a14:	f015 0f20 	tst.w	r5, #32
  406a18:	f88d 302f 	strb.w	r3, [sp, #47]	; 0x2f
  406a1c:	f104 0204 	add.w	r2, r4, #4
  406a20:	d005      	beq.n	406a2e <_vfprintf_r+0x376>
  406a22:	9b04      	ldr	r3, [sp, #16]
  406a24:	6821      	ldr	r1, [r4, #0]
  406a26:	17d8      	asrs	r0, r3, #31
  406a28:	600b      	str	r3, [r1, #0]
  406a2a:	6048      	str	r0, [r1, #4]
  406a2c:	e004      	b.n	406a38 <_vfprintf_r+0x380>
  406a2e:	06eb      	lsls	r3, r5, #27
  406a30:	d504      	bpl.n	406a3c <_vfprintf_r+0x384>
  406a32:	6823      	ldr	r3, [r4, #0]
  406a34:	9804      	ldr	r0, [sp, #16]
  406a36:	6018      	str	r0, [r3, #0]
  406a38:	4614      	mov	r4, r2
  406a3a:	e6b0      	b.n	40679e <_vfprintf_r+0xe6>
  406a3c:	f015 0f40 	tst.w	r5, #64	; 0x40
  406a40:	6822      	ldr	r2, [r4, #0]
  406a42:	bf14      	ite	ne
  406a44:	9904      	ldrne	r1, [sp, #16]
  406a46:	9804      	ldreq	r0, [sp, #16]
  406a48:	f104 0304 	add.w	r3, r4, #4
  406a4c:	bf14      	ite	ne
  406a4e:	8011      	strhne	r1, [r2, #0]
  406a50:	6010      	streq	r0, [r2, #0]
  406a52:	461c      	mov	r4, r3
  406a54:	e6a3      	b.n	40679e <_vfprintf_r+0xe6>
  406a56:	f045 0510 	orr.w	r5, r5, #16
  406a5a:	f015 0320 	ands.w	r3, r5, #32
  406a5e:	d008      	beq.n	406a72 <_vfprintf_r+0x3ba>
  406a60:	3407      	adds	r4, #7
  406a62:	f024 0307 	bic.w	r3, r4, #7
  406a66:	f103 0408 	add.w	r4, r3, #8
  406a6a:	e9d3 8900 	ldrd	r8, r9, [r3]
  406a6e:	2300      	movs	r3, #0
  406a70:	e088      	b.n	406b84 <_vfprintf_r+0x4cc>
  406a72:	f015 0110 	ands.w	r1, r5, #16
  406a76:	f104 0204 	add.w	r2, r4, #4
  406a7a:	d000      	beq.n	406a7e <_vfprintf_r+0x3c6>
  406a7c:	e008      	b.n	406a90 <_vfprintf_r+0x3d8>
  406a7e:	f015 0340 	ands.w	r3, r5, #64	; 0x40
  406a82:	d005      	beq.n	406a90 <_vfprintf_r+0x3d8>
  406a84:	f8b4 8000 	ldrh.w	r8, [r4]
  406a88:	f04f 0900 	mov.w	r9, #0
  406a8c:	4614      	mov	r4, r2
  406a8e:	e7ee      	b.n	406a6e <_vfprintf_r+0x3b6>
  406a90:	6821      	ldr	r1, [r4, #0]
  406a92:	f04f 0900 	mov.w	r9, #0
  406a96:	4688      	mov	r8, r1
  406a98:	4614      	mov	r4, r2
  406a9a:	e073      	b.n	406b84 <_vfprintf_r+0x4cc>
  406a9c:	6823      	ldr	r3, [r4, #0]
  406a9e:	493c      	ldr	r1, [pc, #240]	; (406b90 <_vfprintf_r+0x4d8>)
  406aa0:	4698      	mov	r8, r3
  406aa2:	2330      	movs	r3, #48	; 0x30
  406aa4:	f88d 3030 	strb.w	r3, [sp, #48]	; 0x30
  406aa8:	2378      	movs	r3, #120	; 0x78
  406aaa:	f04f 0900 	mov.w	r9, #0
  406aae:	f045 0502 	orr.w	r5, r5, #2
  406ab2:	f88d 3031 	strb.w	r3, [sp, #49]	; 0x31
  406ab6:	3404      	adds	r4, #4
  406ab8:	9107      	str	r1, [sp, #28]
  406aba:	e062      	b.n	406b82 <_vfprintf_r+0x4ca>
  406abc:	4623      	mov	r3, r4
  406abe:	681f      	ldr	r7, [r3, #0]
  406ac0:	2200      	movs	r2, #0
  406ac2:	3404      	adds	r4, #4
  406ac4:	f1ba 0f00 	cmp.w	sl, #0
  406ac8:	f88d 202f 	strb.w	r2, [sp, #47]	; 0x2f
  406acc:	4638      	mov	r0, r7
  406ace:	db0c      	blt.n	406aea <_vfprintf_r+0x432>
  406ad0:	2100      	movs	r1, #0
  406ad2:	4652      	mov	r2, sl
  406ad4:	f001 faf0 	bl	4080b8 <memchr>
  406ad8:	2800      	cmp	r0, #0
  406ada:	f000 80e6 	beq.w	406caa <_vfprintf_r+0x5f2>
  406ade:	ebc7 0900 	rsb	r9, r7, r0
  406ae2:	45d1      	cmp	r9, sl
  406ae4:	f300 80e4 	bgt.w	406cb0 <_vfprintf_r+0x5f8>
  406ae8:	e0e3      	b.n	406cb2 <_vfprintf_r+0x5fa>
  406aea:	f7ff f8fb 	bl	405ce4 <strlen>
  406aee:	4681      	mov	r9, r0
  406af0:	e0df      	b.n	406cb2 <_vfprintf_r+0x5fa>
  406af2:	f045 0510 	orr.w	r5, r5, #16
  406af6:	06af      	lsls	r7, r5, #26
  406af8:	d507      	bpl.n	406b0a <_vfprintf_r+0x452>
  406afa:	3407      	adds	r4, #7
  406afc:	f024 0307 	bic.w	r3, r4, #7
  406b00:	f103 0408 	add.w	r4, r3, #8
  406b04:	e9d3 8900 	ldrd	r8, r9, [r3]
  406b08:	e00f      	b.n	406b2a <_vfprintf_r+0x472>
  406b0a:	f015 0f10 	tst.w	r5, #16
  406b0e:	f104 0304 	add.w	r3, r4, #4
  406b12:	d000      	beq.n	406b16 <_vfprintf_r+0x45e>
  406b14:	e004      	b.n	406b20 <_vfprintf_r+0x468>
  406b16:	0668      	lsls	r0, r5, #25
  406b18:	d502      	bpl.n	406b20 <_vfprintf_r+0x468>
  406b1a:	f8b4 8000 	ldrh.w	r8, [r4]
  406b1e:	e001      	b.n	406b24 <_vfprintf_r+0x46c>
  406b20:	6822      	ldr	r2, [r4, #0]
  406b22:	4690      	mov	r8, r2
  406b24:	f04f 0900 	mov.w	r9, #0
  406b28:	461c      	mov	r4, r3
  406b2a:	2301      	movs	r3, #1
  406b2c:	e02a      	b.n	406b84 <_vfprintf_r+0x4cc>
  406b2e:	f88d 302f 	strb.w	r3, [sp, #47]	; 0x2f
  406b32:	4b17      	ldr	r3, [pc, #92]	; (406b90 <_vfprintf_r+0x4d8>)
  406b34:	06a9      	lsls	r1, r5, #26
  406b36:	9307      	str	r3, [sp, #28]
  406b38:	d507      	bpl.n	406b4a <_vfprintf_r+0x492>
  406b3a:	3407      	adds	r4, #7
  406b3c:	f024 0307 	bic.w	r3, r4, #7
  406b40:	f103 0408 	add.w	r4, r3, #8
  406b44:	e9d3 8900 	ldrd	r8, r9, [r3]
  406b48:	e00f      	b.n	406b6a <_vfprintf_r+0x4b2>
  406b4a:	f015 0f10 	tst.w	r5, #16
  406b4e:	f104 0304 	add.w	r3, r4, #4
  406b52:	d000      	beq.n	406b56 <_vfprintf_r+0x49e>
  406b54:	e004      	b.n	406b60 <_vfprintf_r+0x4a8>
  406b56:	066a      	lsls	r2, r5, #25
  406b58:	d502      	bpl.n	406b60 <_vfprintf_r+0x4a8>
  406b5a:	f8b4 8000 	ldrh.w	r8, [r4]
  406b5e:	e001      	b.n	406b64 <_vfprintf_r+0x4ac>
  406b60:	6822      	ldr	r2, [r4, #0]
  406b62:	4690      	mov	r8, r2
  406b64:	f04f 0900 	mov.w	r9, #0
  406b68:	461c      	mov	r4, r3
  406b6a:	07ef      	lsls	r7, r5, #31
  406b6c:	d509      	bpl.n	406b82 <_vfprintf_r+0x4ca>
  406b6e:	ea58 0009 	orrs.w	r0, r8, r9
  406b72:	d006      	beq.n	406b82 <_vfprintf_r+0x4ca>
  406b74:	2330      	movs	r3, #48	; 0x30
  406b76:	f88d 3030 	strb.w	r3, [sp, #48]	; 0x30
  406b7a:	f88d c031 	strb.w	ip, [sp, #49]	; 0x31
  406b7e:	f045 0502 	orr.w	r5, r5, #2
  406b82:	2302      	movs	r3, #2
  406b84:	2100      	movs	r1, #0
  406b86:	f88d 102f 	strb.w	r1, [sp, #47]	; 0x2f
  406b8a:	e004      	b.n	406b96 <_vfprintf_r+0x4de>
  406b8c:	0040a7f6 	.word	0x0040a7f6
  406b90:	0040a807 	.word	0x0040a807
  406b94:	2301      	movs	r3, #1
  406b96:	f1ba 0f00 	cmp.w	sl, #0
  406b9a:	bfa8      	it	ge
  406b9c:	f025 0580 	bicge.w	r5, r5, #128	; 0x80
  406ba0:	ea58 0209 	orrs.w	r2, r8, r9
  406ba4:	d102      	bne.n	406bac <_vfprintf_r+0x4f4>
  406ba6:	f1ba 0f00 	cmp.w	sl, #0
  406baa:	d05f      	beq.n	406c6c <_vfprintf_r+0x5b4>
  406bac:	2b01      	cmp	r3, #1
  406bae:	d021      	beq.n	406bf4 <_vfprintf_r+0x53c>
  406bb0:	2b02      	cmp	r3, #2
  406bb2:	d044      	beq.n	406c3e <_vfprintf_r+0x586>
  406bb4:	f10d 0367 	add.w	r3, sp, #103	; 0x67
  406bb8:	2007      	movs	r0, #7
  406bba:	ea08 0200 	and.w	r2, r8, r0
  406bbe:	f102 0130 	add.w	r1, r2, #48	; 0x30
  406bc2:	ea4f 02d8 	mov.w	r2, r8, lsr #3
  406bc6:	ea42 7249 	orr.w	r2, r2, r9, lsl #29
  406bca:	ea4f 00d9 	mov.w	r0, r9, lsr #3
  406bce:	b2c9      	uxtb	r1, r1
  406bd0:	4690      	mov	r8, r2
  406bd2:	4681      	mov	r9, r0
  406bd4:	461f      	mov	r7, r3
  406bd6:	7019      	strb	r1, [r3, #0]
  406bd8:	3b01      	subs	r3, #1
  406bda:	ea58 0209 	orrs.w	r2, r8, r9
  406bde:	d1eb      	bne.n	406bb8 <_vfprintf_r+0x500>
  406be0:	07e8      	lsls	r0, r5, #31
  406be2:	463a      	mov	r2, r7
  406be4:	d54b      	bpl.n	406c7e <_vfprintf_r+0x5c6>
  406be6:	2930      	cmp	r1, #48	; 0x30
  406be8:	d049      	beq.n	406c7e <_vfprintf_r+0x5c6>
  406bea:	461f      	mov	r7, r3
  406bec:	2330      	movs	r3, #48	; 0x30
  406bee:	f802 3c01 	strb.w	r3, [r2, #-1]
  406bf2:	e044      	b.n	406c7e <_vfprintf_r+0x5c6>
  406bf4:	f1b9 0f00 	cmp.w	r9, #0
  406bf8:	bf08      	it	eq
  406bfa:	f1b8 0f0a 	cmpeq.w	r8, #10
  406bfe:	d203      	bcs.n	406c08 <_vfprintf_r+0x550>
  406c00:	f108 0330 	add.w	r3, r8, #48	; 0x30
  406c04:	af10      	add	r7, sp, #64	; 0x40
  406c06:	e036      	b.n	406c76 <_vfprintf_r+0x5be>
  406c08:	f10d 0367 	add.w	r3, sp, #103	; 0x67
  406c0c:	9305      	str	r3, [sp, #20]
  406c0e:	4640      	mov	r0, r8
  406c10:	4649      	mov	r1, r9
  406c12:	220a      	movs	r2, #10
  406c14:	2300      	movs	r3, #0
  406c16:	f001 fe07 	bl	408828 <__aeabi_uldivmod>
  406c1a:	9805      	ldr	r0, [sp, #20]
  406c1c:	3230      	adds	r2, #48	; 0x30
  406c1e:	f800 2901 	strb.w	r2, [r0], #-1
  406c22:	4649      	mov	r1, r9
  406c24:	220a      	movs	r2, #10
  406c26:	2300      	movs	r3, #0
  406c28:	9f05      	ldr	r7, [sp, #20]
  406c2a:	9005      	str	r0, [sp, #20]
  406c2c:	4640      	mov	r0, r8
  406c2e:	f001 fdfb 	bl	408828 <__aeabi_uldivmod>
  406c32:	4680      	mov	r8, r0
  406c34:	4689      	mov	r9, r1
  406c36:	ea58 0109 	orrs.w	r1, r8, r9
  406c3a:	d1e8      	bne.n	406c0e <_vfprintf_r+0x556>
  406c3c:	e01f      	b.n	406c7e <_vfprintf_r+0x5c6>
  406c3e:	f10d 0c67 	add.w	ip, sp, #103	; 0x67
  406c42:	200f      	movs	r0, #15
  406c44:	9907      	ldr	r1, [sp, #28]
  406c46:	ea08 0200 	and.w	r2, r8, r0
  406c4a:	188a      	adds	r2, r1, r2
  406c4c:	7813      	ldrb	r3, [r2, #0]
  406c4e:	4667      	mov	r7, ip
  406c50:	f80c 3901 	strb.w	r3, [ip], #-1
  406c54:	ea4f 1318 	mov.w	r3, r8, lsr #4
  406c58:	ea43 7309 	orr.w	r3, r3, r9, lsl #28
  406c5c:	ea4f 1219 	mov.w	r2, r9, lsr #4
  406c60:	4698      	mov	r8, r3
  406c62:	4691      	mov	r9, r2
  406c64:	ea58 0209 	orrs.w	r2, r8, r9
  406c68:	d1eb      	bne.n	406c42 <_vfprintf_r+0x58a>
  406c6a:	e008      	b.n	406c7e <_vfprintf_r+0x5c6>
  406c6c:	b933      	cbnz	r3, 406c7c <_vfprintf_r+0x5c4>
  406c6e:	07e9      	lsls	r1, r5, #31
  406c70:	d504      	bpl.n	406c7c <_vfprintf_r+0x5c4>
  406c72:	af10      	add	r7, sp, #64	; 0x40
  406c74:	2330      	movs	r3, #48	; 0x30
  406c76:	f807 3f27 	strb.w	r3, [r7, #39]!
  406c7a:	e000      	b.n	406c7e <_vfprintf_r+0x5c6>
  406c7c:	af1a      	add	r7, sp, #104	; 0x68
  406c7e:	f10d 0968 	add.w	r9, sp, #104	; 0x68
  406c82:	ebc7 0909 	rsb	r9, r7, r9
  406c86:	e016      	b.n	406cb6 <_vfprintf_r+0x5fe>
  406c88:	f88d 302f 	strb.w	r3, [sp, #47]	; 0x2f
  406c8c:	f1bc 0f00 	cmp.w	ip, #0
  406c90:	f000 819c 	beq.w	406fcc <_vfprintf_r+0x914>
  406c94:	2300      	movs	r3, #0
  406c96:	f88d c040 	strb.w	ip, [sp, #64]	; 0x40
  406c9a:	f88d 302f 	strb.w	r3, [sp, #47]	; 0x2f
  406c9e:	f04f 0901 	mov.w	r9, #1
  406ca2:	f04f 0a00 	mov.w	sl, #0
  406ca6:	af10      	add	r7, sp, #64	; 0x40
  406ca8:	e005      	b.n	406cb6 <_vfprintf_r+0x5fe>
  406caa:	46d1      	mov	r9, sl
  406cac:	4682      	mov	sl, r0
  406cae:	e002      	b.n	406cb6 <_vfprintf_r+0x5fe>
  406cb0:	46d1      	mov	r9, sl
  406cb2:	f04f 0a00 	mov.w	sl, #0
  406cb6:	45d1      	cmp	r9, sl
  406cb8:	bfac      	ite	ge
  406cba:	464b      	movge	r3, r9
  406cbc:	4653      	movlt	r3, sl
  406cbe:	9305      	str	r3, [sp, #20]
  406cc0:	f89d 302f 	ldrb.w	r3, [sp, #47]	; 0x2f
  406cc4:	b113      	cbz	r3, 406ccc <_vfprintf_r+0x614>
  406cc6:	9b05      	ldr	r3, [sp, #20]
  406cc8:	3301      	adds	r3, #1
  406cca:	9305      	str	r3, [sp, #20]
  406ccc:	f015 0302 	ands.w	r3, r5, #2
  406cd0:	9308      	str	r3, [sp, #32]
  406cd2:	d002      	beq.n	406cda <_vfprintf_r+0x622>
  406cd4:	9b05      	ldr	r3, [sp, #20]
  406cd6:	3302      	adds	r3, #2
  406cd8:	9305      	str	r3, [sp, #20]
  406cda:	f015 0384 	ands.w	r3, r5, #132	; 0x84
  406cde:	9309      	str	r3, [sp, #36]	; 0x24
  406ce0:	d145      	bne.n	406d6e <_vfprintf_r+0x6b6>
  406ce2:	9806      	ldr	r0, [sp, #24]
  406ce4:	9b05      	ldr	r3, [sp, #20]
  406ce6:	ebc3 0c00 	rsb	ip, r3, r0
  406cea:	f1bc 0f00 	cmp.w	ip, #0
  406cee:	dc20      	bgt.n	406d32 <_vfprintf_r+0x67a>
  406cf0:	e03d      	b.n	406d6e <_vfprintf_r+0x6b6>
  406cf2:	9a0f      	ldr	r2, [sp, #60]	; 0x3c
  406cf4:	f8cb 8000 	str.w	r8, [fp]
  406cf8:	3210      	adds	r2, #16
  406cfa:	920f      	str	r2, [sp, #60]	; 0x3c
  406cfc:	9a0e      	ldr	r2, [sp, #56]	; 0x38
  406cfe:	f8cb 3004 	str.w	r3, [fp, #4]
  406d02:	3201      	adds	r2, #1
  406d04:	2a07      	cmp	r2, #7
  406d06:	920e      	str	r2, [sp, #56]	; 0x38
  406d08:	dc02      	bgt.n	406d10 <_vfprintf_r+0x658>
  406d0a:	f10b 0b08 	add.w	fp, fp, #8
  406d0e:	e00d      	b.n	406d2c <_vfprintf_r+0x674>
  406d10:	9802      	ldr	r0, [sp, #8]
  406d12:	4631      	mov	r1, r6
  406d14:	aa0d      	add	r2, sp, #52	; 0x34
  406d16:	e88d 1008 	stmia.w	sp, {r3, ip}
  406d1a:	f7fe ffeb 	bl	405cf4 <__sprint_r>
  406d1e:	e89d 1008 	ldmia.w	sp, {r3, ip}
  406d22:	2800      	cmp	r0, #0
  406d24:	f040 8159 	bne.w	406fda <_vfprintf_r+0x922>
  406d28:	f10d 0bd0 	add.w	fp, sp, #208	; 0xd0
  406d2c:	f1ac 0c10 	sub.w	ip, ip, #16
  406d30:	e002      	b.n	406d38 <_vfprintf_r+0x680>
  406d32:	f8df 8290 	ldr.w	r8, [pc, #656]	; 406fc4 <_vfprintf_r+0x90c>
  406d36:	2310      	movs	r3, #16
  406d38:	f1bc 0f10 	cmp.w	ip, #16
  406d3c:	dcd9      	bgt.n	406cf2 <_vfprintf_r+0x63a>
  406d3e:	4ba1      	ldr	r3, [pc, #644]	; (406fc4 <_vfprintf_r+0x90c>)
  406d40:	e88b 1008 	stmia.w	fp, {r3, ip}
  406d44:	9b0f      	ldr	r3, [sp, #60]	; 0x3c
  406d46:	4463      	add	r3, ip
  406d48:	930f      	str	r3, [sp, #60]	; 0x3c
  406d4a:	9b0e      	ldr	r3, [sp, #56]	; 0x38
  406d4c:	3301      	adds	r3, #1
  406d4e:	2b07      	cmp	r3, #7
  406d50:	930e      	str	r3, [sp, #56]	; 0x38
  406d52:	dc02      	bgt.n	406d5a <_vfprintf_r+0x6a2>
  406d54:	f10b 0b08 	add.w	fp, fp, #8
  406d58:	e009      	b.n	406d6e <_vfprintf_r+0x6b6>
  406d5a:	9802      	ldr	r0, [sp, #8]
  406d5c:	4631      	mov	r1, r6
  406d5e:	aa0d      	add	r2, sp, #52	; 0x34
  406d60:	f7fe ffc8 	bl	405cf4 <__sprint_r>
  406d64:	2800      	cmp	r0, #0
  406d66:	f040 8138 	bne.w	406fda <_vfprintf_r+0x922>
  406d6a:	f10d 0bd0 	add.w	fp, sp, #208	; 0xd0
  406d6e:	f89d 202f 	ldrb.w	r2, [sp, #47]	; 0x2f
  406d72:	f10d 032f 	add.w	r3, sp, #47	; 0x2f
  406d76:	b1ca      	cbz	r2, 406dac <_vfprintf_r+0x6f4>
  406d78:	f8cb 3000 	str.w	r3, [fp]
  406d7c:	2301      	movs	r3, #1
  406d7e:	f8cb 3004 	str.w	r3, [fp, #4]
  406d82:	9b0f      	ldr	r3, [sp, #60]	; 0x3c
  406d84:	3301      	adds	r3, #1
  406d86:	930f      	str	r3, [sp, #60]	; 0x3c
  406d88:	9b0e      	ldr	r3, [sp, #56]	; 0x38
  406d8a:	3301      	adds	r3, #1
  406d8c:	2b07      	cmp	r3, #7
  406d8e:	930e      	str	r3, [sp, #56]	; 0x38
  406d90:	dc02      	bgt.n	406d98 <_vfprintf_r+0x6e0>
  406d92:	f10b 0b08 	add.w	fp, fp, #8
  406d96:	e009      	b.n	406dac <_vfprintf_r+0x6f4>
  406d98:	9802      	ldr	r0, [sp, #8]
  406d9a:	4631      	mov	r1, r6
  406d9c:	aa0d      	add	r2, sp, #52	; 0x34
  406d9e:	f7fe ffa9 	bl	405cf4 <__sprint_r>
  406da2:	2800      	cmp	r0, #0
  406da4:	f040 8119 	bne.w	406fda <_vfprintf_r+0x922>
  406da8:	f10d 0bd0 	add.w	fp, sp, #208	; 0xd0
  406dac:	9b08      	ldr	r3, [sp, #32]
  406dae:	b1d3      	cbz	r3, 406de6 <_vfprintf_r+0x72e>
  406db0:	ab0c      	add	r3, sp, #48	; 0x30
  406db2:	f8cb 3000 	str.w	r3, [fp]
  406db6:	2302      	movs	r3, #2
  406db8:	f8cb 3004 	str.w	r3, [fp, #4]
  406dbc:	9b0f      	ldr	r3, [sp, #60]	; 0x3c
  406dbe:	3302      	adds	r3, #2
  406dc0:	930f      	str	r3, [sp, #60]	; 0x3c
  406dc2:	9b0e      	ldr	r3, [sp, #56]	; 0x38
  406dc4:	3301      	adds	r3, #1
  406dc6:	2b07      	cmp	r3, #7
  406dc8:	930e      	str	r3, [sp, #56]	; 0x38
  406dca:	dc02      	bgt.n	406dd2 <_vfprintf_r+0x71a>
  406dcc:	f10b 0b08 	add.w	fp, fp, #8
  406dd0:	e009      	b.n	406de6 <_vfprintf_r+0x72e>
  406dd2:	9802      	ldr	r0, [sp, #8]
  406dd4:	4631      	mov	r1, r6
  406dd6:	aa0d      	add	r2, sp, #52	; 0x34
  406dd8:	f7fe ff8c 	bl	405cf4 <__sprint_r>
  406ddc:	2800      	cmp	r0, #0
  406dde:	f040 80fc 	bne.w	406fda <_vfprintf_r+0x922>
  406de2:	f10d 0bd0 	add.w	fp, sp, #208	; 0xd0
  406de6:	9b09      	ldr	r3, [sp, #36]	; 0x24
  406de8:	2b80      	cmp	r3, #128	; 0x80
  406dea:	d145      	bne.n	406e78 <_vfprintf_r+0x7c0>
  406dec:	9806      	ldr	r0, [sp, #24]
  406dee:	9b05      	ldr	r3, [sp, #20]
  406df0:	ebc3 0c00 	rsb	ip, r3, r0
  406df4:	f1bc 0f00 	cmp.w	ip, #0
  406df8:	dc20      	bgt.n	406e3c <_vfprintf_r+0x784>
  406dfa:	e03d      	b.n	406e78 <_vfprintf_r+0x7c0>
  406dfc:	9a0f      	ldr	r2, [sp, #60]	; 0x3c
  406dfe:	f8cb 8000 	str.w	r8, [fp]
  406e02:	3210      	adds	r2, #16
  406e04:	920f      	str	r2, [sp, #60]	; 0x3c
  406e06:	9a0e      	ldr	r2, [sp, #56]	; 0x38
  406e08:	f8cb 3004 	str.w	r3, [fp, #4]
  406e0c:	3201      	adds	r2, #1
  406e0e:	2a07      	cmp	r2, #7
  406e10:	920e      	str	r2, [sp, #56]	; 0x38
  406e12:	dc02      	bgt.n	406e1a <_vfprintf_r+0x762>
  406e14:	f10b 0b08 	add.w	fp, fp, #8
  406e18:	e00d      	b.n	406e36 <_vfprintf_r+0x77e>
  406e1a:	9802      	ldr	r0, [sp, #8]
  406e1c:	4631      	mov	r1, r6
  406e1e:	aa0d      	add	r2, sp, #52	; 0x34
  406e20:	e88d 1008 	stmia.w	sp, {r3, ip}
  406e24:	f7fe ff66 	bl	405cf4 <__sprint_r>
  406e28:	e89d 1008 	ldmia.w	sp, {r3, ip}
  406e2c:	2800      	cmp	r0, #0
  406e2e:	f040 80d4 	bne.w	406fda <_vfprintf_r+0x922>
  406e32:	f10d 0bd0 	add.w	fp, sp, #208	; 0xd0
  406e36:	f1ac 0c10 	sub.w	ip, ip, #16
  406e3a:	e002      	b.n	406e42 <_vfprintf_r+0x78a>
  406e3c:	f8df 8188 	ldr.w	r8, [pc, #392]	; 406fc8 <_vfprintf_r+0x910>
  406e40:	2310      	movs	r3, #16
  406e42:	f1bc 0f10 	cmp.w	ip, #16
  406e46:	dcd9      	bgt.n	406dfc <_vfprintf_r+0x744>
  406e48:	4b5f      	ldr	r3, [pc, #380]	; (406fc8 <_vfprintf_r+0x910>)
  406e4a:	e88b 1008 	stmia.w	fp, {r3, ip}
  406e4e:	9b0f      	ldr	r3, [sp, #60]	; 0x3c
  406e50:	4463      	add	r3, ip
  406e52:	930f      	str	r3, [sp, #60]	; 0x3c
  406e54:	9b0e      	ldr	r3, [sp, #56]	; 0x38
  406e56:	3301      	adds	r3, #1
  406e58:	2b07      	cmp	r3, #7
  406e5a:	930e      	str	r3, [sp, #56]	; 0x38
  406e5c:	dc02      	bgt.n	406e64 <_vfprintf_r+0x7ac>
  406e5e:	f10b 0b08 	add.w	fp, fp, #8
  406e62:	e009      	b.n	406e78 <_vfprintf_r+0x7c0>
  406e64:	9802      	ldr	r0, [sp, #8]
  406e66:	4631      	mov	r1, r6
  406e68:	aa0d      	add	r2, sp, #52	; 0x34
  406e6a:	f7fe ff43 	bl	405cf4 <__sprint_r>
  406e6e:	2800      	cmp	r0, #0
  406e70:	f040 80b3 	bne.w	406fda <_vfprintf_r+0x922>
  406e74:	f10d 0bd0 	add.w	fp, sp, #208	; 0xd0
  406e78:	ebc9 030a 	rsb	r3, r9, sl
  406e7c:	2b00      	cmp	r3, #0
  406e7e:	dc1b      	bgt.n	406eb8 <_vfprintf_r+0x800>
  406e80:	e037      	b.n	406ef2 <_vfprintf_r+0x83a>
  406e82:	9a0f      	ldr	r2, [sp, #60]	; 0x3c
  406e84:	e88b 0500 	stmia.w	fp, {r8, sl}
  406e88:	3210      	adds	r2, #16
  406e8a:	920f      	str	r2, [sp, #60]	; 0x3c
  406e8c:	9a0e      	ldr	r2, [sp, #56]	; 0x38
  406e8e:	3201      	adds	r2, #1
  406e90:	2a07      	cmp	r2, #7
  406e92:	920e      	str	r2, [sp, #56]	; 0x38
  406e94:	dc02      	bgt.n	406e9c <_vfprintf_r+0x7e4>
  406e96:	f10b 0b08 	add.w	fp, fp, #8
  406e9a:	e00b      	b.n	406eb4 <_vfprintf_r+0x7fc>
  406e9c:	9802      	ldr	r0, [sp, #8]
  406e9e:	4631      	mov	r1, r6
  406ea0:	aa0d      	add	r2, sp, #52	; 0x34
  406ea2:	9300      	str	r3, [sp, #0]
  406ea4:	f7fe ff26 	bl	405cf4 <__sprint_r>
  406ea8:	9b00      	ldr	r3, [sp, #0]
  406eaa:	2800      	cmp	r0, #0
  406eac:	f040 8095 	bne.w	406fda <_vfprintf_r+0x922>
  406eb0:	f10d 0bd0 	add.w	fp, sp, #208	; 0xd0
  406eb4:	3b10      	subs	r3, #16
  406eb6:	e003      	b.n	406ec0 <_vfprintf_r+0x808>
  406eb8:	f8df 810c 	ldr.w	r8, [pc, #268]	; 406fc8 <_vfprintf_r+0x910>
  406ebc:	f04f 0a10 	mov.w	sl, #16
  406ec0:	2b10      	cmp	r3, #16
  406ec2:	dcde      	bgt.n	406e82 <_vfprintf_r+0x7ca>
  406ec4:	4a40      	ldr	r2, [pc, #256]	; (406fc8 <_vfprintf_r+0x910>)
  406ec6:	e88b 000c 	stmia.w	fp, {r2, r3}
  406eca:	9a0f      	ldr	r2, [sp, #60]	; 0x3c
  406ecc:	18d3      	adds	r3, r2, r3
  406ece:	930f      	str	r3, [sp, #60]	; 0x3c
  406ed0:	9b0e      	ldr	r3, [sp, #56]	; 0x38
  406ed2:	3301      	adds	r3, #1
  406ed4:	2b07      	cmp	r3, #7
  406ed6:	930e      	str	r3, [sp, #56]	; 0x38
  406ed8:	dc02      	bgt.n	406ee0 <_vfprintf_r+0x828>
  406eda:	f10b 0b08 	add.w	fp, fp, #8
  406ede:	e008      	b.n	406ef2 <_vfprintf_r+0x83a>
  406ee0:	9802      	ldr	r0, [sp, #8]
  406ee2:	4631      	mov	r1, r6
  406ee4:	aa0d      	add	r2, sp, #52	; 0x34
  406ee6:	f7fe ff05 	bl	405cf4 <__sprint_r>
  406eea:	2800      	cmp	r0, #0
  406eec:	d175      	bne.n	406fda <_vfprintf_r+0x922>
  406eee:	f10d 0bd0 	add.w	fp, sp, #208	; 0xd0
  406ef2:	9b0f      	ldr	r3, [sp, #60]	; 0x3c
  406ef4:	e88b 0280 	stmia.w	fp, {r7, r9}
  406ef8:	444b      	add	r3, r9
  406efa:	930f      	str	r3, [sp, #60]	; 0x3c
  406efc:	9b0e      	ldr	r3, [sp, #56]	; 0x38
  406efe:	3301      	adds	r3, #1
  406f00:	2b07      	cmp	r3, #7
  406f02:	930e      	str	r3, [sp, #56]	; 0x38
  406f04:	dc02      	bgt.n	406f0c <_vfprintf_r+0x854>
  406f06:	f10b 0308 	add.w	r3, fp, #8
  406f0a:	e007      	b.n	406f1c <_vfprintf_r+0x864>
  406f0c:	9802      	ldr	r0, [sp, #8]
  406f0e:	4631      	mov	r1, r6
  406f10:	aa0d      	add	r2, sp, #52	; 0x34
  406f12:	f7fe feef 	bl	405cf4 <__sprint_r>
  406f16:	2800      	cmp	r0, #0
  406f18:	d15f      	bne.n	406fda <_vfprintf_r+0x922>
  406f1a:	ab34      	add	r3, sp, #208	; 0xd0
  406f1c:	076a      	lsls	r2, r5, #29
  406f1e:	d40b      	bmi.n	406f38 <_vfprintf_r+0x880>
  406f20:	9804      	ldr	r0, [sp, #16]
  406f22:	9b05      	ldr	r3, [sp, #20]
  406f24:	9906      	ldr	r1, [sp, #24]
  406f26:	428b      	cmp	r3, r1
  406f28:	bfac      	ite	ge
  406f2a:	18c0      	addge	r0, r0, r3
  406f2c:	1840      	addlt	r0, r0, r1
  406f2e:	9b0f      	ldr	r3, [sp, #60]	; 0x3c
  406f30:	9004      	str	r0, [sp, #16]
  406f32:	2b00      	cmp	r3, #0
  406f34:	d037      	beq.n	406fa6 <_vfprintf_r+0x8ee>
  406f36:	e03c      	b.n	406fb2 <_vfprintf_r+0x8fa>
  406f38:	9806      	ldr	r0, [sp, #24]
  406f3a:	9905      	ldr	r1, [sp, #20]
  406f3c:	ebc1 0900 	rsb	r9, r1, r0
  406f40:	f1b9 0f00 	cmp.w	r9, #0
  406f44:	dc17      	bgt.n	406f76 <_vfprintf_r+0x8be>
  406f46:	e7eb      	b.n	406f20 <_vfprintf_r+0x868>
  406f48:	9a0f      	ldr	r2, [sp, #60]	; 0x3c
  406f4a:	e883 00a0 	stmia.w	r3, {r5, r7}
  406f4e:	3210      	adds	r2, #16
  406f50:	920f      	str	r2, [sp, #60]	; 0x3c
  406f52:	9a0e      	ldr	r2, [sp, #56]	; 0x38
  406f54:	3201      	adds	r2, #1
  406f56:	2a07      	cmp	r2, #7
  406f58:	920e      	str	r2, [sp, #56]	; 0x38
  406f5a:	dc01      	bgt.n	406f60 <_vfprintf_r+0x8a8>
  406f5c:	3308      	adds	r3, #8
  406f5e:	e007      	b.n	406f70 <_vfprintf_r+0x8b8>
  406f60:	9802      	ldr	r0, [sp, #8]
  406f62:	4631      	mov	r1, r6
  406f64:	aa0d      	add	r2, sp, #52	; 0x34
  406f66:	f7fe fec5 	bl	405cf4 <__sprint_r>
  406f6a:	2800      	cmp	r0, #0
  406f6c:	d135      	bne.n	406fda <_vfprintf_r+0x922>
  406f6e:	ab34      	add	r3, sp, #208	; 0xd0
  406f70:	f1a9 0910 	sub.w	r9, r9, #16
  406f74:	e001      	b.n	406f7a <_vfprintf_r+0x8c2>
  406f76:	4d13      	ldr	r5, [pc, #76]	; (406fc4 <_vfprintf_r+0x90c>)
  406f78:	2710      	movs	r7, #16
  406f7a:	f1b9 0f10 	cmp.w	r9, #16
  406f7e:	dce3      	bgt.n	406f48 <_vfprintf_r+0x890>
  406f80:	4a10      	ldr	r2, [pc, #64]	; (406fc4 <_vfprintf_r+0x90c>)
  406f82:	e883 0204 	stmia.w	r3, {r2, r9}
  406f86:	9b0f      	ldr	r3, [sp, #60]	; 0x3c
  406f88:	444b      	add	r3, r9
  406f8a:	930f      	str	r3, [sp, #60]	; 0x3c
  406f8c:	9b0e      	ldr	r3, [sp, #56]	; 0x38
  406f8e:	3301      	adds	r3, #1
  406f90:	2b07      	cmp	r3, #7
  406f92:	930e      	str	r3, [sp, #56]	; 0x38
  406f94:	ddc4      	ble.n	406f20 <_vfprintf_r+0x868>
  406f96:	9802      	ldr	r0, [sp, #8]
  406f98:	4631      	mov	r1, r6
  406f9a:	aa0d      	add	r2, sp, #52	; 0x34
  406f9c:	f7fe feaa 	bl	405cf4 <__sprint_r>
  406fa0:	2800      	cmp	r0, #0
  406fa2:	d0bd      	beq.n	406f20 <_vfprintf_r+0x868>
  406fa4:	e019      	b.n	406fda <_vfprintf_r+0x922>
  406fa6:	2200      	movs	r2, #0
  406fa8:	920e      	str	r2, [sp, #56]	; 0x38
  406faa:	f10d 0bd0 	add.w	fp, sp, #208	; 0xd0
  406fae:	f7ff bbf6 	b.w	40679e <_vfprintf_r+0xe6>
  406fb2:	9802      	ldr	r0, [sp, #8]
  406fb4:	4631      	mov	r1, r6
  406fb6:	aa0d      	add	r2, sp, #52	; 0x34
  406fb8:	f7fe fe9c 	bl	405cf4 <__sprint_r>
  406fbc:	2800      	cmp	r0, #0
  406fbe:	d0f2      	beq.n	406fa6 <_vfprintf_r+0x8ee>
  406fc0:	e00b      	b.n	406fda <_vfprintf_r+0x922>
  406fc2:	bf00      	nop
  406fc4:	0040a818 	.word	0x0040a818
  406fc8:	0040a828 	.word	0x0040a828
  406fcc:	9b0f      	ldr	r3, [sp, #60]	; 0x3c
  406fce:	b123      	cbz	r3, 406fda <_vfprintf_r+0x922>
  406fd0:	9802      	ldr	r0, [sp, #8]
  406fd2:	4631      	mov	r1, r6
  406fd4:	aa0d      	add	r2, sp, #52	; 0x34
  406fd6:	f7fe fe8d 	bl	405cf4 <__sprint_r>
  406fda:	89b3      	ldrh	r3, [r6, #12]
  406fdc:	f003 0340 	and.w	r3, r3, #64	; 0x40
  406fe0:	b21b      	sxth	r3, r3
  406fe2:	2b00      	cmp	r3, #0
  406fe4:	f47f ab94 	bne.w	406710 <_vfprintf_r+0x58>
  406fe8:	9804      	ldr	r0, [sp, #16]
  406fea:	b035      	add	sp, #212	; 0xd4
  406fec:	f50d 6d80 	add.w	sp, sp, #1024	; 0x400
  406ff0:	e8bd 8ff0 	ldmia.w	sp!, {r4, r5, r6, r7, r8, r9, sl, fp, pc}

00406ff4 <vfprintf>:
  406ff4:	b530      	push	{r4, r5, lr}
  406ff6:	4613      	mov	r3, r2
  406ff8:	4a04      	ldr	r2, [pc, #16]	; (40700c <vfprintf+0x18>)
  406ffa:	4605      	mov	r5, r0
  406ffc:	460c      	mov	r4, r1
  406ffe:	6810      	ldr	r0, [r2, #0]
  407000:	4629      	mov	r1, r5
  407002:	4622      	mov	r2, r4
  407004:	e8bd 4030 	ldmia.w	sp!, {r4, r5, lr}
  407008:	f7ff bb56 	b.w	4066b8 <_vfprintf_r>
  40700c:	20000110 	.word	0x20000110

00407010 <__swbuf_r>:
  407010:	b570      	push	{r4, r5, r6, lr}
  407012:	460d      	mov	r5, r1
  407014:	4614      	mov	r4, r2
  407016:	4606      	mov	r6, r0
  407018:	b118      	cbz	r0, 407022 <__swbuf_r+0x12>
  40701a:	6b83      	ldr	r3, [r0, #56]	; 0x38
  40701c:	b90b      	cbnz	r3, 407022 <__swbuf_r+0x12>
  40701e:	f000 fa01 	bl	407424 <__sinit>
  407022:	69a3      	ldr	r3, [r4, #24]
  407024:	60a3      	str	r3, [r4, #8]
  407026:	89a3      	ldrh	r3, [r4, #12]
  407028:	f003 0308 	and.w	r3, r3, #8
  40702c:	b21b      	sxth	r3, r3
  40702e:	b10b      	cbz	r3, 407034 <__swbuf_r+0x24>
  407030:	6923      	ldr	r3, [r4, #16]
  407032:	b95b      	cbnz	r3, 40704c <__swbuf_r+0x3c>
  407034:	4630      	mov	r0, r6
  407036:	4621      	mov	r1, r4
  407038:	f000 f844 	bl	4070c4 <__swsetup_r>
  40703c:	b130      	cbz	r0, 40704c <__swbuf_r+0x3c>
  40703e:	89a3      	ldrh	r3, [r4, #12]
  407040:	f043 0340 	orr.w	r3, r3, #64	; 0x40
  407044:	81a3      	strh	r3, [r4, #12]
  407046:	2309      	movs	r3, #9
  407048:	6033      	str	r3, [r6, #0]
  40704a:	e017      	b.n	40707c <__swbuf_r+0x6c>
  40704c:	89a3      	ldrh	r3, [r4, #12]
  40704e:	b2ed      	uxtb	r5, r5
  407050:	f403 5200 	and.w	r2, r3, #8192	; 0x2000
  407054:	b212      	sxth	r2, r2
  407056:	b932      	cbnz	r2, 407066 <__swbuf_r+0x56>
  407058:	f443 5300 	orr.w	r3, r3, #8192	; 0x2000
  40705c:	81a3      	strh	r3, [r4, #12]
  40705e:	6e63      	ldr	r3, [r4, #100]	; 0x64
  407060:	f423 5300 	bic.w	r3, r3, #8192	; 0x2000
  407064:	6663      	str	r3, [r4, #100]	; 0x64
  407066:	6923      	ldr	r3, [r4, #16]
  407068:	6820      	ldr	r0, [r4, #0]
  40706a:	1ac0      	subs	r0, r0, r3
  40706c:	6963      	ldr	r3, [r4, #20]
  40706e:	4298      	cmp	r0, r3
  407070:	db07      	blt.n	407082 <__swbuf_r+0x72>
  407072:	4630      	mov	r0, r6
  407074:	4621      	mov	r1, r4
  407076:	f000 f8e1 	bl	40723c <_fflush_r>
  40707a:	b110      	cbz	r0, 407082 <__swbuf_r+0x72>
  40707c:	f04f 35ff 	mov.w	r5, #4294967295
  407080:	e015      	b.n	4070ae <__swbuf_r+0x9e>
  407082:	68a3      	ldr	r3, [r4, #8]
  407084:	3001      	adds	r0, #1
  407086:	3b01      	subs	r3, #1
  407088:	60a3      	str	r3, [r4, #8]
  40708a:	6823      	ldr	r3, [r4, #0]
  40708c:	f803 5b01 	strb.w	r5, [r3], #1
  407090:	6023      	str	r3, [r4, #0]
  407092:	6963      	ldr	r3, [r4, #20]
  407094:	4298      	cmp	r0, r3
  407096:	d004      	beq.n	4070a2 <__swbuf_r+0x92>
  407098:	89a3      	ldrh	r3, [r4, #12]
  40709a:	07db      	lsls	r3, r3, #31
  40709c:	d507      	bpl.n	4070ae <__swbuf_r+0x9e>
  40709e:	2d0a      	cmp	r5, #10
  4070a0:	d105      	bne.n	4070ae <__swbuf_r+0x9e>
  4070a2:	4630      	mov	r0, r6
  4070a4:	4621      	mov	r1, r4
  4070a6:	f000 f8c9 	bl	40723c <_fflush_r>
  4070aa:	2800      	cmp	r0, #0
  4070ac:	d1e6      	bne.n	40707c <__swbuf_r+0x6c>
  4070ae:	4628      	mov	r0, r5
  4070b0:	bd70      	pop	{r4, r5, r6, pc}

004070b2 <__swbuf>:
  4070b2:	460a      	mov	r2, r1
  4070b4:	4902      	ldr	r1, [pc, #8]	; (4070c0 <__swbuf+0xe>)
  4070b6:	4603      	mov	r3, r0
  4070b8:	6808      	ldr	r0, [r1, #0]
  4070ba:	4619      	mov	r1, r3
  4070bc:	f7ff bfa8 	b.w	407010 <__swbuf_r>
  4070c0:	20000110 	.word	0x20000110

004070c4 <__swsetup_r>:
  4070c4:	b538      	push	{r3, r4, r5, lr}
  4070c6:	4b2c      	ldr	r3, [pc, #176]	; (407178 <__swsetup_r+0xb4>)
  4070c8:	4605      	mov	r5, r0
  4070ca:	6818      	ldr	r0, [r3, #0]
  4070cc:	460c      	mov	r4, r1
  4070ce:	b118      	cbz	r0, 4070d8 <__swsetup_r+0x14>
  4070d0:	6b82      	ldr	r2, [r0, #56]	; 0x38
  4070d2:	b90a      	cbnz	r2, 4070d8 <__swsetup_r+0x14>
  4070d4:	f000 f9a6 	bl	407424 <__sinit>
  4070d8:	89a3      	ldrh	r3, [r4, #12]
  4070da:	f003 0208 	and.w	r2, r3, #8
  4070de:	b212      	sxth	r2, r2
  4070e0:	bb0a      	cbnz	r2, 407126 <__swsetup_r+0x62>
  4070e2:	f003 0210 	and.w	r2, r3, #16
  4070e6:	b212      	sxth	r2, r2
  4070e8:	b912      	cbnz	r2, 4070f0 <__swsetup_r+0x2c>
  4070ea:	f04f 30ff 	mov.w	r0, #4294967295
  4070ee:	bd38      	pop	{r3, r4, r5, pc}
  4070f0:	f003 0304 	and.w	r3, r3, #4
  4070f4:	b21b      	sxth	r3, r3
  4070f6:	b193      	cbz	r3, 40711e <__swsetup_r+0x5a>
  4070f8:	6b21      	ldr	r1, [r4, #48]	; 0x30
  4070fa:	b141      	cbz	r1, 40710e <__swsetup_r+0x4a>
  4070fc:	f104 0340 	add.w	r3, r4, #64	; 0x40
  407100:	4299      	cmp	r1, r3
  407102:	d002      	beq.n	40710a <__swsetup_r+0x46>
  407104:	4628      	mov	r0, r5
  407106:	f000 fac9 	bl	40769c <_free_r>
  40710a:	2300      	movs	r3, #0
  40710c:	6323      	str	r3, [r4, #48]	; 0x30
  40710e:	89a3      	ldrh	r3, [r4, #12]
  407110:	f023 0324 	bic.w	r3, r3, #36	; 0x24
  407114:	81a3      	strh	r3, [r4, #12]
  407116:	2300      	movs	r3, #0
  407118:	6063      	str	r3, [r4, #4]
  40711a:	6923      	ldr	r3, [r4, #16]
  40711c:	6023      	str	r3, [r4, #0]
  40711e:	89a3      	ldrh	r3, [r4, #12]
  407120:	f043 0308 	orr.w	r3, r3, #8
  407124:	81a3      	strh	r3, [r4, #12]
  407126:	6923      	ldr	r3, [r4, #16]
  407128:	b94b      	cbnz	r3, 40713e <__swsetup_r+0x7a>
  40712a:	89a3      	ldrh	r3, [r4, #12]
  40712c:	f403 7320 	and.w	r3, r3, #640	; 0x280
  407130:	f5b3 7f00 	cmp.w	r3, #512	; 0x200
  407134:	d003      	beq.n	40713e <__swsetup_r+0x7a>
  407136:	4628      	mov	r0, r5
  407138:	4621      	mov	r1, r4
  40713a:	f000 fd45 	bl	407bc8 <__smakebuf_r>
  40713e:	89a3      	ldrh	r3, [r4, #12]
  407140:	f013 0201 	ands.w	r2, r3, #1
  407144:	d005      	beq.n	407152 <__swsetup_r+0x8e>
  407146:	2300      	movs	r3, #0
  407148:	60a3      	str	r3, [r4, #8]
  40714a:	6963      	ldr	r3, [r4, #20]
  40714c:	425b      	negs	r3, r3
  40714e:	61a3      	str	r3, [r4, #24]
  407150:	e007      	b.n	407162 <__swsetup_r+0x9e>
  407152:	f003 0302 	and.w	r3, r3, #2
  407156:	b21b      	sxth	r3, r3
  407158:	b90b      	cbnz	r3, 40715e <__swsetup_r+0x9a>
  40715a:	6963      	ldr	r3, [r4, #20]
  40715c:	e000      	b.n	407160 <__swsetup_r+0x9c>
  40715e:	4613      	mov	r3, r2
  407160:	60a3      	str	r3, [r4, #8]
  407162:	6923      	ldr	r3, [r4, #16]
  407164:	b933      	cbnz	r3, 407174 <__swsetup_r+0xb0>
  407166:	89a0      	ldrh	r0, [r4, #12]
  407168:	f000 0080 	and.w	r0, r0, #128	; 0x80
  40716c:	b200      	sxth	r0, r0
  40716e:	2800      	cmp	r0, #0
  407170:	d1bb      	bne.n	4070ea <__swsetup_r+0x26>
  407172:	bd38      	pop	{r3, r4, r5, pc}
  407174:	2000      	movs	r0, #0
  407176:	bd38      	pop	{r3, r4, r5, pc}
  407178:	20000110 	.word	0x20000110

0040717c <__register_exitproc>:
  40717c:	e92d 43f8 	stmdb	sp!, {r3, r4, r5, r6, r7, r8, r9, lr}
  407180:	4698      	mov	r8, r3
  407182:	4b23      	ldr	r3, [pc, #140]	; (407210 <__register_exitproc+0x94>)
  407184:	4606      	mov	r6, r0
  407186:	681c      	ldr	r4, [r3, #0]
  407188:	460f      	mov	r7, r1
  40718a:	f8d4 0148 	ldr.w	r0, [r4, #328]	; 0x148
  40718e:	4691      	mov	r9, r2
  407190:	b918      	cbnz	r0, 40719a <__register_exitproc+0x1e>
  407192:	f504 70a6 	add.w	r0, r4, #332	; 0x14c
  407196:	f8c4 0148 	str.w	r0, [r4, #328]	; 0x148
  40719a:	6841      	ldr	r1, [r0, #4]
  40719c:	291f      	cmp	r1, #31
  40719e:	dd16      	ble.n	4071ce <__register_exitproc+0x52>
  4071a0:	4b1c      	ldr	r3, [pc, #112]	; (407214 <__register_exitproc+0x98>)
  4071a2:	b91b      	cbnz	r3, 4071ac <__register_exitproc+0x30>
  4071a4:	f04f 30ff 	mov.w	r0, #4294967295
  4071a8:	e8bd 83f8 	ldmia.w	sp!, {r3, r4, r5, r6, r7, r8, r9, pc}
  4071ac:	f44f 70c8 	mov.w	r0, #400	; 0x190
  4071b0:	f000 fd76 	bl	407ca0 <malloc>
  4071b4:	2800      	cmp	r0, #0
  4071b6:	d0f5      	beq.n	4071a4 <__register_exitproc+0x28>
  4071b8:	f8d4 1148 	ldr.w	r1, [r4, #328]	; 0x148
  4071bc:	2500      	movs	r5, #0
  4071be:	6045      	str	r5, [r0, #4]
  4071c0:	6001      	str	r1, [r0, #0]
  4071c2:	f8c4 0148 	str.w	r0, [r4, #328]	; 0x148
  4071c6:	f8c0 5188 	str.w	r5, [r0, #392]	; 0x188
  4071ca:	f8c0 518c 	str.w	r5, [r0, #396]	; 0x18c
  4071ce:	b1b6      	cbz	r6, 4071fe <__register_exitproc+0x82>
  4071d0:	6844      	ldr	r4, [r0, #4]
  4071d2:	2201      	movs	r2, #1
  4071d4:	fa02 f204 	lsl.w	r2, r2, r4
  4071d8:	f8d0 1188 	ldr.w	r1, [r0, #392]	; 0x188
  4071dc:	eb00 0384 	add.w	r3, r0, r4, lsl #2
  4071e0:	4311      	orrs	r1, r2
  4071e2:	2e02      	cmp	r6, #2
  4071e4:	f8c3 9088 	str.w	r9, [r3, #136]	; 0x88
  4071e8:	f8c0 1188 	str.w	r1, [r0, #392]	; 0x188
  4071ec:	461c      	mov	r4, r3
  4071ee:	f8c3 8108 	str.w	r8, [r3, #264]	; 0x108
  4071f2:	d104      	bne.n	4071fe <__register_exitproc+0x82>
  4071f4:	f8d0 318c 	ldr.w	r3, [r0, #396]	; 0x18c
  4071f8:	431a      	orrs	r2, r3
  4071fa:	f8c0 218c 	str.w	r2, [r0, #396]	; 0x18c
  4071fe:	6843      	ldr	r3, [r0, #4]
  407200:	1c9a      	adds	r2, r3, #2
  407202:	3301      	adds	r3, #1
  407204:	f840 7022 	str.w	r7, [r0, r2, lsl #2]
  407208:	6043      	str	r3, [r0, #4]
  40720a:	2000      	movs	r0, #0
  40720c:	e8bd 83f8 	ldmia.w	sp!, {r3, r4, r5, r6, r7, r8, r9, pc}
  407210:	0040a7d0 	.word	0x0040a7d0
  407214:	00407ca1 	.word	0x00407ca1

00407218 <register_fini>:
  407218:	4b02      	ldr	r3, [pc, #8]	; (407224 <register_fini+0xc>)
  40721a:	b113      	cbz	r3, 407222 <register_fini+0xa>
  40721c:	4802      	ldr	r0, [pc, #8]	; (407228 <register_fini+0x10>)
  40721e:	f7fe bc35 	b.w	405a8c <atexit>
  407222:	4770      	bx	lr
  407224:	00000000 	.word	0x00000000
  407228:	00405a99 	.word	0x00405a99

0040722c <abort>:
  40722c:	b508      	push	{r3, lr}
  40722e:	2006      	movs	r0, #6
  407230:	f001 f96d 	bl	40850e <raise>
  407234:	2001      	movs	r0, #1
  407236:	f7fc fea1 	bl	403f7c <_exit>
	...

0040723c <_fflush_r>:
  40723c:	e92d 41f0 	stmdb	sp!, {r4, r5, r6, r7, r8, lr}
  407240:	460c      	mov	r4, r1
  407242:	4605      	mov	r5, r0
  407244:	b118      	cbz	r0, 40724e <_fflush_r+0x12>
  407246:	6b83      	ldr	r3, [r0, #56]	; 0x38
  407248:	b90b      	cbnz	r3, 40724e <_fflush_r+0x12>
  40724a:	f000 f8eb 	bl	407424 <__sinit>
  40724e:	89a2      	ldrh	r2, [r4, #12]
  407250:	b902      	cbnz	r2, 407254 <_fflush_r+0x18>
  407252:	e026      	b.n	4072a2 <_fflush_r+0x66>
  407254:	f002 0308 	and.w	r3, r2, #8
  407258:	b21b      	sxth	r3, r3
  40725a:	2b00      	cmp	r3, #0
  40725c:	d162      	bne.n	407324 <_fflush_r+0xe8>
  40725e:	f442 6300 	orr.w	r3, r2, #2048	; 0x800
  407262:	81a3      	strh	r3, [r4, #12]
  407264:	6863      	ldr	r3, [r4, #4]
  407266:	2b00      	cmp	r3, #0
  407268:	dc02      	bgt.n	407270 <_fflush_r+0x34>
  40726a:	6be3      	ldr	r3, [r4, #60]	; 0x3c
  40726c:	2b00      	cmp	r3, #0
  40726e:	dd18      	ble.n	4072a2 <_fflush_r+0x66>
  407270:	6aa6      	ldr	r6, [r4, #40]	; 0x28
  407272:	b1b6      	cbz	r6, 4072a2 <_fflush_r+0x66>
  407274:	f402 5280 	and.w	r2, r2, #4096	; 0x1000
  407278:	2300      	movs	r3, #0
  40727a:	b212      	sxth	r2, r2
  40727c:	682f      	ldr	r7, [r5, #0]
  40727e:	602b      	str	r3, [r5, #0]
  407280:	b10a      	cbz	r2, 407286 <_fflush_r+0x4a>
  407282:	6d22      	ldr	r2, [r4, #80]	; 0x50
  407284:	e010      	b.n	4072a8 <_fflush_r+0x6c>
  407286:	2301      	movs	r3, #1
  407288:	4628      	mov	r0, r5
  40728a:	69e1      	ldr	r1, [r4, #28]
  40728c:	47b0      	blx	r6
  40728e:	4602      	mov	r2, r0
  407290:	3001      	adds	r0, #1
  407292:	d109      	bne.n	4072a8 <_fflush_r+0x6c>
  407294:	682b      	ldr	r3, [r5, #0]
  407296:	b13b      	cbz	r3, 4072a8 <_fflush_r+0x6c>
  407298:	2b1d      	cmp	r3, #29
  40729a:	d001      	beq.n	4072a0 <_fflush_r+0x64>
  40729c:	2b16      	cmp	r3, #22
  40729e:	d156      	bne.n	40734e <_fflush_r+0x112>
  4072a0:	602f      	str	r7, [r5, #0]
  4072a2:	2000      	movs	r0, #0
  4072a4:	e8bd 81f0 	ldmia.w	sp!, {r4, r5, r6, r7, r8, pc}
  4072a8:	89a3      	ldrh	r3, [r4, #12]
  4072aa:	f003 0304 	and.w	r3, r3, #4
  4072ae:	b21b      	sxth	r3, r3
  4072b0:	b12b      	cbz	r3, 4072be <_fflush_r+0x82>
  4072b2:	6863      	ldr	r3, [r4, #4]
  4072b4:	1ad2      	subs	r2, r2, r3
  4072b6:	6b23      	ldr	r3, [r4, #48]	; 0x30
  4072b8:	b10b      	cbz	r3, 4072be <_fflush_r+0x82>
  4072ba:	6be3      	ldr	r3, [r4, #60]	; 0x3c
  4072bc:	1ad2      	subs	r2, r2, r3
  4072be:	69e1      	ldr	r1, [r4, #28]
  4072c0:	2300      	movs	r3, #0
  4072c2:	6aa6      	ldr	r6, [r4, #40]	; 0x28
  4072c4:	4628      	mov	r0, r5
  4072c6:	47b0      	blx	r6
  4072c8:	1c41      	adds	r1, r0, #1
  4072ca:	d105      	bne.n	4072d8 <_fflush_r+0x9c>
  4072cc:	682b      	ldr	r3, [r5, #0]
  4072ce:	b11b      	cbz	r3, 4072d8 <_fflush_r+0x9c>
  4072d0:	2b1d      	cmp	r3, #29
  4072d2:	d001      	beq.n	4072d8 <_fflush_r+0x9c>
  4072d4:	2b16      	cmp	r3, #22
  4072d6:	d11f      	bne.n	407318 <_fflush_r+0xdc>
  4072d8:	89a3      	ldrh	r3, [r4, #12]
  4072da:	f423 6200 	bic.w	r2, r3, #2048	; 0x800
  4072de:	81a2      	strh	r2, [r4, #12]
  4072e0:	2200      	movs	r2, #0
  4072e2:	6062      	str	r2, [r4, #4]
  4072e4:	f403 5380 	and.w	r3, r3, #4096	; 0x1000
  4072e8:	6922      	ldr	r2, [r4, #16]
  4072ea:	b21b      	sxth	r3, r3
  4072ec:	6022      	str	r2, [r4, #0]
  4072ee:	b123      	cbz	r3, 4072fa <_fflush_r+0xbe>
  4072f0:	1c42      	adds	r2, r0, #1
  4072f2:	d101      	bne.n	4072f8 <_fflush_r+0xbc>
  4072f4:	682b      	ldr	r3, [r5, #0]
  4072f6:	b903      	cbnz	r3, 4072fa <_fflush_r+0xbe>
  4072f8:	6520      	str	r0, [r4, #80]	; 0x50
  4072fa:	6b21      	ldr	r1, [r4, #48]	; 0x30
  4072fc:	602f      	str	r7, [r5, #0]
  4072fe:	2900      	cmp	r1, #0
  407300:	d0cf      	beq.n	4072a2 <_fflush_r+0x66>
  407302:	f104 0340 	add.w	r3, r4, #64	; 0x40
  407306:	4299      	cmp	r1, r3
  407308:	d002      	beq.n	407310 <_fflush_r+0xd4>
  40730a:	4628      	mov	r0, r5
  40730c:	f000 f9c6 	bl	40769c <_free_r>
  407310:	2000      	movs	r0, #0
  407312:	6320      	str	r0, [r4, #48]	; 0x30
  407314:	e8bd 81f0 	ldmia.w	sp!, {r4, r5, r6, r7, r8, pc}
  407318:	89a3      	ldrh	r3, [r4, #12]
  40731a:	f043 0340 	orr.w	r3, r3, #64	; 0x40
  40731e:	81a3      	strh	r3, [r4, #12]
  407320:	e8bd 81f0 	ldmia.w	sp!, {r4, r5, r6, r7, r8, pc}
  407324:	6926      	ldr	r6, [r4, #16]
  407326:	2e00      	cmp	r6, #0
  407328:	d0bb      	beq.n	4072a2 <_fflush_r+0x66>
  40732a:	6823      	ldr	r3, [r4, #0]
  40732c:	6026      	str	r6, [r4, #0]
  40732e:	ebc6 0803 	rsb	r8, r6, r3
  407332:	0793      	lsls	r3, r2, #30
  407334:	bf0c      	ite	eq
  407336:	6963      	ldreq	r3, [r4, #20]
  407338:	2300      	movne	r3, #0
  40733a:	60a3      	str	r3, [r4, #8]
  40733c:	e012      	b.n	407364 <_fflush_r+0x128>
  40733e:	6a67      	ldr	r7, [r4, #36]	; 0x24
  407340:	4628      	mov	r0, r5
  407342:	69e1      	ldr	r1, [r4, #28]
  407344:	4632      	mov	r2, r6
  407346:	4643      	mov	r3, r8
  407348:	47b8      	blx	r7
  40734a:	2800      	cmp	r0, #0
  40734c:	dc07      	bgt.n	40735e <_fflush_r+0x122>
  40734e:	89a3      	ldrh	r3, [r4, #12]
  407350:	f04f 30ff 	mov.w	r0, #4294967295
  407354:	f043 0340 	orr.w	r3, r3, #64	; 0x40
  407358:	81a3      	strh	r3, [r4, #12]
  40735a:	e8bd 81f0 	ldmia.w	sp!, {r4, r5, r6, r7, r8, pc}
  40735e:	1836      	adds	r6, r6, r0
  407360:	ebc0 0808 	rsb	r8, r0, r8
  407364:	f1b8 0f00 	cmp.w	r8, #0
  407368:	dce9      	bgt.n	40733e <_fflush_r+0x102>
  40736a:	e79a      	b.n	4072a2 <_fflush_r+0x66>

0040736c <fflush>:
  40736c:	4601      	mov	r1, r0
  40736e:	b920      	cbnz	r0, 40737a <fflush+0xe>
  407370:	4b04      	ldr	r3, [pc, #16]	; (407384 <fflush+0x18>)
  407372:	4905      	ldr	r1, [pc, #20]	; (407388 <fflush+0x1c>)
  407374:	6818      	ldr	r0, [r3, #0]
  407376:	f000 bbbf 	b.w	407af8 <_fwalk_reent>
  40737a:	4b04      	ldr	r3, [pc, #16]	; (40738c <fflush+0x20>)
  40737c:	6818      	ldr	r0, [r3, #0]
  40737e:	f7ff bf5d 	b.w	40723c <_fflush_r>
  407382:	bf00      	nop
  407384:	0040a7d0 	.word	0x0040a7d0
  407388:	0040723d 	.word	0x0040723d
  40738c:	20000110 	.word	0x20000110

00407390 <__fp_lock>:
  407390:	2000      	movs	r0, #0
  407392:	4770      	bx	lr

00407394 <__fp_unlock>:
  407394:	2000      	movs	r0, #0
  407396:	4770      	bx	lr

00407398 <_cleanup_r>:
  407398:	4901      	ldr	r1, [pc, #4]	; (4073a0 <_cleanup_r+0x8>)
  40739a:	f000 bb8b 	b.w	407ab4 <_fwalk>
  40739e:	bf00      	nop
  4073a0:	0040878f 	.word	0x0040878f

004073a4 <std.isra.0>:
  4073a4:	2300      	movs	r3, #0
  4073a6:	b510      	push	{r4, lr}
  4073a8:	4604      	mov	r4, r0
  4073aa:	6003      	str	r3, [r0, #0]
  4073ac:	6043      	str	r3, [r0, #4]
  4073ae:	6083      	str	r3, [r0, #8]
  4073b0:	8181      	strh	r1, [r0, #12]
  4073b2:	6643      	str	r3, [r0, #100]	; 0x64
  4073b4:	81c2      	strh	r2, [r0, #14]
  4073b6:	6103      	str	r3, [r0, #16]
  4073b8:	6143      	str	r3, [r0, #20]
  4073ba:	6183      	str	r3, [r0, #24]
  4073bc:	4619      	mov	r1, r3
  4073be:	f100 005c 	add.w	r0, r0, #92	; 0x5c
  4073c2:	2208      	movs	r2, #8
  4073c4:	f7fe fbaf 	bl	405b26 <memset>
  4073c8:	4b04      	ldr	r3, [pc, #16]	; (4073dc <std.isra.0+0x38>)
  4073ca:	61e4      	str	r4, [r4, #28]
  4073cc:	6223      	str	r3, [r4, #32]
  4073ce:	4b04      	ldr	r3, [pc, #16]	; (4073e0 <std.isra.0+0x3c>)
  4073d0:	6263      	str	r3, [r4, #36]	; 0x24
  4073d2:	4b04      	ldr	r3, [pc, #16]	; (4073e4 <std.isra.0+0x40>)
  4073d4:	62a3      	str	r3, [r4, #40]	; 0x28
  4073d6:	4b04      	ldr	r3, [pc, #16]	; (4073e8 <std.isra.0+0x44>)
  4073d8:	62e3      	str	r3, [r4, #44]	; 0x2c
  4073da:	bd10      	pop	{r4, pc}
  4073dc:	00408575 	.word	0x00408575
  4073e0:	0040859b 	.word	0x0040859b
  4073e4:	004085d7 	.word	0x004085d7
  4073e8:	004085fb 	.word	0x004085fb

004073ec <__sfmoreglue>:
  4073ec:	b570      	push	{r4, r5, r6, lr}
  4073ee:	2568      	movs	r5, #104	; 0x68
  4073f0:	434d      	muls	r5, r1
  4073f2:	460e      	mov	r6, r1
  4073f4:	f105 010c 	add.w	r1, r5, #12
  4073f8:	f000 fc62 	bl	407cc0 <_malloc_r>
  4073fc:	4604      	mov	r4, r0
  4073fe:	b140      	cbz	r0, 407412 <__sfmoreglue+0x26>
  407400:	f100 000c 	add.w	r0, r0, #12
  407404:	2100      	movs	r1, #0
  407406:	e884 0042 	stmia.w	r4, {r1, r6}
  40740a:	60a0      	str	r0, [r4, #8]
  40740c:	462a      	mov	r2, r5
  40740e:	f7fe fb8a 	bl	405b26 <memset>
  407412:	4620      	mov	r0, r4
  407414:	bd70      	pop	{r4, r5, r6, pc}

00407416 <_cleanup>:
  407416:	4b02      	ldr	r3, [pc, #8]	; (407420 <_cleanup+0xa>)
  407418:	6818      	ldr	r0, [r3, #0]
  40741a:	f7ff bfbd 	b.w	407398 <_cleanup_r>
  40741e:	bf00      	nop
  407420:	0040a7d0 	.word	0x0040a7d0

00407424 <__sinit>:
  407424:	b538      	push	{r3, r4, r5, lr}
  407426:	6b83      	ldr	r3, [r0, #56]	; 0x38
  407428:	4604      	mov	r4, r0
  40742a:	b9eb      	cbnz	r3, 407468 <__sinit+0x44>
  40742c:	4a0f      	ldr	r2, [pc, #60]	; (40746c <__sinit+0x48>)
  40742e:	2501      	movs	r5, #1
  407430:	63c2      	str	r2, [r0, #60]	; 0x3c
  407432:	2203      	movs	r2, #3
  407434:	f8c0 22e4 	str.w	r2, [r0, #740]	; 0x2e4
  407438:	f500 723b 	add.w	r2, r0, #748	; 0x2ec
  40743c:	f8c0 32e0 	str.w	r3, [r0, #736]	; 0x2e0
  407440:	6385      	str	r5, [r0, #56]	; 0x38
  407442:	f8c0 22e8 	str.w	r2, [r0, #744]	; 0x2e8
  407446:	2104      	movs	r1, #4
  407448:	461a      	mov	r2, r3
  40744a:	6840      	ldr	r0, [r0, #4]
  40744c:	f7ff ffaa 	bl	4073a4 <std.isra.0>
  407450:	68a0      	ldr	r0, [r4, #8]
  407452:	2109      	movs	r1, #9
  407454:	462a      	mov	r2, r5
  407456:	f7ff ffa5 	bl	4073a4 <std.isra.0>
  40745a:	68e0      	ldr	r0, [r4, #12]
  40745c:	2112      	movs	r1, #18
  40745e:	2202      	movs	r2, #2
  407460:	e8bd 4038 	ldmia.w	sp!, {r3, r4, r5, lr}
  407464:	f7ff bf9e 	b.w	4073a4 <std.isra.0>
  407468:	bd38      	pop	{r3, r4, r5, pc}
  40746a:	bf00      	nop
  40746c:	00407399 	.word	0x00407399

00407470 <__sfp>:
  407470:	b5f8      	push	{r3, r4, r5, r6, r7, lr}
  407472:	4b1d      	ldr	r3, [pc, #116]	; (4074e8 <__sfp+0x78>)
  407474:	4607      	mov	r7, r0
  407476:	681e      	ldr	r6, [r3, #0]
  407478:	6bb3      	ldr	r3, [r6, #56]	; 0x38
  40747a:	b913      	cbnz	r3, 407482 <__sfp+0x12>
  40747c:	4630      	mov	r0, r6
  40747e:	f7ff ffd1 	bl	407424 <__sinit>
  407482:	f506 7638 	add.w	r6, r6, #736	; 0x2e0
  407486:	68b4      	ldr	r4, [r6, #8]
  407488:	6873      	ldr	r3, [r6, #4]
  40748a:	e003      	b.n	407494 <__sfp+0x24>
  40748c:	f9b4 500c 	ldrsh.w	r5, [r4, #12]
  407490:	b18d      	cbz	r5, 4074b6 <__sfp+0x46>
  407492:	3468      	adds	r4, #104	; 0x68
  407494:	3b01      	subs	r3, #1
  407496:	d5f9      	bpl.n	40748c <__sfp+0x1c>
  407498:	6833      	ldr	r3, [r6, #0]
  40749a:	b10b      	cbz	r3, 4074a0 <__sfp+0x30>
  40749c:	6836      	ldr	r6, [r6, #0]
  40749e:	e7f2      	b.n	407486 <__sfp+0x16>
  4074a0:	4638      	mov	r0, r7
  4074a2:	2104      	movs	r1, #4
  4074a4:	f7ff ffa2 	bl	4073ec <__sfmoreglue>
  4074a8:	6030      	str	r0, [r6, #0]
  4074aa:	2800      	cmp	r0, #0
  4074ac:	d1f6      	bne.n	40749c <__sfp+0x2c>
  4074ae:	230c      	movs	r3, #12
  4074b0:	603b      	str	r3, [r7, #0]
  4074b2:	4604      	mov	r4, r0
  4074b4:	e015      	b.n	4074e2 <__sfp+0x72>
  4074b6:	f64f 73ff 	movw	r3, #65535	; 0xffff
  4074ba:	81e3      	strh	r3, [r4, #14]
  4074bc:	2301      	movs	r3, #1
  4074be:	81a3      	strh	r3, [r4, #12]
  4074c0:	6665      	str	r5, [r4, #100]	; 0x64
  4074c2:	6025      	str	r5, [r4, #0]
  4074c4:	60a5      	str	r5, [r4, #8]
  4074c6:	6065      	str	r5, [r4, #4]
  4074c8:	6125      	str	r5, [r4, #16]
  4074ca:	6165      	str	r5, [r4, #20]
  4074cc:	61a5      	str	r5, [r4, #24]
  4074ce:	f104 005c 	add.w	r0, r4, #92	; 0x5c
  4074d2:	4629      	mov	r1, r5
  4074d4:	2208      	movs	r2, #8
  4074d6:	f7fe fb26 	bl	405b26 <memset>
  4074da:	6325      	str	r5, [r4, #48]	; 0x30
  4074dc:	6365      	str	r5, [r4, #52]	; 0x34
  4074de:	6465      	str	r5, [r4, #68]	; 0x44
  4074e0:	64a5      	str	r5, [r4, #72]	; 0x48
  4074e2:	4620      	mov	r0, r4
  4074e4:	bdf8      	pop	{r3, r4, r5, r6, r7, pc}
  4074e6:	bf00      	nop
  4074e8:	0040a7d0 	.word	0x0040a7d0

004074ec <__sfp_lock_acquire>:
  4074ec:	4770      	bx	lr

004074ee <__sfp_lock_release>:
  4074ee:	4770      	bx	lr

004074f0 <__sinit_lock_acquire>:
  4074f0:	4770      	bx	lr

004074f2 <__sinit_lock_release>:
  4074f2:	4770      	bx	lr

004074f4 <__fp_lock_all>:
  4074f4:	4b02      	ldr	r3, [pc, #8]	; (407500 <__fp_lock_all+0xc>)
  4074f6:	4903      	ldr	r1, [pc, #12]	; (407504 <__fp_lock_all+0x10>)
  4074f8:	6818      	ldr	r0, [r3, #0]
  4074fa:	f000 badb 	b.w	407ab4 <_fwalk>
  4074fe:	bf00      	nop
  407500:	20000110 	.word	0x20000110
  407504:	00407391 	.word	0x00407391

00407508 <__fp_unlock_all>:
  407508:	4b02      	ldr	r3, [pc, #8]	; (407514 <__fp_unlock_all+0xc>)
  40750a:	4903      	ldr	r1, [pc, #12]	; (407518 <__fp_unlock_all+0x10>)
  40750c:	6818      	ldr	r0, [r3, #0]
  40750e:	f000 bad1 	b.w	407ab4 <_fwalk>
  407512:	bf00      	nop
  407514:	20000110 	.word	0x20000110
  407518:	00407395 	.word	0x00407395

0040751c <_fputwc_r>:
  40751c:	8993      	ldrh	r3, [r2, #12]
  40751e:	e92d 41f3 	stmdb	sp!, {r0, r1, r4, r5, r6, r7, r8, lr}
  407522:	4614      	mov	r4, r2
  407524:	f403 5200 	and.w	r2, r3, #8192	; 0x2000
  407528:	b212      	sxth	r2, r2
  40752a:	4680      	mov	r8, r0
  40752c:	460e      	mov	r6, r1
  40752e:	b932      	cbnz	r2, 40753e <_fputwc_r+0x22>
  407530:	f443 5300 	orr.w	r3, r3, #8192	; 0x2000
  407534:	81a3      	strh	r3, [r4, #12]
  407536:	6e63      	ldr	r3, [r4, #100]	; 0x64
  407538:	f443 5300 	orr.w	r3, r3, #8192	; 0x2000
  40753c:	6663      	str	r3, [r4, #100]	; 0x64
  40753e:	f000 fb25 	bl	407b8c <__locale_mb_cur_max>
  407542:	2801      	cmp	r0, #1
  407544:	d106      	bne.n	407554 <_fputwc_r+0x38>
  407546:	b12e      	cbz	r6, 407554 <_fputwc_r+0x38>
  407548:	2eff      	cmp	r6, #255	; 0xff
  40754a:	d803      	bhi.n	407554 <_fputwc_r+0x38>
  40754c:	f88d 6004 	strb.w	r6, [sp, #4]
  407550:	4607      	mov	r7, r0
  407552:	e00e      	b.n	407572 <_fputwc_r+0x56>
  407554:	4632      	mov	r2, r6
  407556:	4640      	mov	r0, r8
  407558:	a901      	add	r1, sp, #4
  40755a:	f104 035c 	add.w	r3, r4, #92	; 0x5c
  40755e:	f001 f85b 	bl	408618 <_wcrtomb_r>
  407562:	1c42      	adds	r2, r0, #1
  407564:	4607      	mov	r7, r0
  407566:	d104      	bne.n	407572 <_fputwc_r+0x56>
  407568:	89a3      	ldrh	r3, [r4, #12]
  40756a:	f043 0340 	orr.w	r3, r3, #64	; 0x40
  40756e:	81a3      	strh	r3, [r4, #12]
  407570:	e030      	b.n	4075d4 <_fputwc_r+0xb8>
  407572:	2500      	movs	r5, #0
  407574:	e028      	b.n	4075c8 <_fputwc_r+0xac>
  407576:	68a2      	ldr	r2, [r4, #8]
  407578:	ab01      	add	r3, sp, #4
  40757a:	3a01      	subs	r2, #1
  40757c:	2a00      	cmp	r2, #0
  40757e:	60a2      	str	r2, [r4, #8]
  407580:	da19      	bge.n	4075b6 <_fputwc_r+0x9a>
  407582:	69a1      	ldr	r1, [r4, #24]
  407584:	428a      	cmp	r2, r1
  407586:	db0c      	blt.n	4075a2 <_fputwc_r+0x86>
  407588:	5d5b      	ldrb	r3, [r3, r5]
  40758a:	6822      	ldr	r2, [r4, #0]
  40758c:	7013      	strb	r3, [r2, #0]
  40758e:	6823      	ldr	r3, [r4, #0]
  407590:	7819      	ldrb	r1, [r3, #0]
  407592:	290a      	cmp	r1, #10
  407594:	d003      	beq.n	40759e <_fputwc_r+0x82>
  407596:	3301      	adds	r3, #1
  407598:	2000      	movs	r0, #0
  40759a:	6023      	str	r3, [r4, #0]
  40759c:	e012      	b.n	4075c4 <_fputwc_r+0xa8>
  40759e:	4640      	mov	r0, r8
  4075a0:	e001      	b.n	4075a6 <_fputwc_r+0x8a>
  4075a2:	5d59      	ldrb	r1, [r3, r5]
  4075a4:	4640      	mov	r0, r8
  4075a6:	4622      	mov	r2, r4
  4075a8:	f7ff fd32 	bl	407010 <__swbuf_r>
  4075ac:	f1b0 33ff 	subs.w	r3, r0, #4294967295
  4075b0:	4258      	negs	r0, r3
  4075b2:	4158      	adcs	r0, r3
  4075b4:	e006      	b.n	4075c4 <_fputwc_r+0xa8>
  4075b6:	6822      	ldr	r2, [r4, #0]
  4075b8:	5d5b      	ldrb	r3, [r3, r5]
  4075ba:	7013      	strb	r3, [r2, #0]
  4075bc:	6823      	ldr	r3, [r4, #0]
  4075be:	3301      	adds	r3, #1
  4075c0:	6023      	str	r3, [r4, #0]
  4075c2:	e000      	b.n	4075c6 <_fputwc_r+0xaa>
  4075c4:	b920      	cbnz	r0, 4075d0 <_fputwc_r+0xb4>
  4075c6:	3501      	adds	r5, #1
  4075c8:	42bd      	cmp	r5, r7
  4075ca:	d1d4      	bne.n	407576 <_fputwc_r+0x5a>
  4075cc:	4630      	mov	r0, r6
  4075ce:	e001      	b.n	4075d4 <_fputwc_r+0xb8>
  4075d0:	f04f 30ff 	mov.w	r0, #4294967295
  4075d4:	e8bd 81fc 	ldmia.w	sp!, {r2, r3, r4, r5, r6, r7, r8, pc}

004075d8 <fputwc>:
  4075d8:	b5f8      	push	{r3, r4, r5, r6, r7, lr}
  4075da:	4c08      	ldr	r4, [pc, #32]	; (4075fc <fputwc+0x24>)
  4075dc:	4607      	mov	r7, r0
  4075de:	6820      	ldr	r0, [r4, #0]
  4075e0:	460e      	mov	r6, r1
  4075e2:	b118      	cbz	r0, 4075ec <fputwc+0x14>
  4075e4:	6b85      	ldr	r5, [r0, #56]	; 0x38
  4075e6:	b90d      	cbnz	r5, 4075ec <fputwc+0x14>
  4075e8:	f7ff ff1c 	bl	407424 <__sinit>
  4075ec:	6820      	ldr	r0, [r4, #0]
  4075ee:	4639      	mov	r1, r7
  4075f0:	4632      	mov	r2, r6
  4075f2:	e8bd 40f8 	ldmia.w	sp!, {r3, r4, r5, r6, r7, lr}
  4075f6:	f7ff bf91 	b.w	40751c <_fputwc_r>
  4075fa:	bf00      	nop
  4075fc:	20000110 	.word	0x20000110

00407600 <_malloc_trim_r>:
  407600:	b5f8      	push	{r3, r4, r5, r6, r7, lr}
  407602:	4d23      	ldr	r5, [pc, #140]	; (407690 <_malloc_trim_r+0x90>)
  407604:	460e      	mov	r6, r1
  407606:	4604      	mov	r4, r0
  407608:	f000 fd7d 	bl	408106 <__malloc_lock>
  40760c:	68ab      	ldr	r3, [r5, #8]
  40760e:	685f      	ldr	r7, [r3, #4]
  407610:	f027 0703 	bic.w	r7, r7, #3
  407614:	f607 73ef 	addw	r3, r7, #4079	; 0xfef
  407618:	1b9e      	subs	r6, r3, r6
  40761a:	f426 667f 	bic.w	r6, r6, #4080	; 0xff0
  40761e:	f026 060f 	bic.w	r6, r6, #15
  407622:	f5a6 5680 	sub.w	r6, r6, #4096	; 0x1000
  407626:	f5b6 5f80 	cmp.w	r6, #4096	; 0x1000
  40762a:	da04      	bge.n	407636 <_malloc_trim_r+0x36>
  40762c:	4620      	mov	r0, r4
  40762e:	f000 fd6b 	bl	408108 <__malloc_unlock>
  407632:	2000      	movs	r0, #0
  407634:	bdf8      	pop	{r3, r4, r5, r6, r7, pc}
  407636:	2100      	movs	r1, #0
  407638:	4620      	mov	r0, r4
  40763a:	f000 fed5 	bl	4083e8 <_sbrk_r>
  40763e:	68ab      	ldr	r3, [r5, #8]
  407640:	19db      	adds	r3, r3, r7
  407642:	4298      	cmp	r0, r3
  407644:	d1f2      	bne.n	40762c <_malloc_trim_r+0x2c>
  407646:	4271      	negs	r1, r6
  407648:	4620      	mov	r0, r4
  40764a:	f000 fecd 	bl	4083e8 <_sbrk_r>
  40764e:	3001      	adds	r0, #1
  407650:	d110      	bne.n	407674 <_malloc_trim_r+0x74>
  407652:	2100      	movs	r1, #0
  407654:	4620      	mov	r0, r4
  407656:	f000 fec7 	bl	4083e8 <_sbrk_r>
  40765a:	68ab      	ldr	r3, [r5, #8]
  40765c:	1ac2      	subs	r2, r0, r3
  40765e:	2a0f      	cmp	r2, #15
  407660:	dde4      	ble.n	40762c <_malloc_trim_r+0x2c>
  407662:	490c      	ldr	r1, [pc, #48]	; (407694 <_malloc_trim_r+0x94>)
  407664:	f042 0201 	orr.w	r2, r2, #1
  407668:	6809      	ldr	r1, [r1, #0]
  40766a:	605a      	str	r2, [r3, #4]
  40766c:	1a40      	subs	r0, r0, r1
  40766e:	490a      	ldr	r1, [pc, #40]	; (407698 <_malloc_trim_r+0x98>)
  407670:	6008      	str	r0, [r1, #0]
  407672:	e7db      	b.n	40762c <_malloc_trim_r+0x2c>
  407674:	68ab      	ldr	r3, [r5, #8]
  407676:	1bbf      	subs	r7, r7, r6
  407678:	f047 0701 	orr.w	r7, r7, #1
  40767c:	605f      	str	r7, [r3, #4]
  40767e:	4b06      	ldr	r3, [pc, #24]	; (407698 <_malloc_trim_r+0x98>)
  407680:	4620      	mov	r0, r4
  407682:	681a      	ldr	r2, [r3, #0]
  407684:	1b96      	subs	r6, r2, r6
  407686:	601e      	str	r6, [r3, #0]
  407688:	f000 fd3e 	bl	408108 <__malloc_unlock>
  40768c:	2001      	movs	r0, #1
  40768e:	bdf8      	pop	{r3, r4, r5, r6, r7, pc}
  407690:	200005bc 	.word	0x200005bc
  407694:	200009c4 	.word	0x200009c4
  407698:	20001018 	.word	0x20001018

0040769c <_free_r>:
  40769c:	b5f8      	push	{r3, r4, r5, r6, r7, lr}
  40769e:	4606      	mov	r6, r0
  4076a0:	460d      	mov	r5, r1
  4076a2:	2900      	cmp	r1, #0
  4076a4:	f000 80a5 	beq.w	4077f2 <_free_r+0x156>
  4076a8:	f000 fd2d 	bl	408106 <__malloc_lock>
  4076ac:	f855 cc04 	ldr.w	ip, [r5, #-4]
  4076b0:	4f50      	ldr	r7, [pc, #320]	; (4077f4 <_free_r+0x158>)
  4076b2:	f1a5 0308 	sub.w	r3, r5, #8
  4076b6:	f02c 0201 	bic.w	r2, ip, #1
  4076ba:	189c      	adds	r4, r3, r2
  4076bc:	68b9      	ldr	r1, [r7, #8]
  4076be:	6860      	ldr	r0, [r4, #4]
  4076c0:	428c      	cmp	r4, r1
  4076c2:	f020 0003 	bic.w	r0, r0, #3
  4076c6:	f00c 0101 	and.w	r1, ip, #1
  4076ca:	d11c      	bne.n	407706 <_free_r+0x6a>
  4076cc:	1882      	adds	r2, r0, r2
  4076ce:	b939      	cbnz	r1, 4076e0 <_free_r+0x44>
  4076d0:	f855 1c08 	ldr.w	r1, [r5, #-8]
  4076d4:	1a5b      	subs	r3, r3, r1
  4076d6:	6898      	ldr	r0, [r3, #8]
  4076d8:	1852      	adds	r2, r2, r1
  4076da:	68d9      	ldr	r1, [r3, #12]
  4076dc:	60c1      	str	r1, [r0, #12]
  4076de:	6088      	str	r0, [r1, #8]
  4076e0:	f042 0101 	orr.w	r1, r2, #1
  4076e4:	6059      	str	r1, [r3, #4]
  4076e6:	4943      	ldr	r1, [pc, #268]	; (4077f4 <_free_r+0x158>)
  4076e8:	608b      	str	r3, [r1, #8]
  4076ea:	4b43      	ldr	r3, [pc, #268]	; (4077f8 <_free_r+0x15c>)
  4076ec:	681b      	ldr	r3, [r3, #0]
  4076ee:	429a      	cmp	r2, r3
  4076f0:	d304      	bcc.n	4076fc <_free_r+0x60>
  4076f2:	4b42      	ldr	r3, [pc, #264]	; (4077fc <_free_r+0x160>)
  4076f4:	4630      	mov	r0, r6
  4076f6:	6819      	ldr	r1, [r3, #0]
  4076f8:	f7ff ff82 	bl	407600 <_malloc_trim_r>
  4076fc:	4630      	mov	r0, r6
  4076fe:	e8bd 40f8 	ldmia.w	sp!, {r3, r4, r5, r6, r7, lr}
  407702:	f000 bd01 	b.w	408108 <__malloc_unlock>
  407706:	6060      	str	r0, [r4, #4]
  407708:	b959      	cbnz	r1, 407722 <_free_r+0x86>
  40770a:	f855 5c08 	ldr.w	r5, [r5, #-8]
  40770e:	3708      	adds	r7, #8
  407710:	1b5b      	subs	r3, r3, r5
  407712:	1952      	adds	r2, r2, r5
  407714:	689d      	ldr	r5, [r3, #8]
  407716:	42bd      	cmp	r5, r7
  407718:	d005      	beq.n	407726 <_free_r+0x8a>
  40771a:	68df      	ldr	r7, [r3, #12]
  40771c:	60ef      	str	r7, [r5, #12]
  40771e:	60bd      	str	r5, [r7, #8]
  407720:	e002      	b.n	407728 <_free_r+0x8c>
  407722:	2100      	movs	r1, #0
  407724:	e000      	b.n	407728 <_free_r+0x8c>
  407726:	2101      	movs	r1, #1
  407728:	1825      	adds	r5, r4, r0
  40772a:	686d      	ldr	r5, [r5, #4]
  40772c:	f015 0f01 	tst.w	r5, #1
  407730:	d10f      	bne.n	407752 <_free_r+0xb6>
  407732:	1812      	adds	r2, r2, r0
  407734:	b949      	cbnz	r1, 40774a <_free_r+0xae>
  407736:	68a0      	ldr	r0, [r4, #8]
  407738:	4d31      	ldr	r5, [pc, #196]	; (407800 <_free_r+0x164>)
  40773a:	42a8      	cmp	r0, r5
  40773c:	d105      	bne.n	40774a <_free_r+0xae>
  40773e:	60eb      	str	r3, [r5, #12]
  407740:	60ab      	str	r3, [r5, #8]
  407742:	60d8      	str	r0, [r3, #12]
  407744:	6098      	str	r0, [r3, #8]
  407746:	2101      	movs	r1, #1
  407748:	e003      	b.n	407752 <_free_r+0xb6>
  40774a:	68e0      	ldr	r0, [r4, #12]
  40774c:	68a4      	ldr	r4, [r4, #8]
  40774e:	60e0      	str	r0, [r4, #12]
  407750:	6084      	str	r4, [r0, #8]
  407752:	f042 0001 	orr.w	r0, r2, #1
  407756:	6058      	str	r0, [r3, #4]
  407758:	509a      	str	r2, [r3, r2]
  40775a:	2900      	cmp	r1, #0
  40775c:	d1ce      	bne.n	4076fc <_free_r+0x60>
  40775e:	f5b2 7f00 	cmp.w	r2, #512	; 0x200
  407762:	d20c      	bcs.n	40777e <_free_r+0xe2>
  407764:	08d2      	lsrs	r2, r2, #3
  407766:	1090      	asrs	r0, r2, #2
  407768:	2401      	movs	r4, #1
  40776a:	fa04 f400 	lsl.w	r4, r4, r0
  40776e:	4921      	ldr	r1, [pc, #132]	; (4077f4 <_free_r+0x158>)
  407770:	6848      	ldr	r0, [r1, #4]
  407772:	eb01 02c2 	add.w	r2, r1, r2, lsl #3
  407776:	4320      	orrs	r0, r4
  407778:	6048      	str	r0, [r1, #4]
  40777a:	6891      	ldr	r1, [r2, #8]
  40777c:	e034      	b.n	4077e8 <_free_r+0x14c>
  40777e:	0a54      	lsrs	r4, r2, #9
  407780:	2c04      	cmp	r4, #4
  407782:	d802      	bhi.n	40778a <_free_r+0xee>
  407784:	0994      	lsrs	r4, r2, #6
  407786:	3438      	adds	r4, #56	; 0x38
  407788:	e016      	b.n	4077b8 <_free_r+0x11c>
  40778a:	2c14      	cmp	r4, #20
  40778c:	d801      	bhi.n	407792 <_free_r+0xf6>
  40778e:	345b      	adds	r4, #91	; 0x5b
  407790:	e012      	b.n	4077b8 <_free_r+0x11c>
  407792:	2c54      	cmp	r4, #84	; 0x54
  407794:	d802      	bhi.n	40779c <_free_r+0x100>
  407796:	0b14      	lsrs	r4, r2, #12
  407798:	346e      	adds	r4, #110	; 0x6e
  40779a:	e00d      	b.n	4077b8 <_free_r+0x11c>
  40779c:	f5b4 7faa 	cmp.w	r4, #340	; 0x154
  4077a0:	d802      	bhi.n	4077a8 <_free_r+0x10c>
  4077a2:	0bd4      	lsrs	r4, r2, #15
  4077a4:	3477      	adds	r4, #119	; 0x77
  4077a6:	e007      	b.n	4077b8 <_free_r+0x11c>
  4077a8:	f240 5154 	movw	r1, #1364	; 0x554
  4077ac:	428c      	cmp	r4, r1
  4077ae:	d802      	bhi.n	4077b6 <_free_r+0x11a>
  4077b0:	0c94      	lsrs	r4, r2, #18
  4077b2:	347c      	adds	r4, #124	; 0x7c
  4077b4:	e000      	b.n	4077b8 <_free_r+0x11c>
  4077b6:	247e      	movs	r4, #126	; 0x7e
  4077b8:	4d0e      	ldr	r5, [pc, #56]	; (4077f4 <_free_r+0x158>)
  4077ba:	eb05 00c4 	add.w	r0, r5, r4, lsl #3
  4077be:	6881      	ldr	r1, [r0, #8]
  4077c0:	4281      	cmp	r1, r0
  4077c2:	d10b      	bne.n	4077dc <_free_r+0x140>
  4077c4:	2201      	movs	r2, #1
  4077c6:	10a4      	asrs	r4, r4, #2
  4077c8:	fa02 f404 	lsl.w	r4, r2, r4
  4077cc:	686a      	ldr	r2, [r5, #4]
  4077ce:	4322      	orrs	r2, r4
  4077d0:	606a      	str	r2, [r5, #4]
  4077d2:	460a      	mov	r2, r1
  4077d4:	e008      	b.n	4077e8 <_free_r+0x14c>
  4077d6:	6889      	ldr	r1, [r1, #8]
  4077d8:	4281      	cmp	r1, r0
  4077da:	d004      	beq.n	4077e6 <_free_r+0x14a>
  4077dc:	684c      	ldr	r4, [r1, #4]
  4077de:	f024 0403 	bic.w	r4, r4, #3
  4077e2:	42a2      	cmp	r2, r4
  4077e4:	d3f7      	bcc.n	4077d6 <_free_r+0x13a>
  4077e6:	68ca      	ldr	r2, [r1, #12]
  4077e8:	60da      	str	r2, [r3, #12]
  4077ea:	6099      	str	r1, [r3, #8]
  4077ec:	6093      	str	r3, [r2, #8]
  4077ee:	60cb      	str	r3, [r1, #12]
  4077f0:	e784      	b.n	4076fc <_free_r+0x60>
  4077f2:	bdf8      	pop	{r3, r4, r5, r6, r7, pc}
  4077f4:	200005bc 	.word	0x200005bc
  4077f8:	200009c8 	.word	0x200009c8
  4077fc:	20001014 	.word	0x20001014
  407800:	200005c4 	.word	0x200005c4

00407804 <__sfvwrite_r>:
  407804:	6893      	ldr	r3, [r2, #8]
  407806:	e92d 4ff7 	stmdb	sp!, {r0, r1, r2, r4, r5, r6, r7, r8, r9, sl, fp, lr}
  40780a:	4606      	mov	r6, r0
  40780c:	460c      	mov	r4, r1
  40780e:	4691      	mov	r9, r2
  407810:	b90b      	cbnz	r3, 407816 <__sfvwrite_r+0x12>
  407812:	2000      	movs	r0, #0
  407814:	e14c      	b.n	407ab0 <__sfvwrite_r+0x2ac>
  407816:	898b      	ldrh	r3, [r1, #12]
  407818:	f003 0308 	and.w	r3, r3, #8
  40781c:	b21b      	sxth	r3, r3
  40781e:	b10b      	cbz	r3, 407824 <__sfvwrite_r+0x20>
  407820:	690b      	ldr	r3, [r1, #16]
  407822:	b95b      	cbnz	r3, 40783c <__sfvwrite_r+0x38>
  407824:	4630      	mov	r0, r6
  407826:	4621      	mov	r1, r4
  407828:	f7ff fc4c 	bl	4070c4 <__swsetup_r>
  40782c:	b130      	cbz	r0, 40783c <__sfvwrite_r+0x38>
  40782e:	89a3      	ldrh	r3, [r4, #12]
  407830:	f043 0340 	orr.w	r3, r3, #64	; 0x40
  407834:	81a3      	strh	r3, [r4, #12]
  407836:	2309      	movs	r3, #9
  407838:	6033      	str	r3, [r6, #0]
  40783a:	e137      	b.n	407aac <__sfvwrite_r+0x2a8>
  40783c:	f8b4 a00c 	ldrh.w	sl, [r4, #12]
  407840:	f8d9 8000 	ldr.w	r8, [r9]
  407844:	f00a 0c02 	and.w	ip, sl, #2
  407848:	fa0f f38c 	sxth.w	r3, ip
  40784c:	b93b      	cbnz	r3, 40785e <__sfvwrite_r+0x5a>
  40784e:	e023      	b.n	407898 <__sfvwrite_r+0x94>
  407850:	f8d8 a000 	ldr.w	sl, [r8]
  407854:	f8d8 7004 	ldr.w	r7, [r8, #4]
  407858:	f108 0808 	add.w	r8, r8, #8
  40785c:	e002      	b.n	407864 <__sfvwrite_r+0x60>
  40785e:	f04f 0a00 	mov.w	sl, #0
  407862:	4657      	mov	r7, sl
  407864:	2f00      	cmp	r7, #0
  407866:	d0f3      	beq.n	407850 <__sfvwrite_r+0x4c>
  407868:	f5b7 6f80 	cmp.w	r7, #1024	; 0x400
  40786c:	bf34      	ite	cc
  40786e:	463b      	movcc	r3, r7
  407870:	f44f 6380 	movcs.w	r3, #1024	; 0x400
  407874:	4630      	mov	r0, r6
  407876:	69e1      	ldr	r1, [r4, #28]
  407878:	4652      	mov	r2, sl
  40787a:	6a65      	ldr	r5, [r4, #36]	; 0x24
  40787c:	47a8      	blx	r5
  40787e:	2800      	cmp	r0, #0
  407880:	f340 8110 	ble.w	407aa4 <__sfvwrite_r+0x2a0>
  407884:	f8d9 3008 	ldr.w	r3, [r9, #8]
  407888:	4482      	add	sl, r0
  40788a:	1a3f      	subs	r7, r7, r0
  40788c:	1a18      	subs	r0, r3, r0
  40788e:	f8c9 0008 	str.w	r0, [r9, #8]
  407892:	2800      	cmp	r0, #0
  407894:	d1e6      	bne.n	407864 <__sfvwrite_r+0x60>
  407896:	e7bc      	b.n	407812 <__sfvwrite_r+0xe>
  407898:	f01a 0a01 	ands.w	sl, sl, #1
  40789c:	d00b      	beq.n	4078b6 <__sfvwrite_r+0xb2>
  40789e:	469b      	mov	fp, r3
  4078a0:	9301      	str	r3, [sp, #4]
  4078a2:	461f      	mov	r7, r3
  4078a4:	469a      	mov	sl, r3
  4078a6:	e0a1      	b.n	4079ec <__sfvwrite_r+0x1e8>
  4078a8:	f8d8 a000 	ldr.w	sl, [r8]
  4078ac:	f8d8 5004 	ldr.w	r5, [r8, #4]
  4078b0:	f108 0808 	add.w	r8, r8, #8
  4078b4:	e000      	b.n	4078b8 <__sfvwrite_r+0xb4>
  4078b6:	4655      	mov	r5, sl
  4078b8:	2d00      	cmp	r5, #0
  4078ba:	d0f5      	beq.n	4078a8 <__sfvwrite_r+0xa4>
  4078bc:	89a2      	ldrh	r2, [r4, #12]
  4078be:	f8d4 b008 	ldr.w	fp, [r4, #8]
  4078c2:	f402 7100 	and.w	r1, r2, #512	; 0x200
  4078c6:	b209      	sxth	r1, r1
  4078c8:	2900      	cmp	r1, #0
  4078ca:	d052      	beq.n	407972 <__sfvwrite_r+0x16e>
  4078cc:	455d      	cmp	r5, fp
  4078ce:	d340      	bcc.n	407952 <__sfvwrite_r+0x14e>
  4078d0:	f412 6f90 	tst.w	r2, #1152	; 0x480
  4078d4:	d03b      	beq.n	40794e <__sfvwrite_r+0x14a>
  4078d6:	6963      	ldr	r3, [r4, #20]
  4078d8:	2003      	movs	r0, #3
  4078da:	4343      	muls	r3, r0
  4078dc:	6921      	ldr	r1, [r4, #16]
  4078de:	6827      	ldr	r7, [r4, #0]
  4078e0:	2002      	movs	r0, #2
  4078e2:	1a7f      	subs	r7, r7, r1
  4078e4:	9701      	str	r7, [sp, #4]
  4078e6:	fb93 f7f0 	sdiv	r7, r3, r0
  4078ea:	9801      	ldr	r0, [sp, #4]
  4078ec:	f402 6280 	and.w	r2, r2, #1024	; 0x400
  4078f0:	1c43      	adds	r3, r0, #1
  4078f2:	195b      	adds	r3, r3, r5
  4078f4:	b212      	sxth	r2, r2
  4078f6:	429f      	cmp	r7, r3
  4078f8:	bf38      	it	cc
  4078fa:	461f      	movcc	r7, r3
  4078fc:	4630      	mov	r0, r6
  4078fe:	b182      	cbz	r2, 407922 <__sfvwrite_r+0x11e>
  407900:	4639      	mov	r1, r7
  407902:	f000 f9dd 	bl	407cc0 <_malloc_r>
  407906:	4683      	mov	fp, r0
  407908:	b900      	cbnz	r0, 40790c <__sfvwrite_r+0x108>
  40790a:	e013      	b.n	407934 <__sfvwrite_r+0x130>
  40790c:	9a01      	ldr	r2, [sp, #4]
  40790e:	6921      	ldr	r1, [r4, #16]
  407910:	f7fe f900 	bl	405b14 <memcpy>
  407914:	89a2      	ldrh	r2, [r4, #12]
  407916:	f422 6290 	bic.w	r2, r2, #1152	; 0x480
  40791a:	f042 0280 	orr.w	r2, r2, #128	; 0x80
  40791e:	81a2      	strh	r2, [r4, #12]
  407920:	e00b      	b.n	40793a <__sfvwrite_r+0x136>
  407922:	463a      	mov	r2, r7
  407924:	f000 fbf2 	bl	40810c <_realloc_r>
  407928:	4683      	mov	fp, r0
  40792a:	b930      	cbnz	r0, 40793a <__sfvwrite_r+0x136>
  40792c:	4630      	mov	r0, r6
  40792e:	6921      	ldr	r1, [r4, #16]
  407930:	f7ff feb4 	bl	40769c <_free_r>
  407934:	230c      	movs	r3, #12
  407936:	6033      	str	r3, [r6, #0]
  407938:	e0b4      	b.n	407aa4 <__sfvwrite_r+0x2a0>
  40793a:	9a01      	ldr	r2, [sp, #4]
  40793c:	6167      	str	r7, [r4, #20]
  40793e:	eb0b 0302 	add.w	r3, fp, r2
  407942:	1abf      	subs	r7, r7, r2
  407944:	f8c4 b010 	str.w	fp, [r4, #16]
  407948:	6023      	str	r3, [r4, #0]
  40794a:	46ab      	mov	fp, r5
  40794c:	60a7      	str	r7, [r4, #8]
  40794e:	455d      	cmp	r5, fp
  407950:	d200      	bcs.n	407954 <__sfvwrite_r+0x150>
  407952:	46ab      	mov	fp, r5
  407954:	465a      	mov	r2, fp
  407956:	6820      	ldr	r0, [r4, #0]
  407958:	4651      	mov	r1, sl
  40795a:	f000 fbbb 	bl	4080d4 <memmove>
  40795e:	68a2      	ldr	r2, [r4, #8]
  407960:	ebcb 0202 	rsb	r2, fp, r2
  407964:	60a2      	str	r2, [r4, #8]
  407966:	6822      	ldr	r2, [r4, #0]
  407968:	eb02 030b 	add.w	r3, r2, fp
  40796c:	6023      	str	r3, [r4, #0]
  40796e:	46ab      	mov	fp, r5
  407970:	e029      	b.n	4079c6 <__sfvwrite_r+0x1c2>
  407972:	6820      	ldr	r0, [r4, #0]
  407974:	6922      	ldr	r2, [r4, #16]
  407976:	4290      	cmp	r0, r2
  407978:	d90e      	bls.n	407998 <__sfvwrite_r+0x194>
  40797a:	455d      	cmp	r5, fp
  40797c:	d90c      	bls.n	407998 <__sfvwrite_r+0x194>
  40797e:	4651      	mov	r1, sl
  407980:	465a      	mov	r2, fp
  407982:	f000 fba7 	bl	4080d4 <memmove>
  407986:	6822      	ldr	r2, [r4, #0]
  407988:	4630      	mov	r0, r6
  40798a:	445a      	add	r2, fp
  40798c:	6022      	str	r2, [r4, #0]
  40798e:	4621      	mov	r1, r4
  407990:	f7ff fc54 	bl	40723c <_fflush_r>
  407994:	b1b8      	cbz	r0, 4079c6 <__sfvwrite_r+0x1c2>
  407996:	e085      	b.n	407aa4 <__sfvwrite_r+0x2a0>
  407998:	6963      	ldr	r3, [r4, #20]
  40799a:	429d      	cmp	r5, r3
  40799c:	d308      	bcc.n	4079b0 <__sfvwrite_r+0x1ac>
  40799e:	6a67      	ldr	r7, [r4, #36]	; 0x24
  4079a0:	4630      	mov	r0, r6
  4079a2:	69e1      	ldr	r1, [r4, #28]
  4079a4:	4652      	mov	r2, sl
  4079a6:	47b8      	blx	r7
  4079a8:	f1b0 0b00 	subs.w	fp, r0, #0
  4079ac:	dc0b      	bgt.n	4079c6 <__sfvwrite_r+0x1c2>
  4079ae:	e079      	b.n	407aa4 <__sfvwrite_r+0x2a0>
  4079b0:	462a      	mov	r2, r5
  4079b2:	4651      	mov	r1, sl
  4079b4:	f000 fb8e 	bl	4080d4 <memmove>
  4079b8:	68a2      	ldr	r2, [r4, #8]
  4079ba:	46ab      	mov	fp, r5
  4079bc:	1b52      	subs	r2, r2, r5
  4079be:	60a2      	str	r2, [r4, #8]
  4079c0:	6822      	ldr	r2, [r4, #0]
  4079c2:	1952      	adds	r2, r2, r5
  4079c4:	6022      	str	r2, [r4, #0]
  4079c6:	f8d9 2008 	ldr.w	r2, [r9, #8]
  4079ca:	44da      	add	sl, fp
  4079cc:	ebcb 0302 	rsb	r3, fp, r2
  4079d0:	ebcb 0505 	rsb	r5, fp, r5
  4079d4:	f8c9 3008 	str.w	r3, [r9, #8]
  4079d8:	2b00      	cmp	r3, #0
  4079da:	f47f af6d 	bne.w	4078b8 <__sfvwrite_r+0xb4>
  4079de:	e718      	b.n	407812 <__sfvwrite_r+0xe>
  4079e0:	2500      	movs	r5, #0
  4079e2:	e898 0480 	ldmia.w	r8, {r7, sl}
  4079e6:	9501      	str	r5, [sp, #4]
  4079e8:	f108 0808 	add.w	r8, r8, #8
  4079ec:	f1ba 0f00 	cmp.w	sl, #0
  4079f0:	d0f6      	beq.n	4079e0 <__sfvwrite_r+0x1dc>
  4079f2:	9d01      	ldr	r5, [sp, #4]
  4079f4:	b975      	cbnz	r5, 407a14 <__sfvwrite_r+0x210>
  4079f6:	4638      	mov	r0, r7
  4079f8:	210a      	movs	r1, #10
  4079fa:	4652      	mov	r2, sl
  4079fc:	f000 fb5c 	bl	4080b8 <memchr>
  407a00:	b120      	cbz	r0, 407a0c <__sfvwrite_r+0x208>
  407a02:	f100 0c01 	add.w	ip, r0, #1
  407a06:	ebc7 0b0c 	rsb	fp, r7, ip
  407a0a:	e001      	b.n	407a10 <__sfvwrite_r+0x20c>
  407a0c:	f10a 0b01 	add.w	fp, sl, #1
  407a10:	2501      	movs	r5, #1
  407a12:	9501      	str	r5, [sp, #4]
  407a14:	6820      	ldr	r0, [r4, #0]
  407a16:	6922      	ldr	r2, [r4, #16]
  407a18:	45d3      	cmp	fp, sl
  407a1a:	bf34      	ite	cc
  407a1c:	465b      	movcc	r3, fp
  407a1e:	4653      	movcs	r3, sl
  407a20:	4290      	cmp	r0, r2
  407a22:	68a5      	ldr	r5, [r4, #8]
  407a24:	f8d4 e014 	ldr.w	lr, [r4, #20]
  407a28:	d90f      	bls.n	407a4a <__sfvwrite_r+0x246>
  407a2a:	4475      	add	r5, lr
  407a2c:	42ab      	cmp	r3, r5
  407a2e:	dd0c      	ble.n	407a4a <__sfvwrite_r+0x246>
  407a30:	4639      	mov	r1, r7
  407a32:	462a      	mov	r2, r5
  407a34:	f000 fb4e 	bl	4080d4 <memmove>
  407a38:	6823      	ldr	r3, [r4, #0]
  407a3a:	4630      	mov	r0, r6
  407a3c:	195b      	adds	r3, r3, r5
  407a3e:	6023      	str	r3, [r4, #0]
  407a40:	4621      	mov	r1, r4
  407a42:	f7ff fbfb 	bl	40723c <_fflush_r>
  407a46:	b1c0      	cbz	r0, 407a7a <__sfvwrite_r+0x276>
  407a48:	e02c      	b.n	407aa4 <__sfvwrite_r+0x2a0>
  407a4a:	4573      	cmp	r3, lr
  407a4c:	db08      	blt.n	407a60 <__sfvwrite_r+0x25c>
  407a4e:	6a65      	ldr	r5, [r4, #36]	; 0x24
  407a50:	4630      	mov	r0, r6
  407a52:	69e1      	ldr	r1, [r4, #28]
  407a54:	463a      	mov	r2, r7
  407a56:	4673      	mov	r3, lr
  407a58:	47a8      	blx	r5
  407a5a:	1e05      	subs	r5, r0, #0
  407a5c:	dc0d      	bgt.n	407a7a <__sfvwrite_r+0x276>
  407a5e:	e021      	b.n	407aa4 <__sfvwrite_r+0x2a0>
  407a60:	461a      	mov	r2, r3
  407a62:	4639      	mov	r1, r7
  407a64:	9300      	str	r3, [sp, #0]
  407a66:	f000 fb35 	bl	4080d4 <memmove>
  407a6a:	9b00      	ldr	r3, [sp, #0]
  407a6c:	68a2      	ldr	r2, [r4, #8]
  407a6e:	461d      	mov	r5, r3
  407a70:	1ad2      	subs	r2, r2, r3
  407a72:	60a2      	str	r2, [r4, #8]
  407a74:	6822      	ldr	r2, [r4, #0]
  407a76:	18d2      	adds	r2, r2, r3
  407a78:	6022      	str	r2, [r4, #0]
  407a7a:	ebbb 0b05 	subs.w	fp, fp, r5
  407a7e:	d106      	bne.n	407a8e <__sfvwrite_r+0x28a>
  407a80:	4630      	mov	r0, r6
  407a82:	4621      	mov	r1, r4
  407a84:	f7ff fbda 	bl	40723c <_fflush_r>
  407a88:	b960      	cbnz	r0, 407aa4 <__sfvwrite_r+0x2a0>
  407a8a:	f8cd b004 	str.w	fp, [sp, #4]
  407a8e:	f8d9 3008 	ldr.w	r3, [r9, #8]
  407a92:	197f      	adds	r7, r7, r5
  407a94:	ebc5 0a0a 	rsb	sl, r5, sl
  407a98:	1b5d      	subs	r5, r3, r5
  407a9a:	f8c9 5008 	str.w	r5, [r9, #8]
  407a9e:	2d00      	cmp	r5, #0
  407aa0:	d1a4      	bne.n	4079ec <__sfvwrite_r+0x1e8>
  407aa2:	e6b6      	b.n	407812 <__sfvwrite_r+0xe>
  407aa4:	89a3      	ldrh	r3, [r4, #12]
  407aa6:	f043 0340 	orr.w	r3, r3, #64	; 0x40
  407aaa:	81a3      	strh	r3, [r4, #12]
  407aac:	f04f 30ff 	mov.w	r0, #4294967295
  407ab0:	e8bd 8ffe 	ldmia.w	sp!, {r1, r2, r3, r4, r5, r6, r7, r8, r9, sl, fp, pc}

00407ab4 <_fwalk>:
  407ab4:	e92d 41f0 	stmdb	sp!, {r4, r5, r6, r7, r8, lr}
  407ab8:	4604      	mov	r4, r0
  407aba:	4688      	mov	r8, r1
  407abc:	f504 7438 	add.w	r4, r4, #736	; 0x2e0
  407ac0:	f7ff fd14 	bl	4074ec <__sfp_lock_acquire>
  407ac4:	2600      	movs	r6, #0
  407ac6:	e010      	b.n	407aea <_fwalk+0x36>
  407ac8:	68a5      	ldr	r5, [r4, #8]
  407aca:	6867      	ldr	r7, [r4, #4]
  407acc:	e00a      	b.n	407ae4 <_fwalk+0x30>
  407ace:	f9b5 300c 	ldrsh.w	r3, [r5, #12]
  407ad2:	b133      	cbz	r3, 407ae2 <_fwalk+0x2e>
  407ad4:	f9b5 300e 	ldrsh.w	r3, [r5, #14]
  407ad8:	3301      	adds	r3, #1
  407ada:	d002      	beq.n	407ae2 <_fwalk+0x2e>
  407adc:	4628      	mov	r0, r5
  407ade:	47c0      	blx	r8
  407ae0:	4306      	orrs	r6, r0
  407ae2:	3568      	adds	r5, #104	; 0x68
  407ae4:	3f01      	subs	r7, #1
  407ae6:	d5f2      	bpl.n	407ace <_fwalk+0x1a>
  407ae8:	6824      	ldr	r4, [r4, #0]
  407aea:	2c00      	cmp	r4, #0
  407aec:	d1ec      	bne.n	407ac8 <_fwalk+0x14>
  407aee:	f7ff fcfe 	bl	4074ee <__sfp_lock_release>
  407af2:	4630      	mov	r0, r6
  407af4:	e8bd 81f0 	ldmia.w	sp!, {r4, r5, r6, r7, r8, pc}

00407af8 <_fwalk_reent>:
  407af8:	e92d 43f8 	stmdb	sp!, {r3, r4, r5, r6, r7, r8, r9, lr}
  407afc:	4680      	mov	r8, r0
  407afe:	4689      	mov	r9, r1
  407b00:	f508 7438 	add.w	r4, r8, #736	; 0x2e0
  407b04:	f7ff fcf2 	bl	4074ec <__sfp_lock_acquire>
  407b08:	2600      	movs	r6, #0
  407b0a:	e011      	b.n	407b30 <_fwalk_reent+0x38>
  407b0c:	68a5      	ldr	r5, [r4, #8]
  407b0e:	6867      	ldr	r7, [r4, #4]
  407b10:	e00b      	b.n	407b2a <_fwalk_reent+0x32>
  407b12:	f9b5 300c 	ldrsh.w	r3, [r5, #12]
  407b16:	b13b      	cbz	r3, 407b28 <_fwalk_reent+0x30>
  407b18:	f9b5 300e 	ldrsh.w	r3, [r5, #14]
  407b1c:	3301      	adds	r3, #1
  407b1e:	d003      	beq.n	407b28 <_fwalk_reent+0x30>
  407b20:	4640      	mov	r0, r8
  407b22:	4629      	mov	r1, r5
  407b24:	47c8      	blx	r9
  407b26:	4306      	orrs	r6, r0
  407b28:	3568      	adds	r5, #104	; 0x68
  407b2a:	3f01      	subs	r7, #1
  407b2c:	d5f1      	bpl.n	407b12 <_fwalk_reent+0x1a>
  407b2e:	6824      	ldr	r4, [r4, #0]
  407b30:	2c00      	cmp	r4, #0
  407b32:	d1eb      	bne.n	407b0c <_fwalk_reent+0x14>
  407b34:	f7ff fcdb 	bl	4074ee <__sfp_lock_release>
  407b38:	4630      	mov	r0, r6
  407b3a:	e8bd 83f8 	ldmia.w	sp!, {r3, r4, r5, r6, r7, r8, r9, pc}
	...

00407b40 <_setlocale_r>:
  407b40:	b510      	push	{r4, lr}
  407b42:	4614      	mov	r4, r2
  407b44:	b90a      	cbnz	r2, 407b4a <_setlocale_r+0xa>
  407b46:	480c      	ldr	r0, [pc, #48]	; (407b78 <_setlocale_r+0x38>)
  407b48:	bd10      	pop	{r4, pc}
  407b4a:	4610      	mov	r0, r2
  407b4c:	490b      	ldr	r1, [pc, #44]	; (407b7c <_setlocale_r+0x3c>)
  407b4e:	f000 fd58 	bl	408602 <strcmp>
  407b52:	2800      	cmp	r0, #0
  407b54:	d0f7      	beq.n	407b46 <_setlocale_r+0x6>
  407b56:	4620      	mov	r0, r4
  407b58:	4907      	ldr	r1, [pc, #28]	; (407b78 <_setlocale_r+0x38>)
  407b5a:	f000 fd52 	bl	408602 <strcmp>
  407b5e:	2800      	cmp	r0, #0
  407b60:	d0f1      	beq.n	407b46 <_setlocale_r+0x6>
  407b62:	4620      	mov	r0, r4
  407b64:	4906      	ldr	r1, [pc, #24]	; (407b80 <_setlocale_r+0x40>)
  407b66:	f000 fd4c 	bl	408602 <strcmp>
  407b6a:	4b03      	ldr	r3, [pc, #12]	; (407b78 <_setlocale_r+0x38>)
  407b6c:	2800      	cmp	r0, #0
  407b6e:	bf0c      	ite	eq
  407b70:	4618      	moveq	r0, r3
  407b72:	2000      	movne	r0, #0
  407b74:	bd10      	pop	{r4, pc}
  407b76:	bf00      	nop
  407b78:	0040a7d4 	.word	0x0040a7d4
  407b7c:	0040a838 	.word	0x0040a838
  407b80:	00409e83 	.word	0x00409e83

00407b84 <__locale_charset>:
  407b84:	4800      	ldr	r0, [pc, #0]	; (407b88 <__locale_charset+0x4>)
  407b86:	4770      	bx	lr
  407b88:	20000540 	.word	0x20000540

00407b8c <__locale_mb_cur_max>:
  407b8c:	4b01      	ldr	r3, [pc, #4]	; (407b94 <__locale_mb_cur_max+0x8>)
  407b8e:	6a18      	ldr	r0, [r3, #32]
  407b90:	4770      	bx	lr
  407b92:	bf00      	nop
  407b94:	20000540 	.word	0x20000540

00407b98 <__locale_msgcharset>:
  407b98:	4800      	ldr	r0, [pc, #0]	; (407b9c <__locale_msgcharset+0x4>)
  407b9a:	4770      	bx	lr
  407b9c:	20000564 	.word	0x20000564

00407ba0 <__locale_cjk_lang>:
  407ba0:	2000      	movs	r0, #0
  407ba2:	4770      	bx	lr

00407ba4 <_localeconv_r>:
  407ba4:	4800      	ldr	r0, [pc, #0]	; (407ba8 <_localeconv_r+0x4>)
  407ba6:	4770      	bx	lr
  407ba8:	20000584 	.word	0x20000584

00407bac <setlocale>:
  407bac:	460a      	mov	r2, r1
  407bae:	4903      	ldr	r1, [pc, #12]	; (407bbc <setlocale+0x10>)
  407bb0:	4603      	mov	r3, r0
  407bb2:	6808      	ldr	r0, [r1, #0]
  407bb4:	4619      	mov	r1, r3
  407bb6:	f7ff bfc3 	b.w	407b40 <_setlocale_r>
  407bba:	bf00      	nop
  407bbc:	20000110 	.word	0x20000110

00407bc0 <localeconv>:
  407bc0:	4800      	ldr	r0, [pc, #0]	; (407bc4 <localeconv+0x4>)
  407bc2:	4770      	bx	lr
  407bc4:	20000584 	.word	0x20000584

00407bc8 <__smakebuf_r>:
  407bc8:	b5f0      	push	{r4, r5, r6, r7, lr}
  407bca:	898b      	ldrh	r3, [r1, #12]
  407bcc:	b091      	sub	sp, #68	; 0x44
  407bce:	f003 0302 	and.w	r3, r3, #2
  407bd2:	b21b      	sxth	r3, r3
  407bd4:	4606      	mov	r6, r0
  407bd6:	460c      	mov	r4, r1
  407bd8:	b103      	cbz	r3, 407bdc <__smakebuf_r+0x14>
  407bda:	e03f      	b.n	407c5c <__smakebuf_r+0x94>
  407bdc:	f9b1 100e 	ldrsh.w	r1, [r1, #14]
  407be0:	2900      	cmp	r1, #0
  407be2:	da0d      	bge.n	407c00 <__smakebuf_r+0x38>
  407be4:	89a3      	ldrh	r3, [r4, #12]
  407be6:	2700      	movs	r7, #0
  407be8:	f003 0580 	and.w	r5, r3, #128	; 0x80
  407bec:	b22d      	sxth	r5, r5
  407bee:	f443 6300 	orr.w	r3, r3, #2048	; 0x800
  407bf2:	2d00      	cmp	r5, #0
  407bf4:	bf0c      	ite	eq
  407bf6:	f44f 6580 	moveq.w	r5, #1024	; 0x400
  407bfa:	2540      	movne	r5, #64	; 0x40
  407bfc:	81a3      	strh	r3, [r4, #12]
  407bfe:	e020      	b.n	407c42 <__smakebuf_r+0x7a>
  407c00:	aa01      	add	r2, sp, #4
  407c02:	f000 fdcb 	bl	40879c <_fstat_r>
  407c06:	2800      	cmp	r0, #0
  407c08:	dbec      	blt.n	407be4 <__smakebuf_r+0x1c>
  407c0a:	9b02      	ldr	r3, [sp, #8]
  407c0c:	f403 4370 	and.w	r3, r3, #61440	; 0xf000
  407c10:	f5b3 5200 	subs.w	r2, r3, #8192	; 0x2000
  407c14:	4257      	negs	r7, r2
  407c16:	4157      	adcs	r7, r2
  407c18:	f5b3 4f00 	cmp.w	r3, #32768	; 0x8000
  407c1c:	d10b      	bne.n	407c36 <__smakebuf_r+0x6e>
  407c1e:	6aa3      	ldr	r3, [r4, #40]	; 0x28
  407c20:	4a1d      	ldr	r2, [pc, #116]	; (407c98 <__smakebuf_r+0xd0>)
  407c22:	4293      	cmp	r3, r2
  407c24:	d107      	bne.n	407c36 <__smakebuf_r+0x6e>
  407c26:	89a3      	ldrh	r3, [r4, #12]
  407c28:	f44f 6580 	mov.w	r5, #1024	; 0x400
  407c2c:	f443 6380 	orr.w	r3, r3, #1024	; 0x400
  407c30:	81a3      	strh	r3, [r4, #12]
  407c32:	64e5      	str	r5, [r4, #76]	; 0x4c
  407c34:	e005      	b.n	407c42 <__smakebuf_r+0x7a>
  407c36:	89a3      	ldrh	r3, [r4, #12]
  407c38:	f44f 6580 	mov.w	r5, #1024	; 0x400
  407c3c:	f443 6300 	orr.w	r3, r3, #2048	; 0x800
  407c40:	81a3      	strh	r3, [r4, #12]
  407c42:	4630      	mov	r0, r6
  407c44:	4629      	mov	r1, r5
  407c46:	f000 f83b 	bl	407cc0 <_malloc_r>
  407c4a:	b970      	cbnz	r0, 407c6a <__smakebuf_r+0xa2>
  407c4c:	89a3      	ldrh	r3, [r4, #12]
  407c4e:	f403 7200 	and.w	r2, r3, #512	; 0x200
  407c52:	b212      	sxth	r2, r2
  407c54:	b9ea      	cbnz	r2, 407c92 <__smakebuf_r+0xca>
  407c56:	f043 0302 	orr.w	r3, r3, #2
  407c5a:	81a3      	strh	r3, [r4, #12]
  407c5c:	f104 0343 	add.w	r3, r4, #67	; 0x43
  407c60:	6023      	str	r3, [r4, #0]
  407c62:	6123      	str	r3, [r4, #16]
  407c64:	2301      	movs	r3, #1
  407c66:	6163      	str	r3, [r4, #20]
  407c68:	e013      	b.n	407c92 <__smakebuf_r+0xca>
  407c6a:	4b0c      	ldr	r3, [pc, #48]	; (407c9c <__smakebuf_r+0xd4>)
  407c6c:	63f3      	str	r3, [r6, #60]	; 0x3c
  407c6e:	89a3      	ldrh	r3, [r4, #12]
  407c70:	6020      	str	r0, [r4, #0]
  407c72:	f043 0380 	orr.w	r3, r3, #128	; 0x80
  407c76:	81a3      	strh	r3, [r4, #12]
  407c78:	6120      	str	r0, [r4, #16]
  407c7a:	6165      	str	r5, [r4, #20]
  407c7c:	b14f      	cbz	r7, 407c92 <__smakebuf_r+0xca>
  407c7e:	4630      	mov	r0, r6
  407c80:	f9b4 100e 	ldrsh.w	r1, [r4, #14]
  407c84:	f000 fd9c 	bl	4087c0 <_isatty_r>
  407c88:	b118      	cbz	r0, 407c92 <__smakebuf_r+0xca>
  407c8a:	89a3      	ldrh	r3, [r4, #12]
  407c8c:	f043 0301 	orr.w	r3, r3, #1
  407c90:	81a3      	strh	r3, [r4, #12]
  407c92:	b011      	add	sp, #68	; 0x44
  407c94:	bdf0      	pop	{r4, r5, r6, r7, pc}
  407c96:	bf00      	nop
  407c98:	004085d7 	.word	0x004085d7
  407c9c:	00407399 	.word	0x00407399

00407ca0 <malloc>:
  407ca0:	4b02      	ldr	r3, [pc, #8]	; (407cac <malloc+0xc>)
  407ca2:	4601      	mov	r1, r0
  407ca4:	6818      	ldr	r0, [r3, #0]
  407ca6:	f000 b80b 	b.w	407cc0 <_malloc_r>
  407caa:	bf00      	nop
  407cac:	20000110 	.word	0x20000110

00407cb0 <free>:
  407cb0:	4b02      	ldr	r3, [pc, #8]	; (407cbc <free+0xc>)
  407cb2:	4601      	mov	r1, r0
  407cb4:	6818      	ldr	r0, [r3, #0]
  407cb6:	f7ff bcf1 	b.w	40769c <_free_r>
  407cba:	bf00      	nop
  407cbc:	20000110 	.word	0x20000110

00407cc0 <_malloc_r>:
  407cc0:	e92d 47f0 	stmdb	sp!, {r4, r5, r6, r7, r8, r9, sl, lr}
  407cc4:	f101 040b 	add.w	r4, r1, #11
  407cc8:	2c16      	cmp	r4, #22
  407cca:	4606      	mov	r6, r0
  407ccc:	d903      	bls.n	407cd6 <_malloc_r+0x16>
  407cce:	f034 0407 	bics.w	r4, r4, #7
  407cd2:	d501      	bpl.n	407cd8 <_malloc_r+0x18>
  407cd4:	e002      	b.n	407cdc <_malloc_r+0x1c>
  407cd6:	2410      	movs	r4, #16
  407cd8:	428c      	cmp	r4, r1
  407cda:	d202      	bcs.n	407ce2 <_malloc_r+0x22>
  407cdc:	230c      	movs	r3, #12
  407cde:	6033      	str	r3, [r6, #0]
  407ce0:	e1d3      	b.n	40808a <_malloc_r+0x3ca>
  407ce2:	4630      	mov	r0, r6
  407ce4:	f000 fa0f 	bl	408106 <__malloc_lock>
  407ce8:	f5b4 7ffc 	cmp.w	r4, #504	; 0x1f8
  407cec:	d214      	bcs.n	407d18 <_malloc_r+0x58>
  407cee:	4ba0      	ldr	r3, [pc, #640]	; (407f70 <_malloc_r+0x2b0>)
  407cf0:	08e2      	lsrs	r2, r4, #3
  407cf2:	eb03 03c2 	add.w	r3, r3, r2, lsl #3
  407cf6:	68dd      	ldr	r5, [r3, #12]
  407cf8:	429d      	cmp	r5, r3
  407cfa:	d105      	bne.n	407d08 <_malloc_r+0x48>
  407cfc:	f105 0308 	add.w	r3, r5, #8
  407d00:	696d      	ldr	r5, [r5, #20]
  407d02:	3202      	adds	r2, #2
  407d04:	429d      	cmp	r5, r3
  407d06:	d044      	beq.n	407d92 <_malloc_r+0xd2>
  407d08:	68ea      	ldr	r2, [r5, #12]
  407d0a:	68a9      	ldr	r1, [r5, #8]
  407d0c:	686b      	ldr	r3, [r5, #4]
  407d0e:	60ca      	str	r2, [r1, #12]
  407d10:	f023 0303 	bic.w	r3, r3, #3
  407d14:	6091      	str	r1, [r2, #8]
  407d16:	e059      	b.n	407dcc <_malloc_r+0x10c>
  407d18:	0a62      	lsrs	r2, r4, #9
  407d1a:	d101      	bne.n	407d20 <_malloc_r+0x60>
  407d1c:	08e2      	lsrs	r2, r4, #3
  407d1e:	e01b      	b.n	407d58 <_malloc_r+0x98>
  407d20:	2a04      	cmp	r2, #4
  407d22:	d802      	bhi.n	407d2a <_malloc_r+0x6a>
  407d24:	09a2      	lsrs	r2, r4, #6
  407d26:	3238      	adds	r2, #56	; 0x38
  407d28:	e016      	b.n	407d58 <_malloc_r+0x98>
  407d2a:	2a14      	cmp	r2, #20
  407d2c:	d801      	bhi.n	407d32 <_malloc_r+0x72>
  407d2e:	325b      	adds	r2, #91	; 0x5b
  407d30:	e012      	b.n	407d58 <_malloc_r+0x98>
  407d32:	2a54      	cmp	r2, #84	; 0x54
  407d34:	d802      	bhi.n	407d3c <_malloc_r+0x7c>
  407d36:	0b22      	lsrs	r2, r4, #12
  407d38:	326e      	adds	r2, #110	; 0x6e
  407d3a:	e00d      	b.n	407d58 <_malloc_r+0x98>
  407d3c:	f5b2 7faa 	cmp.w	r2, #340	; 0x154
  407d40:	d802      	bhi.n	407d48 <_malloc_r+0x88>
  407d42:	0be2      	lsrs	r2, r4, #15
  407d44:	3277      	adds	r2, #119	; 0x77
  407d46:	e007      	b.n	407d58 <_malloc_r+0x98>
  407d48:	f240 5354 	movw	r3, #1364	; 0x554
  407d4c:	429a      	cmp	r2, r3
  407d4e:	d802      	bhi.n	407d56 <_malloc_r+0x96>
  407d50:	0ca2      	lsrs	r2, r4, #18
  407d52:	327c      	adds	r2, #124	; 0x7c
  407d54:	e000      	b.n	407d58 <_malloc_r+0x98>
  407d56:	227e      	movs	r2, #126	; 0x7e
  407d58:	4b85      	ldr	r3, [pc, #532]	; (407f70 <_malloc_r+0x2b0>)
  407d5a:	eb03 03c2 	add.w	r3, r3, r2, lsl #3
  407d5e:	68dd      	ldr	r5, [r3, #12]
  407d60:	e014      	b.n	407d8c <_malloc_r+0xcc>
  407d62:	6869      	ldr	r1, [r5, #4]
  407d64:	f021 0103 	bic.w	r1, r1, #3
  407d68:	1b08      	subs	r0, r1, r4
  407d6a:	280f      	cmp	r0, #15
  407d6c:	dd01      	ble.n	407d72 <_malloc_r+0xb2>
  407d6e:	3a01      	subs	r2, #1
  407d70:	e00e      	b.n	407d90 <_malloc_r+0xd0>
  407d72:	2800      	cmp	r0, #0
  407d74:	db09      	blt.n	407d8a <_malloc_r+0xca>
  407d76:	68eb      	ldr	r3, [r5, #12]
  407d78:	68aa      	ldr	r2, [r5, #8]
  407d7a:	60d3      	str	r3, [r2, #12]
  407d7c:	609a      	str	r2, [r3, #8]
  407d7e:	186b      	adds	r3, r5, r1
  407d80:	685a      	ldr	r2, [r3, #4]
  407d82:	f042 0201 	orr.w	r2, r2, #1
  407d86:	605a      	str	r2, [r3, #4]
  407d88:	e18b      	b.n	4080a2 <_malloc_r+0x3e2>
  407d8a:	68ed      	ldr	r5, [r5, #12]
  407d8c:	429d      	cmp	r5, r3
  407d8e:	d1e8      	bne.n	407d62 <_malloc_r+0xa2>
  407d90:	3201      	adds	r2, #1
  407d92:	4977      	ldr	r1, [pc, #476]	; (407f70 <_malloc_r+0x2b0>)
  407d94:	690d      	ldr	r5, [r1, #16]
  407d96:	f101 0708 	add.w	r7, r1, #8
  407d9a:	42bd      	cmp	r5, r7
  407d9c:	d067      	beq.n	407e6e <_malloc_r+0x1ae>
  407d9e:	686b      	ldr	r3, [r5, #4]
  407da0:	f023 0303 	bic.w	r3, r3, #3
  407da4:	1b18      	subs	r0, r3, r4
  407da6:	280f      	cmp	r0, #15
  407da8:	dd0c      	ble.n	407dc4 <_malloc_r+0x104>
  407daa:	192b      	adds	r3, r5, r4
  407dac:	f040 0201 	orr.w	r2, r0, #1
  407db0:	f044 0401 	orr.w	r4, r4, #1
  407db4:	606c      	str	r4, [r5, #4]
  407db6:	614b      	str	r3, [r1, #20]
  407db8:	610b      	str	r3, [r1, #16]
  407dba:	60df      	str	r7, [r3, #12]
  407dbc:	609f      	str	r7, [r3, #8]
  407dbe:	605a      	str	r2, [r3, #4]
  407dc0:	5018      	str	r0, [r3, r0]
  407dc2:	e16e      	b.n	4080a2 <_malloc_r+0x3e2>
  407dc4:	2800      	cmp	r0, #0
  407dc6:	614f      	str	r7, [r1, #20]
  407dc8:	610f      	str	r7, [r1, #16]
  407dca:	db01      	blt.n	407dd0 <_malloc_r+0x110>
  407dcc:	18eb      	adds	r3, r5, r3
  407dce:	e7d7      	b.n	407d80 <_malloc_r+0xc0>
  407dd0:	f5b3 7f00 	cmp.w	r3, #512	; 0x200
  407dd4:	d20f      	bcs.n	407df6 <_malloc_r+0x136>
  407dd6:	08db      	lsrs	r3, r3, #3
  407dd8:	1098      	asrs	r0, r3, #2
  407dda:	2701      	movs	r7, #1
  407ddc:	fa07 f700 	lsl.w	r7, r7, r0
  407de0:	6848      	ldr	r0, [r1, #4]
  407de2:	4338      	orrs	r0, r7
  407de4:	6048      	str	r0, [r1, #4]
  407de6:	eb01 01c3 	add.w	r1, r1, r3, lsl #3
  407dea:	688b      	ldr	r3, [r1, #8]
  407dec:	60e9      	str	r1, [r5, #12]
  407dee:	60ab      	str	r3, [r5, #8]
  407df0:	60dd      	str	r5, [r3, #12]
  407df2:	608d      	str	r5, [r1, #8]
  407df4:	e03b      	b.n	407e6e <_malloc_r+0x1ae>
  407df6:	0a58      	lsrs	r0, r3, #9
  407df8:	2804      	cmp	r0, #4
  407dfa:	d802      	bhi.n	407e02 <_malloc_r+0x142>
  407dfc:	0998      	lsrs	r0, r3, #6
  407dfe:	3038      	adds	r0, #56	; 0x38
  407e00:	e016      	b.n	407e30 <_malloc_r+0x170>
  407e02:	2814      	cmp	r0, #20
  407e04:	d801      	bhi.n	407e0a <_malloc_r+0x14a>
  407e06:	305b      	adds	r0, #91	; 0x5b
  407e08:	e012      	b.n	407e30 <_malloc_r+0x170>
  407e0a:	2854      	cmp	r0, #84	; 0x54
  407e0c:	d802      	bhi.n	407e14 <_malloc_r+0x154>
  407e0e:	0b18      	lsrs	r0, r3, #12
  407e10:	306e      	adds	r0, #110	; 0x6e
  407e12:	e00d      	b.n	407e30 <_malloc_r+0x170>
  407e14:	f5b0 7faa 	cmp.w	r0, #340	; 0x154
  407e18:	d802      	bhi.n	407e20 <_malloc_r+0x160>
  407e1a:	0bd8      	lsrs	r0, r3, #15
  407e1c:	3077      	adds	r0, #119	; 0x77
  407e1e:	e007      	b.n	407e30 <_malloc_r+0x170>
  407e20:	f240 5154 	movw	r1, #1364	; 0x554
  407e24:	4288      	cmp	r0, r1
  407e26:	d802      	bhi.n	407e2e <_malloc_r+0x16e>
  407e28:	0c98      	lsrs	r0, r3, #18
  407e2a:	307c      	adds	r0, #124	; 0x7c
  407e2c:	e000      	b.n	407e30 <_malloc_r+0x170>
  407e2e:	207e      	movs	r0, #126	; 0x7e
  407e30:	f8df e13c 	ldr.w	lr, [pc, #316]	; 407f70 <_malloc_r+0x2b0>
  407e34:	eb0e 07c0 	add.w	r7, lr, r0, lsl #3
  407e38:	68b9      	ldr	r1, [r7, #8]
  407e3a:	42b9      	cmp	r1, r7
  407e3c:	d10d      	bne.n	407e5a <_malloc_r+0x19a>
  407e3e:	2301      	movs	r3, #1
  407e40:	1080      	asrs	r0, r0, #2
  407e42:	fa03 f000 	lsl.w	r0, r3, r0
  407e46:	f8de 3004 	ldr.w	r3, [lr, #4]
  407e4a:	4303      	orrs	r3, r0
  407e4c:	f8ce 3004 	str.w	r3, [lr, #4]
  407e50:	460b      	mov	r3, r1
  407e52:	e008      	b.n	407e66 <_malloc_r+0x1a6>
  407e54:	6889      	ldr	r1, [r1, #8]
  407e56:	42b9      	cmp	r1, r7
  407e58:	d004      	beq.n	407e64 <_malloc_r+0x1a4>
  407e5a:	6848      	ldr	r0, [r1, #4]
  407e5c:	f020 0003 	bic.w	r0, r0, #3
  407e60:	4283      	cmp	r3, r0
  407e62:	d3f7      	bcc.n	407e54 <_malloc_r+0x194>
  407e64:	68cb      	ldr	r3, [r1, #12]
  407e66:	60eb      	str	r3, [r5, #12]
  407e68:	60a9      	str	r1, [r5, #8]
  407e6a:	60cd      	str	r5, [r1, #12]
  407e6c:	609d      	str	r5, [r3, #8]
  407e6e:	2101      	movs	r1, #1
  407e70:	1093      	asrs	r3, r2, #2
  407e72:	fa01 f303 	lsl.w	r3, r1, r3
  407e76:	493e      	ldr	r1, [pc, #248]	; (407f70 <_malloc_r+0x2b0>)
  407e78:	6849      	ldr	r1, [r1, #4]
  407e7a:	428b      	cmp	r3, r1
  407e7c:	d85d      	bhi.n	407f3a <_malloc_r+0x27a>
  407e7e:	420b      	tst	r3, r1
  407e80:	d105      	bne.n	407e8e <_malloc_r+0x1ce>
  407e82:	f022 0203 	bic.w	r2, r2, #3
  407e86:	005b      	lsls	r3, r3, #1
  407e88:	3204      	adds	r2, #4
  407e8a:	420b      	tst	r3, r1
  407e8c:	d0fb      	beq.n	407e86 <_malloc_r+0x1c6>
  407e8e:	4838      	ldr	r0, [pc, #224]	; (407f70 <_malloc_r+0x2b0>)
  407e90:	eb00 0cc2 	add.w	ip, r0, r2, lsl #3
  407e94:	46e6      	mov	lr, ip
  407e96:	4617      	mov	r7, r2
  407e98:	f8de 500c 	ldr.w	r5, [lr, #12]
  407e9c:	e02c      	b.n	407ef8 <_malloc_r+0x238>
  407e9e:	6869      	ldr	r1, [r5, #4]
  407ea0:	f021 0803 	bic.w	r8, r1, #3
  407ea4:	ebc4 0108 	rsb	r1, r4, r8
  407ea8:	290f      	cmp	r1, #15
  407eaa:	dd13      	ble.n	407ed4 <_malloc_r+0x214>
  407eac:	192b      	adds	r3, r5, r4
  407eae:	f044 0401 	orr.w	r4, r4, #1
  407eb2:	68ea      	ldr	r2, [r5, #12]
  407eb4:	606c      	str	r4, [r5, #4]
  407eb6:	f855 0f08 	ldr.w	r0, [r5, #8]!
  407eba:	5059      	str	r1, [r3, r1]
  407ebc:	60c2      	str	r2, [r0, #12]
  407ebe:	6090      	str	r0, [r2, #8]
  407ec0:	4a2b      	ldr	r2, [pc, #172]	; (407f70 <_malloc_r+0x2b0>)
  407ec2:	6153      	str	r3, [r2, #20]
  407ec4:	6113      	str	r3, [r2, #16]
  407ec6:	3208      	adds	r2, #8
  407ec8:	60da      	str	r2, [r3, #12]
  407eca:	609a      	str	r2, [r3, #8]
  407ecc:	f041 0201 	orr.w	r2, r1, #1
  407ed0:	605a      	str	r2, [r3, #4]
  407ed2:	e00c      	b.n	407eee <_malloc_r+0x22e>
  407ed4:	2900      	cmp	r1, #0
  407ed6:	db0e      	blt.n	407ef6 <_malloc_r+0x236>
  407ed8:	eb05 0308 	add.w	r3, r5, r8
  407edc:	685a      	ldr	r2, [r3, #4]
  407ede:	f042 0201 	orr.w	r2, r2, #1
  407ee2:	605a      	str	r2, [r3, #4]
  407ee4:	68eb      	ldr	r3, [r5, #12]
  407ee6:	f855 2f08 	ldr.w	r2, [r5, #8]!
  407eea:	60d3      	str	r3, [r2, #12]
  407eec:	609a      	str	r2, [r3, #8]
  407eee:	4630      	mov	r0, r6
  407ef0:	f000 f90a 	bl	408108 <__malloc_unlock>
  407ef4:	e0d9      	b.n	4080aa <_malloc_r+0x3ea>
  407ef6:	68ed      	ldr	r5, [r5, #12]
  407ef8:	4575      	cmp	r5, lr
  407efa:	d1d0      	bne.n	407e9e <_malloc_r+0x1de>
  407efc:	3701      	adds	r7, #1
  407efe:	07b9      	lsls	r1, r7, #30
  407f00:	f105 0e08 	add.w	lr, r5, #8
  407f04:	d1c8      	bne.n	407e98 <_malloc_r+0x1d8>
  407f06:	4661      	mov	r1, ip
  407f08:	0795      	lsls	r5, r2, #30
  407f0a:	d104      	bne.n	407f16 <_malloc_r+0x256>
  407f0c:	6842      	ldr	r2, [r0, #4]
  407f0e:	ea22 0203 	bic.w	r2, r2, r3
  407f12:	6042      	str	r2, [r0, #4]
  407f14:	e005      	b.n	407f22 <_malloc_r+0x262>
  407f16:	f1a1 0508 	sub.w	r5, r1, #8
  407f1a:	6809      	ldr	r1, [r1, #0]
  407f1c:	3a01      	subs	r2, #1
  407f1e:	42a9      	cmp	r1, r5
  407f20:	d0f2      	beq.n	407f08 <_malloc_r+0x248>
  407f22:	6841      	ldr	r1, [r0, #4]
  407f24:	005b      	lsls	r3, r3, #1
  407f26:	428b      	cmp	r3, r1
  407f28:	d807      	bhi.n	407f3a <_malloc_r+0x27a>
  407f2a:	b133      	cbz	r3, 407f3a <_malloc_r+0x27a>
  407f2c:	463a      	mov	r2, r7
  407f2e:	e001      	b.n	407f34 <_malloc_r+0x274>
  407f30:	3204      	adds	r2, #4
  407f32:	005b      	lsls	r3, r3, #1
  407f34:	420b      	tst	r3, r1
  407f36:	d1ab      	bne.n	407e90 <_malloc_r+0x1d0>
  407f38:	e7fa      	b.n	407f30 <_malloc_r+0x270>
  407f3a:	4b0d      	ldr	r3, [pc, #52]	; (407f70 <_malloc_r+0x2b0>)
  407f3c:	689f      	ldr	r7, [r3, #8]
  407f3e:	687a      	ldr	r2, [r7, #4]
  407f40:	f022 0903 	bic.w	r9, r2, #3
  407f44:	45a1      	cmp	r9, r4
  407f46:	461a      	mov	r2, r3
  407f48:	d304      	bcc.n	407f54 <_malloc_r+0x294>
  407f4a:	ebc4 0309 	rsb	r3, r4, r9
  407f4e:	2b0f      	cmp	r3, #15
  407f50:	f300 809d 	bgt.w	40808e <_malloc_r+0x3ce>
  407f54:	4b07      	ldr	r3, [pc, #28]	; (407f74 <_malloc_r+0x2b4>)
  407f56:	eb07 0a09 	add.w	sl, r7, r9
  407f5a:	681b      	ldr	r3, [r3, #0]
  407f5c:	eb04 0803 	add.w	r8, r4, r3
  407f60:	f8d2 3408 	ldr.w	r3, [r2, #1032]	; 0x408
  407f64:	3301      	adds	r3, #1
  407f66:	d107      	bne.n	407f78 <_malloc_r+0x2b8>
  407f68:	f108 0810 	add.w	r8, r8, #16
  407f6c:	e00c      	b.n	407f88 <_malloc_r+0x2c8>
  407f6e:	bf00      	nop
  407f70:	200005bc 	.word	0x200005bc
  407f74:	20001014 	.word	0x20001014
  407f78:	f508 5880 	add.w	r8, r8, #4096	; 0x1000
  407f7c:	f108 080f 	add.w	r8, r8, #15
  407f80:	f428 687f 	bic.w	r8, r8, #4080	; 0xff0
  407f84:	f028 080f 	bic.w	r8, r8, #15
  407f88:	4630      	mov	r0, r6
  407f8a:	4641      	mov	r1, r8
  407f8c:	f000 fa2c 	bl	4083e8 <_sbrk_r>
  407f90:	1c42      	adds	r2, r0, #1
  407f92:	4605      	mov	r5, r0
  407f94:	d06b      	beq.n	40806e <_malloc_r+0x3ae>
  407f96:	4550      	cmp	r0, sl
  407f98:	d202      	bcs.n	407fa0 <_malloc_r+0x2e0>
  407f9a:	4b45      	ldr	r3, [pc, #276]	; (4080b0 <_malloc_r+0x3f0>)
  407f9c:	429f      	cmp	r7, r3
  407f9e:	d166      	bne.n	40806e <_malloc_r+0x3ae>
  407fa0:	4a44      	ldr	r2, [pc, #272]	; (4080b4 <_malloc_r+0x3f4>)
  407fa2:	4555      	cmp	r5, sl
  407fa4:	6853      	ldr	r3, [r2, #4]
  407fa6:	4443      	add	r3, r8
  407fa8:	6053      	str	r3, [r2, #4]
  407faa:	4a41      	ldr	r2, [pc, #260]	; (4080b0 <_malloc_r+0x3f0>)
  407fac:	d107      	bne.n	407fbe <_malloc_r+0x2fe>
  407fae:	0529      	lsls	r1, r5, #20
  407fb0:	d105      	bne.n	407fbe <_malloc_r+0x2fe>
  407fb2:	6893      	ldr	r3, [r2, #8]
  407fb4:	44c8      	add	r8, r9
  407fb6:	f048 0201 	orr.w	r2, r8, #1
  407fba:	605a      	str	r2, [r3, #4]
  407fbc:	e04c      	b.n	408058 <_malloc_r+0x398>
  407fbe:	f8d2 2408 	ldr.w	r2, [r2, #1032]	; 0x408
  407fc2:	3201      	adds	r2, #1
  407fc4:	d103      	bne.n	407fce <_malloc_r+0x30e>
  407fc6:	4b3a      	ldr	r3, [pc, #232]	; (4080b0 <_malloc_r+0x3f0>)
  407fc8:	f8c3 5408 	str.w	r5, [r3, #1032]	; 0x408
  407fcc:	e004      	b.n	407fd8 <_malloc_r+0x318>
  407fce:	ebca 0a05 	rsb	sl, sl, r5
  407fd2:	4a38      	ldr	r2, [pc, #224]	; (4080b4 <_malloc_r+0x3f4>)
  407fd4:	4453      	add	r3, sl
  407fd6:	6053      	str	r3, [r2, #4]
  407fd8:	f015 0307 	ands.w	r3, r5, #7
  407fdc:	bf1c      	itt	ne
  407fde:	f1c3 0308 	rsbne	r3, r3, #8
  407fe2:	18ed      	addne	r5, r5, r3
  407fe4:	44a8      	add	r8, r5
  407fe6:	f503 5380 	add.w	r3, r3, #4096	; 0x1000
  407fea:	ea4f 5808 	mov.w	r8, r8, lsl #20
  407fee:	eba3 5818 	sub.w	r8, r3, r8, lsr #20
  407ff2:	4641      	mov	r1, r8
  407ff4:	4630      	mov	r0, r6
  407ff6:	f000 f9f7 	bl	4083e8 <_sbrk_r>
  407ffa:	4a2e      	ldr	r2, [pc, #184]	; (4080b4 <_malloc_r+0x3f4>)
  407ffc:	1c43      	adds	r3, r0, #1
  407ffe:	6853      	ldr	r3, [r2, #4]
  408000:	bf04      	itt	eq
  408002:	f04f 0800 	moveq.w	r8, #0
  408006:	4628      	moveq	r0, r5
  408008:	4443      	add	r3, r8
  40800a:	6053      	str	r3, [r2, #4]
  40800c:	1b40      	subs	r0, r0, r5
  40800e:	4b28      	ldr	r3, [pc, #160]	; (4080b0 <_malloc_r+0x3f0>)
  408010:	4440      	add	r0, r8
  408012:	f040 0001 	orr.w	r0, r0, #1
  408016:	429f      	cmp	r7, r3
  408018:	609d      	str	r5, [r3, #8]
  40801a:	6068      	str	r0, [r5, #4]
  40801c:	d01c      	beq.n	408058 <_malloc_r+0x398>
  40801e:	f1b9 0f0f 	cmp.w	r9, #15
  408022:	d802      	bhi.n	40802a <_malloc_r+0x36a>
  408024:	2301      	movs	r3, #1
  408026:	606b      	str	r3, [r5, #4]
  408028:	e021      	b.n	40806e <_malloc_r+0x3ae>
  40802a:	687b      	ldr	r3, [r7, #4]
  40802c:	f1a9 090c 	sub.w	r9, r9, #12
  408030:	f029 0907 	bic.w	r9, r9, #7
  408034:	f003 0301 	and.w	r3, r3, #1
  408038:	ea49 0303 	orr.w	r3, r9, r3
  40803c:	607b      	str	r3, [r7, #4]
  40803e:	2205      	movs	r2, #5
  408040:	eb07 0309 	add.w	r3, r7, r9
  408044:	f1b9 0f0f 	cmp.w	r9, #15
  408048:	605a      	str	r2, [r3, #4]
  40804a:	609a      	str	r2, [r3, #8]
  40804c:	d904      	bls.n	408058 <_malloc_r+0x398>
  40804e:	4630      	mov	r0, r6
  408050:	f107 0108 	add.w	r1, r7, #8
  408054:	f7ff fb22 	bl	40769c <_free_r>
  408058:	4a16      	ldr	r2, [pc, #88]	; (4080b4 <_malloc_r+0x3f4>)
  40805a:	6853      	ldr	r3, [r2, #4]
  40805c:	6ad1      	ldr	r1, [r2, #44]	; 0x2c
  40805e:	428b      	cmp	r3, r1
  408060:	bf88      	it	hi
  408062:	62d3      	strhi	r3, [r2, #44]	; 0x2c
  408064:	6b12      	ldr	r2, [r2, #48]	; 0x30
  408066:	4293      	cmp	r3, r2
  408068:	bf84      	itt	hi
  40806a:	4a12      	ldrhi	r2, [pc, #72]	; (4080b4 <_malloc_r+0x3f4>)
  40806c:	6313      	strhi	r3, [r2, #48]	; 0x30
  40806e:	4b10      	ldr	r3, [pc, #64]	; (4080b0 <_malloc_r+0x3f0>)
  408070:	689b      	ldr	r3, [r3, #8]
  408072:	685a      	ldr	r2, [r3, #4]
  408074:	f022 0203 	bic.w	r2, r2, #3
  408078:	42a2      	cmp	r2, r4
  40807a:	ebc4 0302 	rsb	r3, r4, r2
  40807e:	d301      	bcc.n	408084 <_malloc_r+0x3c4>
  408080:	2b0f      	cmp	r3, #15
  408082:	dc04      	bgt.n	40808e <_malloc_r+0x3ce>
  408084:	4630      	mov	r0, r6
  408086:	f000 f83f 	bl	408108 <__malloc_unlock>
  40808a:	2500      	movs	r5, #0
  40808c:	e00d      	b.n	4080aa <_malloc_r+0x3ea>
  40808e:	4a08      	ldr	r2, [pc, #32]	; (4080b0 <_malloc_r+0x3f0>)
  408090:	f044 0101 	orr.w	r1, r4, #1
  408094:	6895      	ldr	r5, [r2, #8]
  408096:	f043 0301 	orr.w	r3, r3, #1
  40809a:	192c      	adds	r4, r5, r4
  40809c:	6069      	str	r1, [r5, #4]
  40809e:	6094      	str	r4, [r2, #8]
  4080a0:	6063      	str	r3, [r4, #4]
  4080a2:	4630      	mov	r0, r6
  4080a4:	f000 f830 	bl	408108 <__malloc_unlock>
  4080a8:	3508      	adds	r5, #8
  4080aa:	4628      	mov	r0, r5
  4080ac:	e8bd 87f0 	ldmia.w	sp!, {r4, r5, r6, r7, r8, r9, sl, pc}
  4080b0:	200005bc 	.word	0x200005bc
  4080b4:	20001014 	.word	0x20001014

004080b8 <memchr>:
  4080b8:	b510      	push	{r4, lr}
  4080ba:	b2c9      	uxtb	r1, r1
  4080bc:	4603      	mov	r3, r0
  4080be:	1882      	adds	r2, r0, r2
  4080c0:	e003      	b.n	4080ca <memchr+0x12>
  4080c2:	7804      	ldrb	r4, [r0, #0]
  4080c4:	3301      	adds	r3, #1
  4080c6:	428c      	cmp	r4, r1
  4080c8:	d003      	beq.n	4080d2 <memchr+0x1a>
  4080ca:	4293      	cmp	r3, r2
  4080cc:	4618      	mov	r0, r3
  4080ce:	d1f8      	bne.n	4080c2 <memchr+0xa>
  4080d0:	2000      	movs	r0, #0
  4080d2:	bd10      	pop	{r4, pc}

004080d4 <memmove>:
  4080d4:	4281      	cmp	r1, r0
  4080d6:	b510      	push	{r4, lr}
  4080d8:	d211      	bcs.n	4080fe <memmove+0x2a>
  4080da:	188c      	adds	r4, r1, r2
  4080dc:	42a0      	cmp	r0, r4
  4080de:	d20e      	bcs.n	4080fe <memmove+0x2a>
  4080e0:	4253      	negs	r3, r2
  4080e2:	1881      	adds	r1, r0, r2
  4080e4:	18e4      	adds	r4, r4, r3
  4080e6:	18cb      	adds	r3, r1, r3
  4080e8:	e001      	b.n	4080ee <memmove+0x1a>
  4080ea:	5ca1      	ldrb	r1, [r4, r2]
  4080ec:	5499      	strb	r1, [r3, r2]
  4080ee:	f112 32ff 	adds.w	r2, r2, #4294967295
  4080f2:	d2fa      	bcs.n	4080ea <memmove+0x16>
  4080f4:	bd10      	pop	{r4, pc}
  4080f6:	5ccc      	ldrb	r4, [r1, r3]
  4080f8:	54c4      	strb	r4, [r0, r3]
  4080fa:	3301      	adds	r3, #1
  4080fc:	e000      	b.n	408100 <memmove+0x2c>
  4080fe:	2300      	movs	r3, #0
  408100:	4293      	cmp	r3, r2
  408102:	d1f8      	bne.n	4080f6 <memmove+0x22>
  408104:	bd10      	pop	{r4, pc}

00408106 <__malloc_lock>:
  408106:	4770      	bx	lr

00408108 <__malloc_unlock>:
  408108:	4770      	bx	lr
	...

0040810c <_realloc_r>:
  40810c:	e92d 4ff8 	stmdb	sp!, {r3, r4, r5, r6, r7, r8, r9, sl, fp, lr}
  408110:	4681      	mov	r9, r0
  408112:	4616      	mov	r6, r2
  408114:	460c      	mov	r4, r1
  408116:	b921      	cbnz	r1, 408122 <_realloc_r+0x16>
  408118:	4611      	mov	r1, r2
  40811a:	e8bd 4ff8 	ldmia.w	sp!, {r3, r4, r5, r6, r7, r8, r9, sl, fp, lr}
  40811e:	f7ff bdcf 	b.w	407cc0 <_malloc_r>
  408122:	f7ff fff0 	bl	408106 <__malloc_lock>
  408126:	f106 070b 	add.w	r7, r6, #11
  40812a:	f854 5c04 	ldr.w	r5, [r4, #-4]
  40812e:	2f16      	cmp	r7, #22
  408130:	f1a4 0b08 	sub.w	fp, r4, #8
  408134:	f025 0803 	bic.w	r8, r5, #3
  408138:	d903      	bls.n	408142 <_realloc_r+0x36>
  40813a:	f037 0707 	bics.w	r7, r7, #7
  40813e:	d501      	bpl.n	408144 <_realloc_r+0x38>
  408140:	e002      	b.n	408148 <_realloc_r+0x3c>
  408142:	2710      	movs	r7, #16
  408144:	42b7      	cmp	r7, r6
  408146:	d204      	bcs.n	408152 <_realloc_r+0x46>
  408148:	230c      	movs	r3, #12
  40814a:	f8c9 3000 	str.w	r3, [r9]
  40814e:	2600      	movs	r6, #0
  408150:	e144      	b.n	4083dc <_realloc_r+0x2d0>
  408152:	45b8      	cmp	r8, r7
  408154:	f280 8119 	bge.w	40838a <_realloc_r+0x27e>
  408158:	4aa2      	ldr	r2, [pc, #648]	; (4083e4 <_realloc_r+0x2d8>)
  40815a:	eb0b 0308 	add.w	r3, fp, r8
  40815e:	6891      	ldr	r1, [r2, #8]
  408160:	428b      	cmp	r3, r1
  408162:	d006      	beq.n	408172 <_realloc_r+0x66>
  408164:	685a      	ldr	r2, [r3, #4]
  408166:	f022 0201 	bic.w	r2, r2, #1
  40816a:	189a      	adds	r2, r3, r2
  40816c:	6852      	ldr	r2, [r2, #4]
  40816e:	07d0      	lsls	r0, r2, #31
  408170:	d426      	bmi.n	4081c0 <_realloc_r+0xb4>
  408172:	685a      	ldr	r2, [r3, #4]
  408174:	428b      	cmp	r3, r1
  408176:	f022 0003 	bic.w	r0, r2, #3
  40817a:	eb00 0a08 	add.w	sl, r0, r8
  40817e:	d118      	bne.n	4081b2 <_realloc_r+0xa6>
  408180:	f107 0210 	add.w	r2, r7, #16
  408184:	4592      	cmp	sl, r2
  408186:	db1d      	blt.n	4081c4 <_realloc_r+0xb8>
  408188:	4b96      	ldr	r3, [pc, #600]	; (4083e4 <_realloc_r+0x2d8>)
  40818a:	eb0b 0507 	add.w	r5, fp, r7
  40818e:	ebc7 0a0a 	rsb	sl, r7, sl
  408192:	609d      	str	r5, [r3, #8]
  408194:	f04a 0301 	orr.w	r3, sl, #1
  408198:	606b      	str	r3, [r5, #4]
  40819a:	f854 3c04 	ldr.w	r3, [r4, #-4]
  40819e:	4648      	mov	r0, r9
  4081a0:	f003 0301 	and.w	r3, r3, #1
  4081a4:	431f      	orrs	r7, r3
  4081a6:	f844 7c04 	str.w	r7, [r4, #-4]
  4081aa:	f7ff ffad 	bl	408108 <__malloc_unlock>
  4081ae:	4626      	mov	r6, r4
  4081b0:	e114      	b.n	4083dc <_realloc_r+0x2d0>
  4081b2:	45ba      	cmp	sl, r7
  4081b4:	db06      	blt.n	4081c4 <_realloc_r+0xb8>
  4081b6:	68da      	ldr	r2, [r3, #12]
  4081b8:	689b      	ldr	r3, [r3, #8]
  4081ba:	60da      	str	r2, [r3, #12]
  4081bc:	6093      	str	r3, [r2, #8]
  4081be:	e0e5      	b.n	40838c <_realloc_r+0x280>
  4081c0:	2000      	movs	r0, #0
  4081c2:	4603      	mov	r3, r0
  4081c4:	07ea      	lsls	r2, r5, #31
  4081c6:	f100 8091 	bmi.w	4082ec <_realloc_r+0x1e0>
  4081ca:	f854 5c08 	ldr.w	r5, [r4, #-8]
  4081ce:	ebc5 050b 	rsb	r5, r5, fp
  4081d2:	686a      	ldr	r2, [r5, #4]
  4081d4:	f022 0203 	bic.w	r2, r2, #3
  4081d8:	2b00      	cmp	r3, #0
  4081da:	d051      	beq.n	408280 <_realloc_r+0x174>
  4081dc:	eb02 0a08 	add.w	sl, r2, r8
  4081e0:	428b      	cmp	r3, r1
  4081e2:	4482      	add	sl, r0
  4081e4:	d145      	bne.n	408272 <_realloc_r+0x166>
  4081e6:	f107 0310 	add.w	r3, r7, #16
  4081ea:	459a      	cmp	sl, r3
  4081ec:	db48      	blt.n	408280 <_realloc_r+0x174>
  4081ee:	462e      	mov	r6, r5
  4081f0:	f856 2f08 	ldr.w	r2, [r6, #8]!
  4081f4:	68eb      	ldr	r3, [r5, #12]
  4081f6:	60d3      	str	r3, [r2, #12]
  4081f8:	609a      	str	r2, [r3, #8]
  4081fa:	f1a8 0204 	sub.w	r2, r8, #4
  4081fe:	2a24      	cmp	r2, #36	; 0x24
  408200:	d825      	bhi.n	40824e <_realloc_r+0x142>
  408202:	2a13      	cmp	r2, #19
  408204:	d91b      	bls.n	40823e <_realloc_r+0x132>
  408206:	6823      	ldr	r3, [r4, #0]
  408208:	2a1b      	cmp	r2, #27
  40820a:	60ab      	str	r3, [r5, #8]
  40820c:	6863      	ldr	r3, [r4, #4]
  40820e:	60eb      	str	r3, [r5, #12]
  408210:	d803      	bhi.n	40821a <_realloc_r+0x10e>
  408212:	f105 0310 	add.w	r3, r5, #16
  408216:	3408      	adds	r4, #8
  408218:	e012      	b.n	408240 <_realloc_r+0x134>
  40821a:	68a3      	ldr	r3, [r4, #8]
  40821c:	2a24      	cmp	r2, #36	; 0x24
  40821e:	612b      	str	r3, [r5, #16]
  408220:	68e3      	ldr	r3, [r4, #12]
  408222:	616b      	str	r3, [r5, #20]
  408224:	d003      	beq.n	40822e <_realloc_r+0x122>
  408226:	f105 0318 	add.w	r3, r5, #24
  40822a:	3410      	adds	r4, #16
  40822c:	e008      	b.n	408240 <_realloc_r+0x134>
  40822e:	6923      	ldr	r3, [r4, #16]
  408230:	61ab      	str	r3, [r5, #24]
  408232:	6963      	ldr	r3, [r4, #20]
  408234:	3418      	adds	r4, #24
  408236:	61eb      	str	r3, [r5, #28]
  408238:	f105 0320 	add.w	r3, r5, #32
  40823c:	e000      	b.n	408240 <_realloc_r+0x134>
  40823e:	4633      	mov	r3, r6
  408240:	6822      	ldr	r2, [r4, #0]
  408242:	601a      	str	r2, [r3, #0]
  408244:	6862      	ldr	r2, [r4, #4]
  408246:	605a      	str	r2, [r3, #4]
  408248:	68a2      	ldr	r2, [r4, #8]
  40824a:	609a      	str	r2, [r3, #8]
  40824c:	e003      	b.n	408256 <_realloc_r+0x14a>
  40824e:	4630      	mov	r0, r6
  408250:	4621      	mov	r1, r4
  408252:	f7ff ff3f 	bl	4080d4 <memmove>
  408256:	4a63      	ldr	r2, [pc, #396]	; (4083e4 <_realloc_r+0x2d8>)
  408258:	19eb      	adds	r3, r5, r7
  40825a:	ebc7 0a0a 	rsb	sl, r7, sl
  40825e:	6093      	str	r3, [r2, #8]
  408260:	f04a 0201 	orr.w	r2, sl, #1
  408264:	605a      	str	r2, [r3, #4]
  408266:	686b      	ldr	r3, [r5, #4]
  408268:	f003 0301 	and.w	r3, r3, #1
  40826c:	431f      	orrs	r7, r3
  40826e:	606f      	str	r7, [r5, #4]
  408270:	e087      	b.n	408382 <_realloc_r+0x276>
  408272:	45ba      	cmp	sl, r7
  408274:	db04      	blt.n	408280 <_realloc_r+0x174>
  408276:	68da      	ldr	r2, [r3, #12]
  408278:	689b      	ldr	r3, [r3, #8]
  40827a:	60da      	str	r2, [r3, #12]
  40827c:	6093      	str	r3, [r2, #8]
  40827e:	e003      	b.n	408288 <_realloc_r+0x17c>
  408280:	eb02 0a08 	add.w	sl, r2, r8
  408284:	45ba      	cmp	sl, r7
  408286:	db31      	blt.n	4082ec <_realloc_r+0x1e0>
  408288:	4628      	mov	r0, r5
  40828a:	f850 2f08 	ldr.w	r2, [r0, #8]!
  40828e:	68eb      	ldr	r3, [r5, #12]
  408290:	60d3      	str	r3, [r2, #12]
  408292:	609a      	str	r2, [r3, #8]
  408294:	f1a8 0204 	sub.w	r2, r8, #4
  408298:	2a24      	cmp	r2, #36	; 0x24
  40829a:	d823      	bhi.n	4082e4 <_realloc_r+0x1d8>
  40829c:	2a13      	cmp	r2, #19
  40829e:	d91a      	bls.n	4082d6 <_realloc_r+0x1ca>
  4082a0:	6823      	ldr	r3, [r4, #0]
  4082a2:	2a1b      	cmp	r2, #27
  4082a4:	60ab      	str	r3, [r5, #8]
  4082a6:	6863      	ldr	r3, [r4, #4]
  4082a8:	60eb      	str	r3, [r5, #12]
  4082aa:	d803      	bhi.n	4082b4 <_realloc_r+0x1a8>
  4082ac:	f105 0010 	add.w	r0, r5, #16
  4082b0:	3408      	adds	r4, #8
  4082b2:	e010      	b.n	4082d6 <_realloc_r+0x1ca>
  4082b4:	68a3      	ldr	r3, [r4, #8]
  4082b6:	2a24      	cmp	r2, #36	; 0x24
  4082b8:	612b      	str	r3, [r5, #16]
  4082ba:	68e3      	ldr	r3, [r4, #12]
  4082bc:	616b      	str	r3, [r5, #20]
  4082be:	d003      	beq.n	4082c8 <_realloc_r+0x1bc>
  4082c0:	f105 0018 	add.w	r0, r5, #24
  4082c4:	3410      	adds	r4, #16
  4082c6:	e006      	b.n	4082d6 <_realloc_r+0x1ca>
  4082c8:	6923      	ldr	r3, [r4, #16]
  4082ca:	f105 0020 	add.w	r0, r5, #32
  4082ce:	61ab      	str	r3, [r5, #24]
  4082d0:	6963      	ldr	r3, [r4, #20]
  4082d2:	3418      	adds	r4, #24
  4082d4:	61eb      	str	r3, [r5, #28]
  4082d6:	6823      	ldr	r3, [r4, #0]
  4082d8:	6003      	str	r3, [r0, #0]
  4082da:	6863      	ldr	r3, [r4, #4]
  4082dc:	6043      	str	r3, [r0, #4]
  4082de:	68a3      	ldr	r3, [r4, #8]
  4082e0:	6083      	str	r3, [r0, #8]
  4082e2:	e054      	b.n	40838e <_realloc_r+0x282>
  4082e4:	4621      	mov	r1, r4
  4082e6:	f7ff fef5 	bl	4080d4 <memmove>
  4082ea:	e050      	b.n	40838e <_realloc_r+0x282>
  4082ec:	4631      	mov	r1, r6
  4082ee:	4648      	mov	r0, r9
  4082f0:	f7ff fce6 	bl	407cc0 <_malloc_r>
  4082f4:	4606      	mov	r6, r0
  4082f6:	b900      	cbnz	r0, 4082fa <_realloc_r+0x1ee>
  4082f8:	e043      	b.n	408382 <_realloc_r+0x276>
  4082fa:	f854 3c04 	ldr.w	r3, [r4, #-4]
  4082fe:	f1a0 0208 	sub.w	r2, r0, #8
  408302:	f023 0301 	bic.w	r3, r3, #1
  408306:	445b      	add	r3, fp
  408308:	429a      	cmp	r2, r3
  40830a:	d105      	bne.n	408318 <_realloc_r+0x20c>
  40830c:	f850 3c04 	ldr.w	r3, [r0, #-4]
  408310:	f023 0a03 	bic.w	sl, r3, #3
  408314:	44c2      	add	sl, r8
  408316:	e039      	b.n	40838c <_realloc_r+0x280>
  408318:	f1a8 0204 	sub.w	r2, r8, #4
  40831c:	2a24      	cmp	r2, #36	; 0x24
  40831e:	d829      	bhi.n	408374 <_realloc_r+0x268>
  408320:	2a13      	cmp	r2, #19
  408322:	d91e      	bls.n	408362 <_realloc_r+0x256>
  408324:	6823      	ldr	r3, [r4, #0]
  408326:	2a1b      	cmp	r2, #27
  408328:	6003      	str	r3, [r0, #0]
  40832a:	6863      	ldr	r3, [r4, #4]
  40832c:	6043      	str	r3, [r0, #4]
  40832e:	d804      	bhi.n	40833a <_realloc_r+0x22e>
  408330:	f100 0308 	add.w	r3, r0, #8
  408334:	f104 0208 	add.w	r2, r4, #8
  408338:	e015      	b.n	408366 <_realloc_r+0x25a>
  40833a:	68a3      	ldr	r3, [r4, #8]
  40833c:	2a24      	cmp	r2, #36	; 0x24
  40833e:	6083      	str	r3, [r0, #8]
  408340:	68e3      	ldr	r3, [r4, #12]
  408342:	60c3      	str	r3, [r0, #12]
  408344:	d004      	beq.n	408350 <_realloc_r+0x244>
  408346:	f100 0310 	add.w	r3, r0, #16
  40834a:	f104 0210 	add.w	r2, r4, #16
  40834e:	e00a      	b.n	408366 <_realloc_r+0x25a>
  408350:	6923      	ldr	r3, [r4, #16]
  408352:	f104 0218 	add.w	r2, r4, #24
  408356:	6103      	str	r3, [r0, #16]
  408358:	6963      	ldr	r3, [r4, #20]
  40835a:	6143      	str	r3, [r0, #20]
  40835c:	f100 0318 	add.w	r3, r0, #24
  408360:	e001      	b.n	408366 <_realloc_r+0x25a>
  408362:	4603      	mov	r3, r0
  408364:	4622      	mov	r2, r4
  408366:	6811      	ldr	r1, [r2, #0]
  408368:	6019      	str	r1, [r3, #0]
  40836a:	6851      	ldr	r1, [r2, #4]
  40836c:	6059      	str	r1, [r3, #4]
  40836e:	6892      	ldr	r2, [r2, #8]
  408370:	609a      	str	r2, [r3, #8]
  408372:	e002      	b.n	40837a <_realloc_r+0x26e>
  408374:	4621      	mov	r1, r4
  408376:	f7ff fead 	bl	4080d4 <memmove>
  40837a:	4648      	mov	r0, r9
  40837c:	4621      	mov	r1, r4
  40837e:	f7ff f98d 	bl	40769c <_free_r>
  408382:	4648      	mov	r0, r9
  408384:	f7ff fec0 	bl	408108 <__malloc_unlock>
  408388:	e028      	b.n	4083dc <_realloc_r+0x2d0>
  40838a:	46c2      	mov	sl, r8
  40838c:	465d      	mov	r5, fp
  40838e:	ebc7 030a 	rsb	r3, r7, sl
  408392:	2b0f      	cmp	r3, #15
  408394:	686a      	ldr	r2, [r5, #4]
  408396:	d911      	bls.n	4083bc <_realloc_r+0x2b0>
  408398:	f002 0201 	and.w	r2, r2, #1
  40839c:	19e9      	adds	r1, r5, r7
  40839e:	4317      	orrs	r7, r2
  4083a0:	f043 0201 	orr.w	r2, r3, #1
  4083a4:	606f      	str	r7, [r5, #4]
  4083a6:	18cb      	adds	r3, r1, r3
  4083a8:	604a      	str	r2, [r1, #4]
  4083aa:	685a      	ldr	r2, [r3, #4]
  4083ac:	4648      	mov	r0, r9
  4083ae:	f042 0201 	orr.w	r2, r2, #1
  4083b2:	605a      	str	r2, [r3, #4]
  4083b4:	3108      	adds	r1, #8
  4083b6:	f7ff f971 	bl	40769c <_free_r>
  4083ba:	e00a      	b.n	4083d2 <_realloc_r+0x2c6>
  4083bc:	f002 0201 	and.w	r2, r2, #1
  4083c0:	ea4a 0202 	orr.w	r2, sl, r2
  4083c4:	606a      	str	r2, [r5, #4]
  4083c6:	eb05 030a 	add.w	r3, r5, sl
  4083ca:	685a      	ldr	r2, [r3, #4]
  4083cc:	f042 0201 	orr.w	r2, r2, #1
  4083d0:	605a      	str	r2, [r3, #4]
  4083d2:	4648      	mov	r0, r9
  4083d4:	f7ff fe98 	bl	408108 <__malloc_unlock>
  4083d8:	f105 0608 	add.w	r6, r5, #8
  4083dc:	4630      	mov	r0, r6
  4083de:	e8bd 8ff8 	ldmia.w	sp!, {r3, r4, r5, r6, r7, r8, r9, sl, fp, pc}
  4083e2:	bf00      	nop
  4083e4:	200005bc 	.word	0x200005bc

004083e8 <_sbrk_r>:
  4083e8:	b538      	push	{r3, r4, r5, lr}
  4083ea:	4c06      	ldr	r4, [pc, #24]	; (408404 <_sbrk_r+0x1c>)
  4083ec:	2300      	movs	r3, #0
  4083ee:	4605      	mov	r5, r0
  4083f0:	4608      	mov	r0, r1
  4083f2:	6023      	str	r3, [r4, #0]
  4083f4:	f7fb fda8 	bl	403f48 <_sbrk>
  4083f8:	1c43      	adds	r3, r0, #1
  4083fa:	d102      	bne.n	408402 <_sbrk_r+0x1a>
  4083fc:	6823      	ldr	r3, [r4, #0]
  4083fe:	b103      	cbz	r3, 408402 <_sbrk_r+0x1a>
  408400:	602b      	str	r3, [r5, #0]
  408402:	bd38      	pop	{r3, r4, r5, pc}
  408404:	20001744 	.word	0x20001744

00408408 <_init_signal_r>:
  408408:	b538      	push	{r3, r4, r5, lr}
  40840a:	f8d0 52dc 	ldr.w	r5, [r0, #732]	; 0x2dc
  40840e:	4604      	mov	r4, r0
  408410:	b10d      	cbz	r5, 408416 <_init_signal_r+0xe>
  408412:	2000      	movs	r0, #0
  408414:	bd38      	pop	{r3, r4, r5, pc}
  408416:	2180      	movs	r1, #128	; 0x80
  408418:	f7ff fc52 	bl	407cc0 <_malloc_r>
  40841c:	f8c4 02dc 	str.w	r0, [r4, #732]	; 0x2dc
  408420:	b140      	cbz	r0, 408434 <_init_signal_r+0x2c>
  408422:	462b      	mov	r3, r5
  408424:	4629      	mov	r1, r5
  408426:	f8d4 22dc 	ldr.w	r2, [r4, #732]	; 0x2dc
  40842a:	50d1      	str	r1, [r2, r3]
  40842c:	3304      	adds	r3, #4
  40842e:	2b80      	cmp	r3, #128	; 0x80
  408430:	d1f9      	bne.n	408426 <_init_signal_r+0x1e>
  408432:	e7ee      	b.n	408412 <_init_signal_r+0xa>
  408434:	f04f 30ff 	mov.w	r0, #4294967295
  408438:	bd38      	pop	{r3, r4, r5, pc}

0040843a <_signal_r>:
  40843a:	291f      	cmp	r1, #31
  40843c:	b570      	push	{r4, r5, r6, lr}
  40843e:	4604      	mov	r4, r0
  408440:	460d      	mov	r5, r1
  408442:	4616      	mov	r6, r2
  408444:	d902      	bls.n	40844c <_signal_r+0x12>
  408446:	2316      	movs	r3, #22
  408448:	6003      	str	r3, [r0, #0]
  40844a:	e00d      	b.n	408468 <_signal_r+0x2e>
  40844c:	f8d0 32dc 	ldr.w	r3, [r0, #732]	; 0x2dc
  408450:	b133      	cbz	r3, 408460 <_signal_r+0x26>
  408452:	f8d4 32dc 	ldr.w	r3, [r4, #732]	; 0x2dc
  408456:	f853 0025 	ldr.w	r0, [r3, r5, lsl #2]
  40845a:	f843 6025 	str.w	r6, [r3, r5, lsl #2]
  40845e:	bd70      	pop	{r4, r5, r6, pc}
  408460:	f7ff ffd2 	bl	408408 <_init_signal_r>
  408464:	2800      	cmp	r0, #0
  408466:	d0f4      	beq.n	408452 <_signal_r+0x18>
  408468:	f04f 30ff 	mov.w	r0, #4294967295
  40846c:	bd70      	pop	{r4, r5, r6, pc}

0040846e <_raise_r>:
  40846e:	291f      	cmp	r1, #31
  408470:	b538      	push	{r3, r4, r5, lr}
  408472:	4605      	mov	r5, r0
  408474:	460c      	mov	r4, r1
  408476:	d904      	bls.n	408482 <_raise_r+0x14>
  408478:	2316      	movs	r3, #22
  40847a:	6003      	str	r3, [r0, #0]
  40847c:	f04f 30ff 	mov.w	r0, #4294967295
  408480:	bd38      	pop	{r3, r4, r5, pc}
  408482:	f8d0 22dc 	ldr.w	r2, [r0, #732]	; 0x2dc
  408486:	b112      	cbz	r2, 40848e <_raise_r+0x20>
  408488:	f852 3021 	ldr.w	r3, [r2, r1, lsl #2]
  40848c:	b94b      	cbnz	r3, 4084a2 <_raise_r+0x34>
  40848e:	4628      	mov	r0, r5
  408490:	f000 f86e 	bl	408570 <_getpid_r>
  408494:	4622      	mov	r2, r4
  408496:	4601      	mov	r1, r0
  408498:	4628      	mov	r0, r5
  40849a:	e8bd 4038 	ldmia.w	sp!, {r3, r4, r5, lr}
  40849e:	f000 b855 	b.w	40854c <_kill_r>
  4084a2:	2b01      	cmp	r3, #1
  4084a4:	d00a      	beq.n	4084bc <_raise_r+0x4e>
  4084a6:	1c59      	adds	r1, r3, #1
  4084a8:	d103      	bne.n	4084b2 <_raise_r+0x44>
  4084aa:	2316      	movs	r3, #22
  4084ac:	6003      	str	r3, [r0, #0]
  4084ae:	2001      	movs	r0, #1
  4084b0:	bd38      	pop	{r3, r4, r5, pc}
  4084b2:	2500      	movs	r5, #0
  4084b4:	f842 5024 	str.w	r5, [r2, r4, lsl #2]
  4084b8:	4620      	mov	r0, r4
  4084ba:	4798      	blx	r3
  4084bc:	2000      	movs	r0, #0
  4084be:	bd38      	pop	{r3, r4, r5, pc}

004084c0 <__sigtramp_r>:
  4084c0:	291f      	cmp	r1, #31
  4084c2:	b538      	push	{r3, r4, r5, lr}
  4084c4:	4605      	mov	r5, r0
  4084c6:	460c      	mov	r4, r1
  4084c8:	d902      	bls.n	4084d0 <__sigtramp_r+0x10>
  4084ca:	f04f 30ff 	mov.w	r0, #4294967295
  4084ce:	bd38      	pop	{r3, r4, r5, pc}
  4084d0:	f8d0 32dc 	ldr.w	r3, [r0, #732]	; 0x2dc
  4084d4:	b12b      	cbz	r3, 4084e2 <__sigtramp_r+0x22>
  4084d6:	f8d5 22dc 	ldr.w	r2, [r5, #732]	; 0x2dc
  4084da:	f852 3024 	ldr.w	r3, [r2, r4, lsl #2]
  4084de:	b92b      	cbnz	r3, 4084ec <__sigtramp_r+0x2c>
  4084e0:	e00f      	b.n	408502 <__sigtramp_r+0x42>
  4084e2:	f7ff ff91 	bl	408408 <_init_signal_r>
  4084e6:	2800      	cmp	r0, #0
  4084e8:	d0f5      	beq.n	4084d6 <__sigtramp_r+0x16>
  4084ea:	e7ee      	b.n	4084ca <__sigtramp_r+0xa>
  4084ec:	1c58      	adds	r0, r3, #1
  4084ee:	d00a      	beq.n	408506 <__sigtramp_r+0x46>
  4084f0:	2b01      	cmp	r3, #1
  4084f2:	d00a      	beq.n	40850a <__sigtramp_r+0x4a>
  4084f4:	2500      	movs	r5, #0
  4084f6:	4620      	mov	r0, r4
  4084f8:	f842 5024 	str.w	r5, [r2, r4, lsl #2]
  4084fc:	4798      	blx	r3
  4084fe:	4628      	mov	r0, r5
  408500:	bd38      	pop	{r3, r4, r5, pc}
  408502:	2001      	movs	r0, #1
  408504:	bd38      	pop	{r3, r4, r5, pc}
  408506:	2002      	movs	r0, #2
  408508:	bd38      	pop	{r3, r4, r5, pc}
  40850a:	2003      	movs	r0, #3
  40850c:	bd38      	pop	{r3, r4, r5, pc}

0040850e <raise>:
  40850e:	4b02      	ldr	r3, [pc, #8]	; (408518 <raise+0xa>)
  408510:	4601      	mov	r1, r0
  408512:	6818      	ldr	r0, [r3, #0]
  408514:	f7ff bfab 	b.w	40846e <_raise_r>
  408518:	20000110 	.word	0x20000110

0040851c <signal>:
  40851c:	460a      	mov	r2, r1
  40851e:	4903      	ldr	r1, [pc, #12]	; (40852c <signal+0x10>)
  408520:	4603      	mov	r3, r0
  408522:	6808      	ldr	r0, [r1, #0]
  408524:	4619      	mov	r1, r3
  408526:	f7ff bf88 	b.w	40843a <_signal_r>
  40852a:	bf00      	nop
  40852c:	20000110 	.word	0x20000110

00408530 <_init_signal>:
  408530:	4b01      	ldr	r3, [pc, #4]	; (408538 <_init_signal+0x8>)
  408532:	6818      	ldr	r0, [r3, #0]
  408534:	f7ff bf68 	b.w	408408 <_init_signal_r>
  408538:	20000110 	.word	0x20000110

0040853c <__sigtramp>:
  40853c:	4b02      	ldr	r3, [pc, #8]	; (408548 <__sigtramp+0xc>)
  40853e:	4601      	mov	r1, r0
  408540:	6818      	ldr	r0, [r3, #0]
  408542:	f7ff bfbd 	b.w	4084c0 <__sigtramp_r>
  408546:	bf00      	nop
  408548:	20000110 	.word	0x20000110

0040854c <_kill_r>:
  40854c:	b538      	push	{r3, r4, r5, lr}
  40854e:	4c07      	ldr	r4, [pc, #28]	; (40856c <_kill_r+0x20>)
  408550:	2300      	movs	r3, #0
  408552:	4605      	mov	r5, r0
  408554:	4608      	mov	r0, r1
  408556:	4611      	mov	r1, r2
  408558:	6023      	str	r3, [r4, #0]
  40855a:	f7fb fd19 	bl	403f90 <_kill>
  40855e:	1c43      	adds	r3, r0, #1
  408560:	d102      	bne.n	408568 <_kill_r+0x1c>
  408562:	6823      	ldr	r3, [r4, #0]
  408564:	b103      	cbz	r3, 408568 <_kill_r+0x1c>
  408566:	602b      	str	r3, [r5, #0]
  408568:	bd38      	pop	{r3, r4, r5, pc}
  40856a:	bf00      	nop
  40856c:	20001744 	.word	0x20001744

00408570 <_getpid_r>:
  408570:	f7fb bd0f 	b.w	403f92 <_getpid>

00408574 <__sread>:
  408574:	b510      	push	{r4, lr}
  408576:	460c      	mov	r4, r1
  408578:	f9b1 100e 	ldrsh.w	r1, [r1, #14]
  40857c:	f000 f942 	bl	408804 <_read_r>
  408580:	2800      	cmp	r0, #0
  408582:	db03      	blt.n	40858c <__sread+0x18>
  408584:	6d23      	ldr	r3, [r4, #80]	; 0x50
  408586:	181b      	adds	r3, r3, r0
  408588:	6523      	str	r3, [r4, #80]	; 0x50
  40858a:	bd10      	pop	{r4, pc}
  40858c:	89a3      	ldrh	r3, [r4, #12]
  40858e:	f423 5380 	bic.w	r3, r3, #4096	; 0x1000
  408592:	81a3      	strh	r3, [r4, #12]
  408594:	bd10      	pop	{r4, pc}

00408596 <__seofread>:
  408596:	2000      	movs	r0, #0
  408598:	4770      	bx	lr

0040859a <__swrite>:
  40859a:	e92d 41f0 	stmdb	sp!, {r4, r5, r6, r7, r8, lr}
  40859e:	461d      	mov	r5, r3
  4085a0:	898b      	ldrh	r3, [r1, #12]
  4085a2:	4607      	mov	r7, r0
  4085a4:	f403 7380 	and.w	r3, r3, #256	; 0x100
  4085a8:	b21b      	sxth	r3, r3
  4085aa:	460c      	mov	r4, r1
  4085ac:	4616      	mov	r6, r2
  4085ae:	b12b      	cbz	r3, 4085bc <__swrite+0x22>
  4085b0:	f9b1 100e 	ldrsh.w	r1, [r1, #14]
  4085b4:	2200      	movs	r2, #0
  4085b6:	2302      	movs	r3, #2
  4085b8:	f000 f912 	bl	4087e0 <_lseek_r>
  4085bc:	89a3      	ldrh	r3, [r4, #12]
  4085be:	f9b4 100e 	ldrsh.w	r1, [r4, #14]
  4085c2:	f423 5380 	bic.w	r3, r3, #4096	; 0x1000
  4085c6:	81a3      	strh	r3, [r4, #12]
  4085c8:	4638      	mov	r0, r7
  4085ca:	4632      	mov	r2, r6
  4085cc:	462b      	mov	r3, r5
  4085ce:	e8bd 41f0 	ldmia.w	sp!, {r4, r5, r6, r7, r8, lr}
  4085d2:	f000 b877 	b.w	4086c4 <_write_r>

004085d6 <__sseek>:
  4085d6:	b510      	push	{r4, lr}
  4085d8:	460c      	mov	r4, r1
  4085da:	f9b1 100e 	ldrsh.w	r1, [r1, #14]
  4085de:	f000 f8ff 	bl	4087e0 <_lseek_r>
  4085e2:	1c43      	adds	r3, r0, #1
  4085e4:	89a3      	ldrh	r3, [r4, #12]
  4085e6:	d103      	bne.n	4085f0 <__sseek+0x1a>
  4085e8:	f423 5380 	bic.w	r3, r3, #4096	; 0x1000
  4085ec:	81a3      	strh	r3, [r4, #12]
  4085ee:	bd10      	pop	{r4, pc}
  4085f0:	f443 5380 	orr.w	r3, r3, #4096	; 0x1000
  4085f4:	81a3      	strh	r3, [r4, #12]
  4085f6:	6520      	str	r0, [r4, #80]	; 0x50
  4085f8:	bd10      	pop	{r4, pc}

004085fa <__sclose>:
  4085fa:	f9b1 100e 	ldrsh.w	r1, [r1, #14]
  4085fe:	f000 b873 	b.w	4086e8 <_close_r>

00408602 <strcmp>:
  408602:	f810 2b01 	ldrb.w	r2, [r0], #1
  408606:	f811 3b01 	ldrb.w	r3, [r1], #1
  40860a:	2a01      	cmp	r2, #1
  40860c:	bf28      	it	cs
  40860e:	429a      	cmpcs	r2, r3
  408610:	d0f7      	beq.n	408602 <strcmp>
  408612:	eba2 0003 	sub.w	r0, r2, r3
  408616:	4770      	bx	lr

00408618 <_wcrtomb_r>:
  408618:	e92d 41f0 	stmdb	sp!, {r4, r5, r6, r7, r8, lr}
  40861c:	461d      	mov	r5, r3
  40861e:	4b10      	ldr	r3, [pc, #64]	; (408660 <_wcrtomb_r+0x48>)
  408620:	b086      	sub	sp, #24
  408622:	4604      	mov	r4, r0
  408624:	4690      	mov	r8, r2
  408626:	460e      	mov	r6, r1
  408628:	681f      	ldr	r7, [r3, #0]
  40862a:	b939      	cbnz	r1, 40863c <_wcrtomb_r+0x24>
  40862c:	f7ff faaa 	bl	407b84 <__locale_charset>
  408630:	9500      	str	r5, [sp, #0]
  408632:	4603      	mov	r3, r0
  408634:	a903      	add	r1, sp, #12
  408636:	4620      	mov	r0, r4
  408638:	4632      	mov	r2, r6
  40863a:	e006      	b.n	40864a <_wcrtomb_r+0x32>
  40863c:	f7ff faa2 	bl	407b84 <__locale_charset>
  408640:	9500      	str	r5, [sp, #0]
  408642:	4603      	mov	r3, r0
  408644:	4631      	mov	r1, r6
  408646:	4620      	mov	r0, r4
  408648:	4642      	mov	r2, r8
  40864a:	47b8      	blx	r7
  40864c:	1c43      	adds	r3, r0, #1
  40864e:	d103      	bne.n	408658 <_wcrtomb_r+0x40>
  408650:	2300      	movs	r3, #0
  408652:	602b      	str	r3, [r5, #0]
  408654:	238a      	movs	r3, #138	; 0x8a
  408656:	6023      	str	r3, [r4, #0]
  408658:	b006      	add	sp, #24
  40865a:	e8bd 81f0 	ldmia.w	sp!, {r4, r5, r6, r7, r8, pc}
  40865e:	bf00      	nop
  408660:	200009cc 	.word	0x200009cc

00408664 <wcrtomb>:
  408664:	b530      	push	{r4, r5, lr}
  408666:	4613      	mov	r3, r2
  408668:	4a04      	ldr	r2, [pc, #16]	; (40867c <wcrtomb+0x18>)
  40866a:	4605      	mov	r5, r0
  40866c:	460c      	mov	r4, r1
  40866e:	6810      	ldr	r0, [r2, #0]
  408670:	4629      	mov	r1, r5
  408672:	4622      	mov	r2, r4
  408674:	e8bd 4030 	ldmia.w	sp!, {r4, r5, lr}
  408678:	f7ff bfce 	b.w	408618 <_wcrtomb_r>
  40867c:	20000110 	.word	0x20000110

00408680 <__ascii_wctomb>:
  408680:	b149      	cbz	r1, 408696 <__ascii_wctomb+0x16>
  408682:	2aff      	cmp	r2, #255	; 0xff
  408684:	d904      	bls.n	408690 <__ascii_wctomb+0x10>
  408686:	238a      	movs	r3, #138	; 0x8a
  408688:	6003      	str	r3, [r0, #0]
  40868a:	f04f 30ff 	mov.w	r0, #4294967295
  40868e:	4770      	bx	lr
  408690:	700a      	strb	r2, [r1, #0]
  408692:	2001      	movs	r0, #1
  408694:	4770      	bx	lr
  408696:	4608      	mov	r0, r1
  408698:	4770      	bx	lr

0040869a <_wctomb_r>:
  40869a:	e92d 41f3 	stmdb	sp!, {r0, r1, r4, r5, r6, r7, r8, lr}
  40869e:	4698      	mov	r8, r3
  4086a0:	4b07      	ldr	r3, [pc, #28]	; (4086c0 <_wctomb_r+0x26>)
  4086a2:	4605      	mov	r5, r0
  4086a4:	460f      	mov	r7, r1
  4086a6:	4616      	mov	r6, r2
  4086a8:	681c      	ldr	r4, [r3, #0]
  4086aa:	f7ff fa6b 	bl	407b84 <__locale_charset>
  4086ae:	f8cd 8000 	str.w	r8, [sp]
  4086b2:	4603      	mov	r3, r0
  4086b4:	4639      	mov	r1, r7
  4086b6:	4628      	mov	r0, r5
  4086b8:	4632      	mov	r2, r6
  4086ba:	47a0      	blx	r4
  4086bc:	e8bd 81fc 	ldmia.w	sp!, {r2, r3, r4, r5, r6, r7, r8, pc}
  4086c0:	200009cc 	.word	0x200009cc

004086c4 <_write_r>:
  4086c4:	b538      	push	{r3, r4, r5, lr}
  4086c6:	4c07      	ldr	r4, [pc, #28]	; (4086e4 <_write_r+0x20>)
  4086c8:	4605      	mov	r5, r0
  4086ca:	2000      	movs	r0, #0
  4086cc:	6020      	str	r0, [r4, #0]
  4086ce:	4608      	mov	r0, r1
  4086d0:	4611      	mov	r1, r2
  4086d2:	461a      	mov	r2, r3
  4086d4:	f7f9 fd96 	bl	402204 <_write>
  4086d8:	1c43      	adds	r3, r0, #1
  4086da:	d102      	bne.n	4086e2 <_write_r+0x1e>
  4086dc:	6823      	ldr	r3, [r4, #0]
  4086de:	b103      	cbz	r3, 4086e2 <_write_r+0x1e>
  4086e0:	602b      	str	r3, [r5, #0]
  4086e2:	bd38      	pop	{r3, r4, r5, pc}
  4086e4:	20001744 	.word	0x20001744

004086e8 <_close_r>:
  4086e8:	b538      	push	{r3, r4, r5, lr}
  4086ea:	4c06      	ldr	r4, [pc, #24]	; (408704 <_close_r+0x1c>)
  4086ec:	2300      	movs	r3, #0
  4086ee:	4605      	mov	r5, r0
  4086f0:	4608      	mov	r0, r1
  4086f2:	6023      	str	r3, [r4, #0]
  4086f4:	f7fb fc36 	bl	403f64 <_close>
  4086f8:	1c43      	adds	r3, r0, #1
  4086fa:	d102      	bne.n	408702 <_close_r+0x1a>
  4086fc:	6823      	ldr	r3, [r4, #0]
  4086fe:	b103      	cbz	r3, 408702 <_close_r+0x1a>
  408700:	602b      	str	r3, [r5, #0]
  408702:	bd38      	pop	{r3, r4, r5, pc}
  408704:	20001744 	.word	0x20001744

00408708 <_fclose_r>:
  408708:	b570      	push	{r4, r5, r6, lr}
  40870a:	4605      	mov	r5, r0
  40870c:	460c      	mov	r4, r1
  40870e:	2900      	cmp	r1, #0
  408710:	d03a      	beq.n	408788 <_fclose_r+0x80>
  408712:	f7fe feeb 	bl	4074ec <__sfp_lock_acquire>
  408716:	b125      	cbz	r5, 408722 <_fclose_r+0x1a>
  408718:	6bab      	ldr	r3, [r5, #56]	; 0x38
  40871a:	b913      	cbnz	r3, 408722 <_fclose_r+0x1a>
  40871c:	4628      	mov	r0, r5
  40871e:	f7fe fe81 	bl	407424 <__sinit>
  408722:	f9b4 600c 	ldrsh.w	r6, [r4, #12]
  408726:	b906      	cbnz	r6, 40872a <_fclose_r+0x22>
  408728:	e02b      	b.n	408782 <_fclose_r+0x7a>
  40872a:	4628      	mov	r0, r5
  40872c:	4621      	mov	r1, r4
  40872e:	f7fe fd85 	bl	40723c <_fflush_r>
  408732:	6ae3      	ldr	r3, [r4, #44]	; 0x2c
  408734:	4606      	mov	r6, r0
  408736:	b13b      	cbz	r3, 408748 <_fclose_r+0x40>
  408738:	4628      	mov	r0, r5
  40873a:	69e1      	ldr	r1, [r4, #28]
  40873c:	4798      	blx	r3
  40873e:	ea36 0620 	bics.w	r6, r6, r0, asr #32
  408742:	bf28      	it	cs
  408744:	f04f 36ff 	movcs.w	r6, #4294967295
  408748:	89a3      	ldrh	r3, [r4, #12]
  40874a:	f003 0380 	and.w	r3, r3, #128	; 0x80
  40874e:	b21b      	sxth	r3, r3
  408750:	b11b      	cbz	r3, 40875a <_fclose_r+0x52>
  408752:	4628      	mov	r0, r5
  408754:	6921      	ldr	r1, [r4, #16]
  408756:	f7fe ffa1 	bl	40769c <_free_r>
  40875a:	6b21      	ldr	r1, [r4, #48]	; 0x30
  40875c:	b141      	cbz	r1, 408770 <_fclose_r+0x68>
  40875e:	f104 0340 	add.w	r3, r4, #64	; 0x40
  408762:	4299      	cmp	r1, r3
  408764:	d002      	beq.n	40876c <_fclose_r+0x64>
  408766:	4628      	mov	r0, r5
  408768:	f7fe ff98 	bl	40769c <_free_r>
  40876c:	2300      	movs	r3, #0
  40876e:	6323      	str	r3, [r4, #48]	; 0x30
  408770:	6c61      	ldr	r1, [r4, #68]	; 0x44
  408772:	b121      	cbz	r1, 40877e <_fclose_r+0x76>
  408774:	4628      	mov	r0, r5
  408776:	f7fe ff91 	bl	40769c <_free_r>
  40877a:	2300      	movs	r3, #0
  40877c:	6463      	str	r3, [r4, #68]	; 0x44
  40877e:	2300      	movs	r3, #0
  408780:	81a3      	strh	r3, [r4, #12]
  408782:	f7fe feb4 	bl	4074ee <__sfp_lock_release>
  408786:	e000      	b.n	40878a <_fclose_r+0x82>
  408788:	460e      	mov	r6, r1
  40878a:	4630      	mov	r0, r6
  40878c:	bd70      	pop	{r4, r5, r6, pc}

0040878e <fclose>:
  40878e:	4b02      	ldr	r3, [pc, #8]	; (408798 <fclose+0xa>)
  408790:	4601      	mov	r1, r0
  408792:	6818      	ldr	r0, [r3, #0]
  408794:	f7ff bfb8 	b.w	408708 <_fclose_r>
  408798:	20000110 	.word	0x20000110

0040879c <_fstat_r>:
  40879c:	b538      	push	{r3, r4, r5, lr}
  40879e:	4c07      	ldr	r4, [pc, #28]	; (4087bc <_fstat_r+0x20>)
  4087a0:	2300      	movs	r3, #0
  4087a2:	4605      	mov	r5, r0
  4087a4:	4608      	mov	r0, r1
  4087a6:	4611      	mov	r1, r2
  4087a8:	6023      	str	r3, [r4, #0]
  4087aa:	f7fb fbde 	bl	403f6a <_fstat>
  4087ae:	1c43      	adds	r3, r0, #1
  4087b0:	d102      	bne.n	4087b8 <_fstat_r+0x1c>
  4087b2:	6823      	ldr	r3, [r4, #0]
  4087b4:	b103      	cbz	r3, 4087b8 <_fstat_r+0x1c>
  4087b6:	602b      	str	r3, [r5, #0]
  4087b8:	bd38      	pop	{r3, r4, r5, pc}
  4087ba:	bf00      	nop
  4087bc:	20001744 	.word	0x20001744

004087c0 <_isatty_r>:
  4087c0:	b538      	push	{r3, r4, r5, lr}
  4087c2:	4c06      	ldr	r4, [pc, #24]	; (4087dc <_isatty_r+0x1c>)
  4087c4:	2300      	movs	r3, #0
  4087c6:	4605      	mov	r5, r0
  4087c8:	4608      	mov	r0, r1
  4087ca:	6023      	str	r3, [r4, #0]
  4087cc:	f7fb fbd2 	bl	403f74 <_isatty>
  4087d0:	1c43      	adds	r3, r0, #1
  4087d2:	d102      	bne.n	4087da <_isatty_r+0x1a>
  4087d4:	6823      	ldr	r3, [r4, #0]
  4087d6:	b103      	cbz	r3, 4087da <_isatty_r+0x1a>
  4087d8:	602b      	str	r3, [r5, #0]
  4087da:	bd38      	pop	{r3, r4, r5, pc}
  4087dc:	20001744 	.word	0x20001744

004087e0 <_lseek_r>:
  4087e0:	b538      	push	{r3, r4, r5, lr}
  4087e2:	4c07      	ldr	r4, [pc, #28]	; (408800 <_lseek_r+0x20>)
  4087e4:	4605      	mov	r5, r0
  4087e6:	2000      	movs	r0, #0
  4087e8:	6020      	str	r0, [r4, #0]
  4087ea:	4608      	mov	r0, r1
  4087ec:	4611      	mov	r1, r2
  4087ee:	461a      	mov	r2, r3
  4087f0:	f7fb fbc2 	bl	403f78 <_lseek>
  4087f4:	1c43      	adds	r3, r0, #1
  4087f6:	d102      	bne.n	4087fe <_lseek_r+0x1e>
  4087f8:	6823      	ldr	r3, [r4, #0]
  4087fa:	b103      	cbz	r3, 4087fe <_lseek_r+0x1e>
  4087fc:	602b      	str	r3, [r5, #0]
  4087fe:	bd38      	pop	{r3, r4, r5, pc}
  408800:	20001744 	.word	0x20001744

00408804 <_read_r>:
  408804:	b538      	push	{r3, r4, r5, lr}
  408806:	4c07      	ldr	r4, [pc, #28]	; (408824 <_read_r+0x20>)
  408808:	4605      	mov	r5, r0
  40880a:	2000      	movs	r0, #0
  40880c:	6020      	str	r0, [r4, #0]
  40880e:	4608      	mov	r0, r1
  408810:	4611      	mov	r1, r2
  408812:	461a      	mov	r2, r3
  408814:	f7f9 fc76 	bl	402104 <_read>
  408818:	1c43      	adds	r3, r0, #1
  40881a:	d102      	bne.n	408822 <_read_r+0x1e>
  40881c:	6823      	ldr	r3, [r4, #0]
  40881e:	b103      	cbz	r3, 408822 <_read_r+0x1e>
  408820:	602b      	str	r3, [r5, #0]
  408822:	bd38      	pop	{r3, r4, r5, pc}
  408824:	20001744 	.word	0x20001744

00408828 <__aeabi_uldivmod>:
  408828:	b94b      	cbnz	r3, 40883e <__aeabi_uldivmod+0x16>
  40882a:	b942      	cbnz	r2, 40883e <__aeabi_uldivmod+0x16>
  40882c:	2900      	cmp	r1, #0
  40882e:	bf08      	it	eq
  408830:	2800      	cmpeq	r0, #0
  408832:	d002      	beq.n	40883a <__aeabi_uldivmod+0x12>
  408834:	f04f 31ff 	mov.w	r1, #4294967295
  408838:	4608      	mov	r0, r1
  40883a:	f000 b83b 	b.w	4088b4 <__aeabi_idiv0>
  40883e:	b082      	sub	sp, #8
  408840:	46ec      	mov	ip, sp
  408842:	e92d 5000 	stmdb	sp!, {ip, lr}
  408846:	f000 f81d 	bl	408884 <__gnu_uldivmod_helper>
  40884a:	f8dd e004 	ldr.w	lr, [sp, #4]
  40884e:	b002      	add	sp, #8
  408850:	bc0c      	pop	{r2, r3}
  408852:	4770      	bx	lr

00408854 <__gnu_ldivmod_helper>:
  408854:	e92d 41f0 	stmdb	sp!, {r4, r5, r6, r7, r8, lr}
  408858:	4616      	mov	r6, r2
  40885a:	4698      	mov	r8, r3
  40885c:	4604      	mov	r4, r0
  40885e:	460d      	mov	r5, r1
  408860:	f000 f82a 	bl	4088b8 <__divdi3>
  408864:	fb06 fc01 	mul.w	ip, r6, r1
  408868:	fba6 2300 	umull	r2, r3, r6, r0
  40886c:	fb00 c708 	mla	r7, r0, r8, ip
  408870:	18fb      	adds	r3, r7, r3
  408872:	1aa2      	subs	r2, r4, r2
  408874:	eb65 0303 	sbc.w	r3, r5, r3
  408878:	9c06      	ldr	r4, [sp, #24]
  40887a:	e9c4 2300 	strd	r2, r3, [r4]
  40887e:	e8bd 81f0 	ldmia.w	sp!, {r4, r5, r6, r7, r8, pc}
  408882:	bf00      	nop

00408884 <__gnu_uldivmod_helper>:
  408884:	e92d 41f0 	stmdb	sp!, {r4, r5, r6, r7, r8, lr}
  408888:	4690      	mov	r8, r2
  40888a:	4606      	mov	r6, r0
  40888c:	460f      	mov	r7, r1
  40888e:	461d      	mov	r5, r3
  408890:	f000 f976 	bl	408b80 <__udivdi3>
  408894:	fb00 f305 	mul.w	r3, r0, r5
  408898:	fba0 4508 	umull	r4, r5, r0, r8
  40889c:	fb08 3801 	mla	r8, r8, r1, r3
  4088a0:	9b06      	ldr	r3, [sp, #24]
  4088a2:	4445      	add	r5, r8
  4088a4:	1b34      	subs	r4, r6, r4
  4088a6:	eb67 0505 	sbc.w	r5, r7, r5
  4088aa:	e9c3 4500 	strd	r4, r5, [r3]
  4088ae:	e8bd 81f0 	ldmia.w	sp!, {r4, r5, r6, r7, r8, pc}
  4088b2:	bf00      	nop

004088b4 <__aeabi_idiv0>:
  4088b4:	4770      	bx	lr
  4088b6:	bf00      	nop

004088b8 <__divdi3>:
  4088b8:	e92d 0ff0 	stmdb	sp!, {r4, r5, r6, r7, r8, r9, sl, fp}
  4088bc:	2400      	movs	r4, #0
  4088be:	2900      	cmp	r1, #0
  4088c0:	461d      	mov	r5, r3
  4088c2:	f2c0 8106 	blt.w	408ad2 <__divdi3+0x21a>
  4088c6:	2d00      	cmp	r5, #0
  4088c8:	f2c0 80fe 	blt.w	408ac8 <__divdi3+0x210>
  4088cc:	4680      	mov	r8, r0
  4088ce:	460f      	mov	r7, r1
  4088d0:	4694      	mov	ip, r2
  4088d2:	461e      	mov	r6, r3
  4088d4:	bbdb      	cbnz	r3, 40894e <__divdi3+0x96>
  4088d6:	428a      	cmp	r2, r1
  4088d8:	d948      	bls.n	40896c <__divdi3+0xb4>
  4088da:	fab2 f382 	clz	r3, r2
  4088de:	b143      	cbz	r3, 4088f2 <__divdi3+0x3a>
  4088e0:	f1c3 0520 	rsb	r5, r3, #32
  4088e4:	fa20 f505 	lsr.w	r5, r0, r5
  4088e8:	fa01 f103 	lsl.w	r1, r1, r3
  4088ec:	409a      	lsls	r2, r3
  4088ee:	4098      	lsls	r0, r3
  4088f0:	4329      	orrs	r1, r5
  4088f2:	0c15      	lsrs	r5, r2, #16
  4088f4:	fbb1 f6f5 	udiv	r6, r1, r5
  4088f8:	fa1f fc82 	uxth.w	ip, r2
  4088fc:	fb05 1116 	mls	r1, r5, r6, r1
  408900:	fb0c f706 	mul.w	r7, ip, r6
  408904:	0c03      	lsrs	r3, r0, #16
  408906:	ea43 4301 	orr.w	r3, r3, r1, lsl #16
  40890a:	429f      	cmp	r7, r3
  40890c:	d908      	bls.n	408920 <__divdi3+0x68>
  40890e:	1e71      	subs	r1, r6, #1
  408910:	189b      	adds	r3, r3, r2
  408912:	f080 8128 	bcs.w	408b66 <__divdi3+0x2ae>
  408916:	429f      	cmp	r7, r3
  408918:	f240 8125 	bls.w	408b66 <__divdi3+0x2ae>
  40891c:	3e02      	subs	r6, #2
  40891e:	189b      	adds	r3, r3, r2
  408920:	1bdb      	subs	r3, r3, r7
  408922:	fbb3 f1f5 	udiv	r1, r3, r5
  408926:	fb05 3311 	mls	r3, r5, r1, r3
  40892a:	fb0c fc01 	mul.w	ip, ip, r1
  40892e:	b280      	uxth	r0, r0
  408930:	ea40 4003 	orr.w	r0, r0, r3, lsl #16
  408934:	4584      	cmp	ip, r0
  408936:	d906      	bls.n	408946 <__divdi3+0x8e>
  408938:	1e4b      	subs	r3, r1, #1
  40893a:	1882      	adds	r2, r0, r2
  40893c:	d202      	bcs.n	408944 <__divdi3+0x8c>
  40893e:	3902      	subs	r1, #2
  408940:	4594      	cmp	ip, r2
  408942:	d800      	bhi.n	408946 <__divdi3+0x8e>
  408944:	4619      	mov	r1, r3
  408946:	ea41 4106 	orr.w	r1, r1, r6, lsl #16
  40894a:	2500      	movs	r5, #0
  40894c:	e003      	b.n	408956 <__divdi3+0x9e>
  40894e:	428b      	cmp	r3, r1
  408950:	d944      	bls.n	4089dc <__divdi3+0x124>
  408952:	2500      	movs	r5, #0
  408954:	4629      	mov	r1, r5
  408956:	460a      	mov	r2, r1
  408958:	462b      	mov	r3, r5
  40895a:	b114      	cbz	r4, 408962 <__divdi3+0xaa>
  40895c:	4252      	negs	r2, r2
  40895e:	eb63 0343 	sbc.w	r3, r3, r3, lsl #1
  408962:	4610      	mov	r0, r2
  408964:	4619      	mov	r1, r3
  408966:	e8bd 0ff0 	ldmia.w	sp!, {r4, r5, r6, r7, r8, r9, sl, fp}
  40896a:	4770      	bx	lr
  40896c:	b912      	cbnz	r2, 408974 <__divdi3+0xbc>
  40896e:	2301      	movs	r3, #1
  408970:	fbb3 f2f2 	udiv	r2, r3, r2
  408974:	fab2 f682 	clz	r6, r2
  408978:	2e00      	cmp	r6, #0
  40897a:	f040 80b0 	bne.w	408ade <__divdi3+0x226>
  40897e:	1a89      	subs	r1, r1, r2
  408980:	0c13      	lsrs	r3, r2, #16
  408982:	fa1f fc82 	uxth.w	ip, r2
  408986:	2501      	movs	r5, #1
  408988:	fbb1 f7f3 	udiv	r7, r1, r3
  40898c:	fb03 1117 	mls	r1, r3, r7, r1
  408990:	fb0c f807 	mul.w	r8, ip, r7
  408994:	ea4f 4910 	mov.w	r9, r0, lsr #16
  408998:	ea49 4601 	orr.w	r6, r9, r1, lsl #16
  40899c:	45b0      	cmp	r8, r6
  40899e:	d906      	bls.n	4089ae <__divdi3+0xf6>
  4089a0:	1e79      	subs	r1, r7, #1
  4089a2:	18b6      	adds	r6, r6, r2
  4089a4:	d202      	bcs.n	4089ac <__divdi3+0xf4>
  4089a6:	45b0      	cmp	r8, r6
  4089a8:	f200 80e7 	bhi.w	408b7a <__divdi3+0x2c2>
  4089ac:	460f      	mov	r7, r1
  4089ae:	ebc8 0606 	rsb	r6, r8, r6
  4089b2:	fbb6 f1f3 	udiv	r1, r6, r3
  4089b6:	fb03 6311 	mls	r3, r3, r1, r6
  4089ba:	fb0c fc01 	mul.w	ip, ip, r1
  4089be:	b280      	uxth	r0, r0
  4089c0:	ea40 4303 	orr.w	r3, r0, r3, lsl #16
  4089c4:	459c      	cmp	ip, r3
  4089c6:	d906      	bls.n	4089d6 <__divdi3+0x11e>
  4089c8:	1e4e      	subs	r6, r1, #1
  4089ca:	189b      	adds	r3, r3, r2
  4089cc:	d202      	bcs.n	4089d4 <__divdi3+0x11c>
  4089ce:	3902      	subs	r1, #2
  4089d0:	459c      	cmp	ip, r3
  4089d2:	d800      	bhi.n	4089d6 <__divdi3+0x11e>
  4089d4:	4631      	mov	r1, r6
  4089d6:	ea41 4107 	orr.w	r1, r1, r7, lsl #16
  4089da:	e7bc      	b.n	408956 <__divdi3+0x9e>
  4089dc:	fab3 f583 	clz	r5, r3
  4089e0:	2d00      	cmp	r5, #0
  4089e2:	f000 80b9 	beq.w	408b58 <__divdi3+0x2a0>
  4089e6:	f1c5 0120 	rsb	r1, r5, #32
  4089ea:	fa03 f605 	lsl.w	r6, r3, r5
  4089ee:	fa22 f301 	lsr.w	r3, r2, r1
  4089f2:	fa27 f201 	lsr.w	r2, r7, r1
  4089f6:	fa07 f705 	lsl.w	r7, r7, r5
  4089fa:	fa20 f101 	lsr.w	r1, r0, r1
  4089fe:	431e      	orrs	r6, r3
  408a00:	ea4f 4816 	mov.w	r8, r6, lsr #16
  408a04:	fbb2 f9f8 	udiv	r9, r2, r8
  408a08:	fa1f fa86 	uxth.w	sl, r6
  408a0c:	fb08 2219 	mls	r2, r8, r9, r2
  408a10:	fb0a fb09 	mul.w	fp, sl, r9
  408a14:	430f      	orrs	r7, r1
  408a16:	0c3b      	lsrs	r3, r7, #16
  408a18:	ea43 4202 	orr.w	r2, r3, r2, lsl #16
  408a1c:	4593      	cmp	fp, r2
  408a1e:	fa0c fc05 	lsl.w	ip, ip, r5
  408a22:	d90b      	bls.n	408a3c <__divdi3+0x184>
  408a24:	1992      	adds	r2, r2, r6
  408a26:	f109 33ff 	add.w	r3, r9, #4294967295
  408a2a:	f080 80a2 	bcs.w	408b72 <__divdi3+0x2ba>
  408a2e:	4593      	cmp	fp, r2
  408a30:	bf84      	itt	hi
  408a32:	f1a9 0902 	subhi.w	r9, r9, #2
  408a36:	1992      	addhi	r2, r2, r6
  408a38:	f240 809b 	bls.w	408b72 <__divdi3+0x2ba>
  408a3c:	ebcb 0202 	rsb	r2, fp, r2
  408a40:	fbb2 f1f8 	udiv	r1, r2, r8
  408a44:	fb08 2211 	mls	r2, r8, r1, r2
  408a48:	fb0a fa01 	mul.w	sl, sl, r1
  408a4c:	b2bf      	uxth	r7, r7
  408a4e:	ea47 4302 	orr.w	r3, r7, r2, lsl #16
  408a52:	459a      	cmp	sl, r3
  408a54:	d908      	bls.n	408a68 <__divdi3+0x1b0>
  408a56:	1e4a      	subs	r2, r1, #1
  408a58:	199b      	adds	r3, r3, r6
  408a5a:	f080 8086 	bcs.w	408b6a <__divdi3+0x2b2>
  408a5e:	459a      	cmp	sl, r3
  408a60:	f240 8083 	bls.w	408b6a <__divdi3+0x2b2>
  408a64:	3902      	subs	r1, #2
  408a66:	199b      	adds	r3, r3, r6
  408a68:	ea41 4109 	orr.w	r1, r1, r9, lsl #16
  408a6c:	0c0f      	lsrs	r7, r1, #16
  408a6e:	fa1f f88c 	uxth.w	r8, ip
  408a72:	fb08 f607 	mul.w	r6, r8, r7
  408a76:	b28a      	uxth	r2, r1
  408a78:	ea4f 4c1c 	mov.w	ip, ip, lsr #16
  408a7c:	fb08 f802 	mul.w	r8, r8, r2
  408a80:	fb0c 6202 	mla	r2, ip, r2, r6
  408a84:	fb0c fc07 	mul.w	ip, ip, r7
  408a88:	eb02 4218 	add.w	r2, r2, r8, lsr #16
  408a8c:	4296      	cmp	r6, r2
  408a8e:	bf88      	it	hi
  408a90:	f50c 3c80 	addhi.w	ip, ip, #65536	; 0x10000
  408a94:	ebca 0303 	rsb	r3, sl, r3
  408a98:	eb0c 4c12 	add.w	ip, ip, r2, lsr #16
  408a9c:	4563      	cmp	r3, ip
  408a9e:	d310      	bcc.n	408ac2 <__divdi3+0x20a>
  408aa0:	fa00 f505 	lsl.w	r5, r0, r5
  408aa4:	fa1f f888 	uxth.w	r8, r8
  408aa8:	bf14      	ite	ne
  408aaa:	2300      	movne	r3, #0
  408aac:	2301      	moveq	r3, #1
  408aae:	eb08 4202 	add.w	r2, r8, r2, lsl #16
  408ab2:	4295      	cmp	r5, r2
  408ab4:	bf2c      	ite	cs
  408ab6:	2500      	movcs	r5, #0
  408ab8:	f003 0501 	andcc.w	r5, r3, #1
  408abc:	2d00      	cmp	r5, #0
  408abe:	f43f af4a 	beq.w	408956 <__divdi3+0x9e>
  408ac2:	3901      	subs	r1, #1
  408ac4:	2500      	movs	r5, #0
  408ac6:	e746      	b.n	408956 <__divdi3+0x9e>
  408ac8:	43e4      	mvns	r4, r4
  408aca:	4252      	negs	r2, r2
  408acc:	eb63 0343 	sbc.w	r3, r3, r3, lsl #1
  408ad0:	e6fc      	b.n	4088cc <__divdi3+0x14>
  408ad2:	4240      	negs	r0, r0
  408ad4:	eb61 0141 	sbc.w	r1, r1, r1, lsl #1
  408ad8:	f04f 34ff 	mov.w	r4, #4294967295
  408adc:	e6f3      	b.n	4088c6 <__divdi3+0xe>
  408ade:	40b2      	lsls	r2, r6
  408ae0:	f1c6 0920 	rsb	r9, r6, #32
  408ae4:	fa21 f709 	lsr.w	r7, r1, r9
  408ae8:	fa20 f909 	lsr.w	r9, r0, r9
  408aec:	fa01 f106 	lsl.w	r1, r1, r6
  408af0:	0c13      	lsrs	r3, r2, #16
  408af2:	fbb7 f8f3 	udiv	r8, r7, r3
  408af6:	fa1f fc82 	uxth.w	ip, r2
  408afa:	fb03 7718 	mls	r7, r3, r8, r7
  408afe:	fb0c f508 	mul.w	r5, ip, r8
  408b02:	ea49 0901 	orr.w	r9, r9, r1
  408b06:	ea4f 4119 	mov.w	r1, r9, lsr #16
  408b0a:	ea41 4707 	orr.w	r7, r1, r7, lsl #16
  408b0e:	40b0      	lsls	r0, r6
  408b10:	42bd      	cmp	r5, r7
  408b12:	d909      	bls.n	408b28 <__divdi3+0x270>
  408b14:	18bf      	adds	r7, r7, r2
  408b16:	f108 31ff 	add.w	r1, r8, #4294967295
  408b1a:	d22c      	bcs.n	408b76 <__divdi3+0x2be>
  408b1c:	42bd      	cmp	r5, r7
  408b1e:	bf84      	itt	hi
  408b20:	f1a8 0802 	subhi.w	r8, r8, #2
  408b24:	18bf      	addhi	r7, r7, r2
  408b26:	d926      	bls.n	408b76 <__divdi3+0x2be>
  408b28:	1b7f      	subs	r7, r7, r5
  408b2a:	fbb7 f5f3 	udiv	r5, r7, r3
  408b2e:	fb03 7115 	mls	r1, r3, r5, r7
  408b32:	fb0c f605 	mul.w	r6, ip, r5
  408b36:	fa1f f989 	uxth.w	r9, r9
  408b3a:	ea49 4101 	orr.w	r1, r9, r1, lsl #16
  408b3e:	428e      	cmp	r6, r1
  408b40:	d906      	bls.n	408b50 <__divdi3+0x298>
  408b42:	1e6f      	subs	r7, r5, #1
  408b44:	1889      	adds	r1, r1, r2
  408b46:	d212      	bcs.n	408b6e <__divdi3+0x2b6>
  408b48:	428e      	cmp	r6, r1
  408b4a:	d910      	bls.n	408b6e <__divdi3+0x2b6>
  408b4c:	3d02      	subs	r5, #2
  408b4e:	1889      	adds	r1, r1, r2
  408b50:	1b89      	subs	r1, r1, r6
  408b52:	ea45 4508 	orr.w	r5, r5, r8, lsl #16
  408b56:	e717      	b.n	408988 <__divdi3+0xd0>
  408b58:	2101      	movs	r1, #1
  408b5a:	42bb      	cmp	r3, r7
  408b5c:	bf28      	it	cs
  408b5e:	4282      	cmpcs	r2, r0
  408b60:	f67f aef9 	bls.w	408956 <__divdi3+0x9e>
  408b64:	e6f5      	b.n	408952 <__divdi3+0x9a>
  408b66:	460e      	mov	r6, r1
  408b68:	e6da      	b.n	408920 <__divdi3+0x68>
  408b6a:	4611      	mov	r1, r2
  408b6c:	e77c      	b.n	408a68 <__divdi3+0x1b0>
  408b6e:	463d      	mov	r5, r7
  408b70:	e7ee      	b.n	408b50 <__divdi3+0x298>
  408b72:	4699      	mov	r9, r3
  408b74:	e762      	b.n	408a3c <__divdi3+0x184>
  408b76:	4688      	mov	r8, r1
  408b78:	e7d6      	b.n	408b28 <__divdi3+0x270>
  408b7a:	3f02      	subs	r7, #2
  408b7c:	18b6      	adds	r6, r6, r2
  408b7e:	e716      	b.n	4089ae <__divdi3+0xf6>

00408b80 <__udivdi3>:
  408b80:	e92d 03f0 	stmdb	sp!, {r4, r5, r6, r7, r8, r9}
  408b84:	4614      	mov	r4, r2
  408b86:	4605      	mov	r5, r0
  408b88:	460e      	mov	r6, r1
  408b8a:	bbdb      	cbnz	r3, 408c04 <__udivdi3+0x84>
  408b8c:	428a      	cmp	r2, r1
  408b8e:	d946      	bls.n	408c1e <__udivdi3+0x9e>
  408b90:	fab2 f382 	clz	r3, r2
  408b94:	b143      	cbz	r3, 408ba8 <__udivdi3+0x28>
  408b96:	f1c3 0220 	rsb	r2, r3, #32
  408b9a:	fa20 f202 	lsr.w	r2, r0, r2
  408b9e:	fa01 f603 	lsl.w	r6, r1, r3
  408ba2:	409c      	lsls	r4, r3
  408ba4:	409d      	lsls	r5, r3
  408ba6:	4316      	orrs	r6, r2
  408ba8:	0c23      	lsrs	r3, r4, #16
  408baa:	fbb6 f1f3 	udiv	r1, r6, r3
  408bae:	b2a7      	uxth	r7, r4
  408bb0:	fb03 6611 	mls	r6, r3, r1, r6
  408bb4:	fb07 f201 	mul.w	r2, r7, r1
  408bb8:	0c28      	lsrs	r0, r5, #16
  408bba:	ea40 4606 	orr.w	r6, r0, r6, lsl #16
  408bbe:	42b2      	cmp	r2, r6
  408bc0:	d908      	bls.n	408bd4 <__udivdi3+0x54>
  408bc2:	1e48      	subs	r0, r1, #1
  408bc4:	1936      	adds	r6, r6, r4
  408bc6:	f080 810f 	bcs.w	408de8 <__udivdi3+0x268>
  408bca:	42b2      	cmp	r2, r6
  408bcc:	f240 810c 	bls.w	408de8 <__udivdi3+0x268>
  408bd0:	3902      	subs	r1, #2
  408bd2:	1936      	adds	r6, r6, r4
  408bd4:	1ab6      	subs	r6, r6, r2
  408bd6:	fbb6 f2f3 	udiv	r2, r6, r3
  408bda:	fb03 6312 	mls	r3, r3, r2, r6
  408bde:	fb07 f702 	mul.w	r7, r7, r2
  408be2:	b2ad      	uxth	r5, r5
  408be4:	ea45 4303 	orr.w	r3, r5, r3, lsl #16
  408be8:	429f      	cmp	r7, r3
  408bea:	d907      	bls.n	408bfc <__udivdi3+0x7c>
  408bec:	1e50      	subs	r0, r2, #1
  408bee:	191b      	adds	r3, r3, r4
  408bf0:	f080 80f8 	bcs.w	408de4 <__udivdi3+0x264>
  408bf4:	3a02      	subs	r2, #2
  408bf6:	429f      	cmp	r7, r3
  408bf8:	f240 80f4 	bls.w	408de4 <__udivdi3+0x264>
  408bfc:	ea42 4001 	orr.w	r0, r2, r1, lsl #16
  408c00:	2100      	movs	r1, #0
  408c02:	e046      	b.n	408c92 <__udivdi3+0x112>
  408c04:	428b      	cmp	r3, r1
  408c06:	d842      	bhi.n	408c8e <__udivdi3+0x10e>
  408c08:	fab3 f483 	clz	r4, r3
  408c0c:	2c00      	cmp	r4, #0
  408c0e:	d143      	bne.n	408c98 <__udivdi3+0x118>
  408c10:	428b      	cmp	r3, r1
  408c12:	bf28      	it	cs
  408c14:	4282      	cmpcs	r2, r0
  408c16:	d83a      	bhi.n	408c8e <__udivdi3+0x10e>
  408c18:	4621      	mov	r1, r4
  408c1a:	2001      	movs	r0, #1
  408c1c:	e039      	b.n	408c92 <__udivdi3+0x112>
  408c1e:	b912      	cbnz	r2, 408c26 <__udivdi3+0xa6>
  408c20:	2301      	movs	r3, #1
  408c22:	fbb3 f4f2 	udiv	r4, r3, r2
  408c26:	fab4 f284 	clz	r2, r4
  408c2a:	2a00      	cmp	r2, #0
  408c2c:	f040 809b 	bne.w	408d66 <__udivdi3+0x1e6>
  408c30:	1b0a      	subs	r2, r1, r4
  408c32:	0c23      	lsrs	r3, r4, #16
  408c34:	b2a7      	uxth	r7, r4
  408c36:	2101      	movs	r1, #1
  408c38:	fbb2 f6f3 	udiv	r6, r2, r3
  408c3c:	fb03 2216 	mls	r2, r3, r6, r2
  408c40:	fb07 f006 	mul.w	r0, r7, r6
  408c44:	ea4f 4c15 	mov.w	ip, r5, lsr #16
  408c48:	ea4c 4202 	orr.w	r2, ip, r2, lsl #16
  408c4c:	4290      	cmp	r0, r2
  408c4e:	d907      	bls.n	408c60 <__udivdi3+0xe0>
  408c50:	1912      	adds	r2, r2, r4
  408c52:	f106 3cff 	add.w	ip, r6, #4294967295
  408c56:	d202      	bcs.n	408c5e <__udivdi3+0xde>
  408c58:	4290      	cmp	r0, r2
  408c5a:	f200 80dc 	bhi.w	408e16 <__udivdi3+0x296>
  408c5e:	4666      	mov	r6, ip
  408c60:	1a12      	subs	r2, r2, r0
  408c62:	fbb2 f0f3 	udiv	r0, r2, r3
  408c66:	fb03 2310 	mls	r3, r3, r0, r2
  408c6a:	fb07 f700 	mul.w	r7, r7, r0
  408c6e:	b2ad      	uxth	r5, r5
  408c70:	ea45 4303 	orr.w	r3, r5, r3, lsl #16
  408c74:	429f      	cmp	r7, r3
  408c76:	d907      	bls.n	408c88 <__udivdi3+0x108>
  408c78:	1e42      	subs	r2, r0, #1
  408c7a:	191b      	adds	r3, r3, r4
  408c7c:	f080 80b6 	bcs.w	408dec <__udivdi3+0x26c>
  408c80:	3802      	subs	r0, #2
  408c82:	429f      	cmp	r7, r3
  408c84:	f240 80b2 	bls.w	408dec <__udivdi3+0x26c>
  408c88:	ea40 4006 	orr.w	r0, r0, r6, lsl #16
  408c8c:	e001      	b.n	408c92 <__udivdi3+0x112>
  408c8e:	2100      	movs	r1, #0
  408c90:	4608      	mov	r0, r1
  408c92:	e8bd 03f0 	ldmia.w	sp!, {r4, r5, r6, r7, r8, r9}
  408c96:	4770      	bx	lr
  408c98:	f1c4 0720 	rsb	r7, r4, #32
  408c9c:	fa22 fc07 	lsr.w	ip, r2, r7
  408ca0:	fa03 f304 	lsl.w	r3, r3, r4
  408ca4:	fa21 f607 	lsr.w	r6, r1, r7
  408ca8:	fa20 f507 	lsr.w	r5, r0, r7
  408cac:	fa01 f104 	lsl.w	r1, r1, r4
  408cb0:	ea4c 0303 	orr.w	r3, ip, r3
  408cb4:	0c1f      	lsrs	r7, r3, #16
  408cb6:	fbb6 f8f7 	udiv	r8, r6, r7
  408cba:	fa1f f983 	uxth.w	r9, r3
  408cbe:	fb07 6618 	mls	r6, r7, r8, r6
  408cc2:	fb09 fc08 	mul.w	ip, r9, r8
  408cc6:	4329      	orrs	r1, r5
  408cc8:	0c0d      	lsrs	r5, r1, #16
  408cca:	ea45 4606 	orr.w	r6, r5, r6, lsl #16
  408cce:	45b4      	cmp	ip, r6
  408cd0:	fa02 f204 	lsl.w	r2, r2, r4
  408cd4:	d905      	bls.n	408ce2 <__udivdi3+0x162>
  408cd6:	18f6      	adds	r6, r6, r3
  408cd8:	f108 35ff 	add.w	r5, r8, #4294967295
  408cdc:	f0c0 808f 	bcc.w	408dfe <__udivdi3+0x27e>
  408ce0:	46a8      	mov	r8, r5
  408ce2:	ebcc 0606 	rsb	r6, ip, r6
  408ce6:	fbb6 fcf7 	udiv	ip, r6, r7
  408cea:	fb07 661c 	mls	r6, r7, ip, r6
  408cee:	fb09 f90c 	mul.w	r9, r9, ip
  408cf2:	b289      	uxth	r1, r1
  408cf4:	ea41 4506 	orr.w	r5, r1, r6, lsl #16
  408cf8:	45a9      	cmp	r9, r5
  408cfa:	d904      	bls.n	408d06 <__udivdi3+0x186>
  408cfc:	18ed      	adds	r5, r5, r3
  408cfe:	f10c 31ff 	add.w	r1, ip, #4294967295
  408d02:	d375      	bcc.n	408df0 <__udivdi3+0x270>
  408d04:	468c      	mov	ip, r1
  408d06:	ea4c 4c08 	orr.w	ip, ip, r8, lsl #16
  408d0a:	b297      	uxth	r7, r2
  408d0c:	ea4f 461c 	mov.w	r6, ip, lsr #16
  408d10:	fb07 f106 	mul.w	r1, r7, r6
  408d14:	0c12      	lsrs	r2, r2, #16
  408d16:	fa1f f38c 	uxth.w	r3, ip
  408d1a:	fb07 f703 	mul.w	r7, r7, r3
  408d1e:	fb02 1303 	mla	r3, r2, r3, r1
  408d22:	fb02 f206 	mul.w	r2, r2, r6
  408d26:	eb03 4317 	add.w	r3, r3, r7, lsr #16
  408d2a:	4299      	cmp	r1, r3
  408d2c:	bf88      	it	hi
  408d2e:	f502 3280 	addhi.w	r2, r2, #65536	; 0x10000
  408d32:	ebc9 0505 	rsb	r5, r9, r5
  408d36:	eb02 4213 	add.w	r2, r2, r3, lsr #16
  408d3a:	4295      	cmp	r5, r2
  408d3c:	d30f      	bcc.n	408d5e <__udivdi3+0x1de>
  408d3e:	fa00 f104 	lsl.w	r1, r0, r4
  408d42:	b2bf      	uxth	r7, r7
  408d44:	bf14      	ite	ne
  408d46:	2200      	movne	r2, #0
  408d48:	2201      	moveq	r2, #1
  408d4a:	eb07 4303 	add.w	r3, r7, r3, lsl #16
  408d4e:	4299      	cmp	r1, r3
  408d50:	bf2c      	ite	cs
  408d52:	2100      	movcs	r1, #0
  408d54:	f002 0101 	andcc.w	r1, r2, #1
  408d58:	4660      	mov	r0, ip
  408d5a:	2900      	cmp	r1, #0
  408d5c:	d099      	beq.n	408c92 <__udivdi3+0x112>
  408d5e:	f10c 30ff 	add.w	r0, ip, #4294967295
  408d62:	2100      	movs	r1, #0
  408d64:	e795      	b.n	408c92 <__udivdi3+0x112>
  408d66:	4094      	lsls	r4, r2
  408d68:	f1c2 0320 	rsb	r3, r2, #32
  408d6c:	fa21 f603 	lsr.w	r6, r1, r3
  408d70:	fa20 f903 	lsr.w	r9, r0, r3
  408d74:	fa01 f102 	lsl.w	r1, r1, r2
  408d78:	0c23      	lsrs	r3, r4, #16
  408d7a:	fbb6 fcf3 	udiv	ip, r6, r3
  408d7e:	b2a7      	uxth	r7, r4
  408d80:	fb03 661c 	mls	r6, r3, ip, r6
  408d84:	fb07 f80c 	mul.w	r8, r7, ip
  408d88:	ea49 0901 	orr.w	r9, r9, r1
  408d8c:	ea4f 4119 	mov.w	r1, r9, lsr #16
  408d90:	ea41 4606 	orr.w	r6, r1, r6, lsl #16
  408d94:	45b0      	cmp	r8, r6
  408d96:	fa00 f502 	lsl.w	r5, r0, r2
  408d9a:	d909      	bls.n	408db0 <__udivdi3+0x230>
  408d9c:	1936      	adds	r6, r6, r4
  408d9e:	f10c 32ff 	add.w	r2, ip, #4294967295
  408da2:	d234      	bcs.n	408e0e <__udivdi3+0x28e>
  408da4:	45b0      	cmp	r8, r6
  408da6:	bf84      	itt	hi
  408da8:	f1ac 0c02 	subhi.w	ip, ip, #2
  408dac:	1936      	addhi	r6, r6, r4
  408dae:	d92e      	bls.n	408e0e <__udivdi3+0x28e>
  408db0:	ebc8 0606 	rsb	r6, r8, r6
  408db4:	fbb6 f0f3 	udiv	r0, r6, r3
  408db8:	fb03 6210 	mls	r2, r3, r0, r6
  408dbc:	fb07 f800 	mul.w	r8, r7, r0
  408dc0:	fa1f f989 	uxth.w	r9, r9
  408dc4:	ea49 4202 	orr.w	r2, r9, r2, lsl #16
  408dc8:	4590      	cmp	r8, r2
  408dca:	d906      	bls.n	408dda <__udivdi3+0x25a>
  408dcc:	1e41      	subs	r1, r0, #1
  408dce:	1912      	adds	r2, r2, r4
  408dd0:	d21f      	bcs.n	408e12 <__udivdi3+0x292>
  408dd2:	4590      	cmp	r8, r2
  408dd4:	d91d      	bls.n	408e12 <__udivdi3+0x292>
  408dd6:	3802      	subs	r0, #2
  408dd8:	1912      	adds	r2, r2, r4
  408dda:	ebc8 0202 	rsb	r2, r8, r2
  408dde:	ea40 410c 	orr.w	r1, r0, ip, lsl #16
  408de2:	e729      	b.n	408c38 <__udivdi3+0xb8>
  408de4:	4602      	mov	r2, r0
  408de6:	e709      	b.n	408bfc <__udivdi3+0x7c>
  408de8:	4601      	mov	r1, r0
  408dea:	e6f3      	b.n	408bd4 <__udivdi3+0x54>
  408dec:	4610      	mov	r0, r2
  408dee:	e74b      	b.n	408c88 <__udivdi3+0x108>
  408df0:	45a9      	cmp	r9, r5
  408df2:	bf84      	itt	hi
  408df4:	f1ac 0c02 	subhi.w	ip, ip, #2
  408df8:	18ed      	addhi	r5, r5, r3
  408dfa:	d884      	bhi.n	408d06 <__udivdi3+0x186>
  408dfc:	e782      	b.n	408d04 <__udivdi3+0x184>
  408dfe:	45b4      	cmp	ip, r6
  408e00:	bf84      	itt	hi
  408e02:	f1a8 0802 	subhi.w	r8, r8, #2
  408e06:	18f6      	addhi	r6, r6, r3
  408e08:	f63f af6b 	bhi.w	408ce2 <__udivdi3+0x162>
  408e0c:	e768      	b.n	408ce0 <__udivdi3+0x160>
  408e0e:	4694      	mov	ip, r2
  408e10:	e7ce      	b.n	408db0 <__udivdi3+0x230>
  408e12:	4608      	mov	r0, r1
  408e14:	e7e1      	b.n	408dda <__udivdi3+0x25a>
  408e16:	3e02      	subs	r6, #2
  408e18:	1912      	adds	r2, r2, r4
  408e1a:	e721      	b.n	408c60 <__udivdi3+0xe0>

00408e1c <selfrel_offset31>:
  408e1c:	6803      	ldr	r3, [r0, #0]
  408e1e:	005a      	lsls	r2, r3, #1
  408e20:	bf4c      	ite	mi
  408e22:	f043 4300 	orrmi.w	r3, r3, #2147483648	; 0x80000000
  408e26:	f023 4300 	bicpl.w	r3, r3, #2147483648	; 0x80000000
  408e2a:	18c0      	adds	r0, r0, r3
  408e2c:	4770      	bx	lr
  408e2e:	bf00      	nop

00408e30 <search_EIT_table>:
  408e30:	e92d 4ff0 	stmdb	sp!, {r4, r5, r6, r7, r8, r9, sl, fp, lr}
  408e34:	4606      	mov	r6, r0
  408e36:	b083      	sub	sp, #12
  408e38:	4691      	mov	r9, r2
  408e3a:	b311      	cbz	r1, 408e82 <search_EIT_table+0x52>
  408e3c:	3901      	subs	r1, #1
  408e3e:	9101      	str	r1, [sp, #4]
  408e40:	4688      	mov	r8, r1
  408e42:	2700      	movs	r7, #0
  408e44:	eb07 0408 	add.w	r4, r7, r8
  408e48:	eb04 74d4 	add.w	r4, r4, r4, lsr #31
  408e4c:	1064      	asrs	r4, r4, #1
  408e4e:	eb06 0bc4 	add.w	fp, r6, r4, lsl #3
  408e52:	4658      	mov	r0, fp
  408e54:	f7ff ffe2 	bl	408e1c <selfrel_offset31>
  408e58:	9b01      	ldr	r3, [sp, #4]
  408e5a:	1c65      	adds	r5, r4, #1
  408e5c:	42a3      	cmp	r3, r4
  408e5e:	4682      	mov	sl, r0
  408e60:	eb06 00c5 	add.w	r0, r6, r5, lsl #3
  408e64:	d015      	beq.n	408e92 <search_EIT_table+0x62>
  408e66:	f7ff ffd9 	bl	408e1c <selfrel_offset31>
  408e6a:	3801      	subs	r0, #1
  408e6c:	45ca      	cmp	sl, r9
  408e6e:	d904      	bls.n	408e7a <search_EIT_table+0x4a>
  408e70:	42bc      	cmp	r4, r7
  408e72:	d00b      	beq.n	408e8c <search_EIT_table+0x5c>
  408e74:	f104 38ff 	add.w	r8, r4, #4294967295
  408e78:	e7e4      	b.n	408e44 <search_EIT_table+0x14>
  408e7a:	4548      	cmp	r0, r9
  408e7c:	d202      	bcs.n	408e84 <search_EIT_table+0x54>
  408e7e:	462f      	mov	r7, r5
  408e80:	e7e0      	b.n	408e44 <search_EIT_table+0x14>
  408e82:	468b      	mov	fp, r1
  408e84:	4658      	mov	r0, fp
  408e86:	b003      	add	sp, #12
  408e88:	e8bd 8ff0 	ldmia.w	sp!, {r4, r5, r6, r7, r8, r9, sl, fp, pc}
  408e8c:	f04f 0b00 	mov.w	fp, #0
  408e90:	e7f8      	b.n	408e84 <search_EIT_table+0x54>
  408e92:	45ca      	cmp	sl, r9
  408e94:	d8ec      	bhi.n	408e70 <search_EIT_table+0x40>
  408e96:	e7f5      	b.n	408e84 <search_EIT_table+0x54>

00408e98 <__gnu_unwind_get_pr_addr>:
  408e98:	2801      	cmp	r0, #1
  408e9a:	d007      	beq.n	408eac <__gnu_unwind_get_pr_addr+0x14>
  408e9c:	2802      	cmp	r0, #2
  408e9e:	d007      	beq.n	408eb0 <__gnu_unwind_get_pr_addr+0x18>
  408ea0:	4b04      	ldr	r3, [pc, #16]	; (408eb4 <__gnu_unwind_get_pr_addr+0x1c>)
  408ea2:	2800      	cmp	r0, #0
  408ea4:	bf0c      	ite	eq
  408ea6:	4618      	moveq	r0, r3
  408ea8:	2000      	movne	r0, #0
  408eaa:	4770      	bx	lr
  408eac:	4802      	ldr	r0, [pc, #8]	; (408eb8 <__gnu_unwind_get_pr_addr+0x20>)
  408eae:	4770      	bx	lr
  408eb0:	4802      	ldr	r0, [pc, #8]	; (408ebc <__gnu_unwind_get_pr_addr+0x24>)
  408eb2:	4770      	bx	lr
  408eb4:	00409539 	.word	0x00409539
  408eb8:	00409531 	.word	0x00409531
  408ebc:	00409529 	.word	0x00409529

00408ec0 <restore_non_core_regs>:
  408ec0:	6803      	ldr	r3, [r0, #0]
  408ec2:	b510      	push	{r4, lr}
  408ec4:	4604      	mov	r4, r0
  408ec6:	07d8      	lsls	r0, r3, #31
  408ec8:	d406      	bmi.n	408ed8 <restore_non_core_regs+0x18>
  408eca:	0799      	lsls	r1, r3, #30
  408ecc:	f104 0048 	add.w	r0, r4, #72	; 0x48
  408ed0:	d509      	bpl.n	408ee6 <restore_non_core_regs+0x26>
  408ed2:	f000 fcb5 	bl	409840 <__gnu_Unwind_Restore_VFP_D>
  408ed6:	6823      	ldr	r3, [r4, #0]
  408ed8:	075a      	lsls	r2, r3, #29
  408eda:	d509      	bpl.n	408ef0 <restore_non_core_regs+0x30>
  408edc:	0718      	lsls	r0, r3, #28
  408ede:	d50e      	bpl.n	408efe <restore_non_core_regs+0x3e>
  408ee0:	06d9      	lsls	r1, r3, #27
  408ee2:	d513      	bpl.n	408f0c <restore_non_core_regs+0x4c>
  408ee4:	bd10      	pop	{r4, pc}
  408ee6:	f000 fca3 	bl	409830 <__gnu_Unwind_Restore_VFP>
  408eea:	6823      	ldr	r3, [r4, #0]
  408eec:	075a      	lsls	r2, r3, #29
  408eee:	d4f5      	bmi.n	408edc <restore_non_core_regs+0x1c>
  408ef0:	f104 00d0 	add.w	r0, r4, #208	; 0xd0
  408ef4:	f000 fcac 	bl	409850 <__gnu_Unwind_Restore_VFP_D_16_to_31>
  408ef8:	6823      	ldr	r3, [r4, #0]
  408efa:	0718      	lsls	r0, r3, #28
  408efc:	d4f0      	bmi.n	408ee0 <restore_non_core_regs+0x20>
  408efe:	f504 70d8 	add.w	r0, r4, #432	; 0x1b0
  408f02:	f000 fcad 	bl	409860 <__gnu_Unwind_Restore_WMMXD>
  408f06:	6823      	ldr	r3, [r4, #0]
  408f08:	06d9      	lsls	r1, r3, #27
  408f0a:	d4eb      	bmi.n	408ee4 <restore_non_core_regs+0x24>
  408f0c:	f504 700c 	add.w	r0, r4, #560	; 0x230
  408f10:	e8bd 4010 	ldmia.w	sp!, {r4, lr}
  408f14:	f000 bce8 	b.w	4098e8 <__gnu_Unwind_Restore_WMMXC>

00408f18 <get_eit_entry>:
  408f18:	b530      	push	{r4, r5, lr}
  408f1a:	4b25      	ldr	r3, [pc, #148]	; (408fb0 <get_eit_entry+0x98>)
  408f1c:	b083      	sub	sp, #12
  408f1e:	4604      	mov	r4, r0
  408f20:	1e8d      	subs	r5, r1, #2
  408f22:	2b00      	cmp	r3, #0
  408f24:	d03c      	beq.n	408fa0 <get_eit_entry+0x88>
  408f26:	4628      	mov	r0, r5
  408f28:	a901      	add	r1, sp, #4
  408f2a:	f3af 8000 	nop.w
  408f2e:	4603      	mov	r3, r0
  408f30:	2b00      	cmp	r3, #0
  408f32:	d021      	beq.n	408f78 <get_eit_entry+0x60>
  408f34:	462a      	mov	r2, r5
  408f36:	9901      	ldr	r1, [sp, #4]
  408f38:	f7ff ff7a 	bl	408e30 <search_EIT_table>
  408f3c:	4605      	mov	r5, r0
  408f3e:	b1f0      	cbz	r0, 408f7e <get_eit_entry+0x66>
  408f40:	f7ff ff6c 	bl	408e1c <selfrel_offset31>
  408f44:	686b      	ldr	r3, [r5, #4]
  408f46:	64a0      	str	r0, [r4, #72]	; 0x48
  408f48:	2b01      	cmp	r3, #1
  408f4a:	d011      	beq.n	408f70 <get_eit_entry+0x58>
  408f4c:	1d28      	adds	r0, r5, #4
  408f4e:	2b00      	cmp	r3, #0
  408f50:	db22      	blt.n	408f98 <get_eit_entry+0x80>
  408f52:	f7ff ff63 	bl	408e1c <selfrel_offset31>
  408f56:	2300      	movs	r3, #0
  408f58:	64e0      	str	r0, [r4, #76]	; 0x4c
  408f5a:	6523      	str	r3, [r4, #80]	; 0x50
  408f5c:	6803      	ldr	r3, [r0, #0]
  408f5e:	2b00      	cmp	r3, #0
  408f60:	db10      	blt.n	408f84 <get_eit_entry+0x6c>
  408f62:	f7ff ff5b 	bl	408e1c <selfrel_offset31>
  408f66:	2300      	movs	r3, #0
  408f68:	6120      	str	r0, [r4, #16]
  408f6a:	4618      	mov	r0, r3
  408f6c:	b003      	add	sp, #12
  408f6e:	bd30      	pop	{r4, r5, pc}
  408f70:	2300      	movs	r3, #0
  408f72:	6123      	str	r3, [r4, #16]
  408f74:	2305      	movs	r3, #5
  408f76:	e7f8      	b.n	408f6a <get_eit_entry+0x52>
  408f78:	6123      	str	r3, [r4, #16]
  408f7a:	2309      	movs	r3, #9
  408f7c:	e7f5      	b.n	408f6a <get_eit_entry+0x52>
  408f7e:	6120      	str	r0, [r4, #16]
  408f80:	2309      	movs	r3, #9
  408f82:	e7f2      	b.n	408f6a <get_eit_entry+0x52>
  408f84:	f3c3 6003 	ubfx	r0, r3, #24, #4
  408f88:	f7ff ff86 	bl	408e98 <__gnu_unwind_get_pr_addr>
  408f8c:	6120      	str	r0, [r4, #16]
  408f8e:	2800      	cmp	r0, #0
  408f90:	bf0c      	ite	eq
  408f92:	2309      	moveq	r3, #9
  408f94:	2300      	movne	r3, #0
  408f96:	e7e8      	b.n	408f6a <get_eit_entry+0x52>
  408f98:	2301      	movs	r3, #1
  408f9a:	64e0      	str	r0, [r4, #76]	; 0x4c
  408f9c:	6523      	str	r3, [r4, #80]	; 0x50
  408f9e:	e7dd      	b.n	408f5c <get_eit_entry+0x44>
  408fa0:	4b04      	ldr	r3, [pc, #16]	; (408fb4 <get_eit_entry+0x9c>)
  408fa2:	4a05      	ldr	r2, [pc, #20]	; (408fb8 <get_eit_entry+0xa0>)
  408fa4:	4618      	mov	r0, r3
  408fa6:	1ad3      	subs	r3, r2, r3
  408fa8:	10db      	asrs	r3, r3, #3
  408faa:	9301      	str	r3, [sp, #4]
  408fac:	e7c2      	b.n	408f34 <get_eit_entry+0x1c>
  408fae:	bf00      	nop
  408fb0:	00000000 	.word	0x00000000
  408fb4:	0040a894 	.word	0x0040a894
  408fb8:	0040a96c 	.word	0x0040a96c

00408fbc <_Unwind_decode_typeinfo_ptr.isra.0>:
  408fbc:	6803      	ldr	r3, [r0, #0]
  408fbe:	b103      	cbz	r3, 408fc2 <_Unwind_decode_typeinfo_ptr.isra.0+0x6>
  408fc0:	181b      	adds	r3, r3, r0
  408fc2:	4618      	mov	r0, r3
  408fc4:	4770      	bx	lr
  408fc6:	bf00      	nop

00408fc8 <__gnu_unwind_24bit.isra.1>:
  408fc8:	2009      	movs	r0, #9
  408fca:	4770      	bx	lr

00408fcc <_Unwind_DebugHook>:
  408fcc:	4770      	bx	lr
  408fce:	bf00      	nop

00408fd0 <unwind_phase2_forced>:
  408fd0:	e92d 47f0 	stmdb	sp!, {r4, r5, r6, r7, r8, r9, sl, lr}
  408fd4:	f5ad 6d91 	sub.w	sp, sp, #1160	; 0x488
  408fd8:	ad03      	add	r5, sp, #12
  408fda:	1d0c      	adds	r4, r1, #4
  408fdc:	4606      	mov	r6, r0
  408fde:	4617      	mov	r7, r2
  408fe0:	cc0f      	ldmia	r4!, {r0, r1, r2, r3}
  408fe2:	c50f      	stmia	r5!, {r0, r1, r2, r3}
  408fe4:	cc0f      	ldmia	r4!, {r0, r1, r2, r3}
  408fe6:	c50f      	stmia	r5!, {r0, r1, r2, r3}
  408fe8:	cc0f      	ldmia	r4!, {r0, r1, r2, r3}
  408fea:	c50f      	stmia	r5!, {r0, r1, r2, r3}
  408fec:	e894 000f 	ldmia.w	r4, {r0, r1, r2, r3}
  408ff0:	ac02      	add	r4, sp, #8
  408ff2:	f8d6 800c 	ldr.w	r8, [r6, #12]
  408ff6:	f8d6 9018 	ldr.w	r9, [r6, #24]
  408ffa:	e885 000f 	stmia.w	r5, {r0, r1, r2, r3}
  408ffe:	2300      	movs	r3, #0
  409000:	4630      	mov	r0, r6
  409002:	6c21      	ldr	r1, [r4, #64]	; 0x40
  409004:	6023      	str	r3, [r4, #0]
  409006:	429f      	cmp	r7, r3
  409008:	bf14      	ite	ne
  40900a:	270a      	movne	r7, #10
  40900c:	2709      	moveq	r7, #9
  40900e:	f7ff ff83 	bl	408f18 <get_eit_entry>
  409012:	4605      	mov	r5, r0
  409014:	b195      	cbz	r5, 40903c <unwind_phase2_forced+0x6c>
  409016:	6ba3      	ldr	r3, [r4, #56]	; 0x38
  409018:	4632      	mov	r2, r6
  40901a:	6463      	str	r3, [r4, #68]	; 0x44
  40901c:	2001      	movs	r0, #1
  40901e:	e88d 0210 	stmia.w	sp, {r4, r9}
  409022:	f047 0110 	orr.w	r1, r7, #16
  409026:	4633      	mov	r3, r6
  409028:	47c0      	blx	r8
  40902a:	2800      	cmp	r0, #0
  40902c:	bf18      	it	ne
  40902e:	2509      	movne	r5, #9
  409030:	4628      	mov	r0, r5
  409032:	b022      	add	sp, #136	; 0x88
  409034:	f50d 6d80 	add.w	sp, sp, #1024	; 0x400
  409038:	e8bd 87f0 	ldmia.w	sp!, {r4, r5, r6, r7, r8, r9, sl, pc}
  40903c:	6c23      	ldr	r3, [r4, #64]	; 0x40
  40903e:	4621      	mov	r1, r4
  409040:	f44f 7210 	mov.w	r2, #576	; 0x240
  409044:	6173      	str	r3, [r6, #20]
  409046:	a892      	add	r0, sp, #584	; 0x248
  409048:	f7fc fd64 	bl	405b14 <memcpy>
  40904c:	4631      	mov	r1, r6
  40904e:	aa92      	add	r2, sp, #584	; 0x248
  409050:	6933      	ldr	r3, [r6, #16]
  409052:	4638      	mov	r0, r7
  409054:	4798      	blx	r3
  409056:	9ba0      	ldr	r3, [sp, #640]	; 0x280
  409058:	4682      	mov	sl, r0
  40905a:	9400      	str	r4, [sp, #0]
  40905c:	2001      	movs	r0, #1
  40905e:	6463      	str	r3, [r4, #68]	; 0x44
  409060:	4639      	mov	r1, r7
  409062:	f8cd 9004 	str.w	r9, [sp, #4]
  409066:	4632      	mov	r2, r6
  409068:	4633      	mov	r3, r6
  40906a:	47c0      	blx	r8
  40906c:	b990      	cbnz	r0, 409094 <unwind_phase2_forced+0xc4>
  40906e:	4620      	mov	r0, r4
  409070:	a992      	add	r1, sp, #584	; 0x248
  409072:	f44f 7210 	mov.w	r2, #576	; 0x240
  409076:	f7fc fd4d 	bl	405b14 <memcpy>
  40907a:	f1ba 0f08 	cmp.w	sl, #8
  40907e:	d106      	bne.n	40908e <unwind_phase2_forced+0xbe>
  409080:	4630      	mov	r0, r6
  409082:	6c21      	ldr	r1, [r4, #64]	; 0x40
  409084:	f7ff ff48 	bl	408f18 <get_eit_entry>
  409088:	2709      	movs	r7, #9
  40908a:	4605      	mov	r5, r0
  40908c:	e7c2      	b.n	409014 <unwind_phase2_forced+0x44>
  40908e:	f1ba 0f07 	cmp.w	sl, #7
  409092:	d001      	beq.n	409098 <unwind_phase2_forced+0xc8>
  409094:	2509      	movs	r5, #9
  409096:	e7cb      	b.n	409030 <unwind_phase2_forced+0x60>
  409098:	4628      	mov	r0, r5
  40909a:	6c21      	ldr	r1, [r4, #64]	; 0x40
  40909c:	f7ff ff96 	bl	408fcc <_Unwind_DebugHook>
  4090a0:	a803      	add	r0, sp, #12
  4090a2:	f000 fbb9 	bl	409818 <__restore_core_regs>
  4090a6:	bf00      	nop

004090a8 <unwind_phase2>:
  4090a8:	b570      	push	{r4, r5, r6, lr}
  4090aa:	4604      	mov	r4, r0
  4090ac:	460d      	mov	r5, r1
  4090ae:	4620      	mov	r0, r4
  4090b0:	6c29      	ldr	r1, [r5, #64]	; 0x40
  4090b2:	f7ff ff31 	bl	408f18 <get_eit_entry>
  4090b6:	4606      	mov	r6, r0
  4090b8:	b950      	cbnz	r0, 4090d0 <unwind_phase2+0x28>
  4090ba:	6c2a      	ldr	r2, [r5, #64]	; 0x40
  4090bc:	2001      	movs	r0, #1
  4090be:	6162      	str	r2, [r4, #20]
  4090c0:	6923      	ldr	r3, [r4, #16]
  4090c2:	4621      	mov	r1, r4
  4090c4:	462a      	mov	r2, r5
  4090c6:	4798      	blx	r3
  4090c8:	2808      	cmp	r0, #8
  4090ca:	d0f0      	beq.n	4090ae <unwind_phase2+0x6>
  4090cc:	2807      	cmp	r0, #7
  4090ce:	d001      	beq.n	4090d4 <unwind_phase2+0x2c>
  4090d0:	f7fe f8ac 	bl	40722c <abort>
  4090d4:	4630      	mov	r0, r6
  4090d6:	6c29      	ldr	r1, [r5, #64]	; 0x40
  4090d8:	f7ff ff78 	bl	408fcc <_Unwind_DebugHook>
  4090dc:	1d28      	adds	r0, r5, #4
  4090de:	f000 fb9b 	bl	409818 <__restore_core_regs>
  4090e2:	bf00      	nop

004090e4 <_Unwind_GetCFA>:
  4090e4:	6c40      	ldr	r0, [r0, #68]	; 0x44
  4090e6:	4770      	bx	lr

004090e8 <__gnu_Unwind_RaiseException>:
  4090e8:	b5f0      	push	{r4, r5, r6, r7, lr}
  4090ea:	6bcb      	ldr	r3, [r1, #60]	; 0x3c
  4090ec:	f5ad 7d11 	sub.w	sp, sp, #580	; 0x244
  4090f0:	640b      	str	r3, [r1, #64]	; 0x40
  4090f2:	ac01      	add	r4, sp, #4
  4090f4:	1d0d      	adds	r5, r1, #4
  4090f6:	460f      	mov	r7, r1
  4090f8:	4606      	mov	r6, r0
  4090fa:	cd0f      	ldmia	r5!, {r0, r1, r2, r3}
  4090fc:	c40f      	stmia	r4!, {r0, r1, r2, r3}
  4090fe:	cd0f      	ldmia	r5!, {r0, r1, r2, r3}
  409100:	c40f      	stmia	r4!, {r0, r1, r2, r3}
  409102:	cd0f      	ldmia	r5!, {r0, r1, r2, r3}
  409104:	c40f      	stmia	r4!, {r0, r1, r2, r3}
  409106:	e895 000f 	ldmia.w	r5, {r0, r1, r2, r3}
  40910a:	e884 000f 	stmia.w	r4, {r0, r1, r2, r3}
  40910e:	f04f 33ff 	mov.w	r3, #4294967295
  409112:	9300      	str	r3, [sp, #0]
  409114:	4630      	mov	r0, r6
  409116:	9910      	ldr	r1, [sp, #64]	; 0x40
  409118:	f7ff fefe 	bl	408f18 <get_eit_entry>
  40911c:	b958      	cbnz	r0, 409136 <__gnu_Unwind_RaiseException+0x4e>
  40911e:	6933      	ldr	r3, [r6, #16]
  409120:	4631      	mov	r1, r6
  409122:	466a      	mov	r2, sp
  409124:	4798      	blx	r3
  409126:	2808      	cmp	r0, #8
  409128:	4604      	mov	r4, r0
  40912a:	d0f3      	beq.n	409114 <__gnu_Unwind_RaiseException+0x2c>
  40912c:	4668      	mov	r0, sp
  40912e:	f7ff fec7 	bl	408ec0 <restore_non_core_regs>
  409132:	2c06      	cmp	r4, #6
  409134:	d003      	beq.n	40913e <__gnu_Unwind_RaiseException+0x56>
  409136:	2009      	movs	r0, #9
  409138:	f50d 7d11 	add.w	sp, sp, #580	; 0x244
  40913c:	bdf0      	pop	{r4, r5, r6, r7, pc}
  40913e:	4630      	mov	r0, r6
  409140:	4639      	mov	r1, r7
  409142:	f7ff ffb1 	bl	4090a8 <unwind_phase2>
  409146:	bf00      	nop

00409148 <__gnu_Unwind_ForcedUnwind>:
  409148:	b430      	push	{r4, r5}
  40914a:	6bdd      	ldr	r5, [r3, #60]	; 0x3c
  40914c:	4604      	mov	r4, r0
  40914e:	60c1      	str	r1, [r0, #12]
  409150:	6182      	str	r2, [r0, #24]
  409152:	4619      	mov	r1, r3
  409154:	2200      	movs	r2, #0
  409156:	641d      	str	r5, [r3, #64]	; 0x40
  409158:	bc30      	pop	{r4, r5}
  40915a:	f7ff bf39 	b.w	408fd0 <unwind_phase2_forced>
  40915e:	bf00      	nop

00409160 <__gnu_Unwind_Resume>:
  409160:	b570      	push	{r4, r5, r6, lr}
  409162:	6943      	ldr	r3, [r0, #20]
  409164:	68c6      	ldr	r6, [r0, #12]
  409166:	4604      	mov	r4, r0
  409168:	460d      	mov	r5, r1
  40916a:	640b      	str	r3, [r1, #64]	; 0x40
  40916c:	b126      	cbz	r6, 409178 <__gnu_Unwind_Resume+0x18>
  40916e:	2201      	movs	r2, #1
  409170:	f7ff ff2e 	bl	408fd0 <unwind_phase2_forced>
  409174:	f7fe f85a 	bl	40722c <abort>
  409178:	6903      	ldr	r3, [r0, #16]
  40917a:	4621      	mov	r1, r4
  40917c:	2002      	movs	r0, #2
  40917e:	462a      	mov	r2, r5
  409180:	4798      	blx	r3
  409182:	2807      	cmp	r0, #7
  409184:	d003      	beq.n	40918e <__gnu_Unwind_Resume+0x2e>
  409186:	2808      	cmp	r0, #8
  409188:	d008      	beq.n	40919c <__gnu_Unwind_Resume+0x3c>
  40918a:	f7fe f84f 	bl	40722c <abort>
  40918e:	4630      	mov	r0, r6
  409190:	6c29      	ldr	r1, [r5, #64]	; 0x40
  409192:	f7ff ff1b 	bl	408fcc <_Unwind_DebugHook>
  409196:	1d28      	adds	r0, r5, #4
  409198:	f000 fb3e 	bl	409818 <__restore_core_regs>
  40919c:	4620      	mov	r0, r4
  40919e:	4629      	mov	r1, r5
  4091a0:	f7ff ff82 	bl	4090a8 <unwind_phase2>

004091a4 <__gnu_Unwind_Resume_or_Rethrow>:
  4091a4:	68c2      	ldr	r2, [r0, #12]
  4091a6:	b410      	push	{r4}
  4091a8:	b12a      	cbz	r2, 4091b6 <__gnu_Unwind_Resume_or_Rethrow+0x12>
  4091aa:	6bcc      	ldr	r4, [r1, #60]	; 0x3c
  4091ac:	2200      	movs	r2, #0
  4091ae:	640c      	str	r4, [r1, #64]	; 0x40
  4091b0:	bc10      	pop	{r4}
  4091b2:	f7ff bf0d 	b.w	408fd0 <unwind_phase2_forced>
  4091b6:	bc10      	pop	{r4}
  4091b8:	f7ff bf96 	b.w	4090e8 <__gnu_Unwind_RaiseException>

004091bc <_Unwind_Complete>:
  4091bc:	4770      	bx	lr
  4091be:	bf00      	nop

004091c0 <_Unwind_DeleteException>:
  4091c0:	b508      	push	{r3, lr}
  4091c2:	6883      	ldr	r3, [r0, #8]
  4091c4:	4601      	mov	r1, r0
  4091c6:	b10b      	cbz	r3, 4091cc <_Unwind_DeleteException+0xc>
  4091c8:	2001      	movs	r0, #1
  4091ca:	4798      	blx	r3
  4091cc:	bd08      	pop	{r3, pc}
  4091ce:	bf00      	nop

004091d0 <_Unwind_VRS_Get>:
  4091d0:	b979      	cbnz	r1, 4091f2 <_Unwind_VRS_Get+0x22>
  4091d2:	2a0f      	cmp	r2, #15
  4091d4:	bf98      	it	ls
  4091d6:	2b00      	cmpls	r3, #0
  4091d8:	bf0c      	ite	eq
  4091da:	2300      	moveq	r3, #0
  4091dc:	2301      	movne	r3, #1
  4091de:	bf01      	itttt	eq
  4091e0:	eb00 0282 	addeq.w	r2, r0, r2, lsl #2
  4091e4:	6852      	ldreq	r2, [r2, #4]
  4091e6:	4618      	moveq	r0, r3
  4091e8:	9b00      	ldreq	r3, [sp, #0]
  4091ea:	bf0c      	ite	eq
  4091ec:	601a      	streq	r2, [r3, #0]
  4091ee:	2002      	movne	r0, #2
  4091f0:	4770      	bx	lr
  4091f2:	2904      	cmp	r1, #4
  4091f4:	bf8c      	ite	hi
  4091f6:	2002      	movhi	r0, #2
  4091f8:	2001      	movls	r0, #1
  4091fa:	4770      	bx	lr

004091fc <_Unwind_GetGR>:
  4091fc:	b500      	push	{lr}
  4091fe:	b085      	sub	sp, #20
  409200:	460a      	mov	r2, r1
  409202:	ab03      	add	r3, sp, #12
  409204:	2100      	movs	r1, #0
  409206:	9300      	str	r3, [sp, #0]
  409208:	460b      	mov	r3, r1
  40920a:	f7ff ffe1 	bl	4091d0 <_Unwind_VRS_Get>
  40920e:	9803      	ldr	r0, [sp, #12]
  409210:	b005      	add	sp, #20
  409212:	bd00      	pop	{pc}

00409214 <_Unwind_VRS_Set>:
  409214:	b979      	cbnz	r1, 409236 <_Unwind_VRS_Set+0x22>
  409216:	2a0f      	cmp	r2, #15
  409218:	bf98      	it	ls
  40921a:	2b00      	cmpls	r3, #0
  40921c:	bf02      	ittt	eq
  40921e:	9900      	ldreq	r1, [sp, #0]
  409220:	eb00 0282 	addeq.w	r2, r0, r2, lsl #2
  409224:	6809      	ldreq	r1, [r1, #0]
  409226:	bf0c      	ite	eq
  409228:	2300      	moveq	r3, #0
  40922a:	2301      	movne	r3, #1
  40922c:	bf06      	itte	eq
  40922e:	4618      	moveq	r0, r3
  409230:	6051      	streq	r1, [r2, #4]
  409232:	2002      	movne	r0, #2
  409234:	4770      	bx	lr
  409236:	2904      	cmp	r1, #4
  409238:	bf8c      	ite	hi
  40923a:	2002      	movhi	r0, #2
  40923c:	2001      	movls	r0, #1
  40923e:	4770      	bx	lr

00409240 <_Unwind_SetGR>:
  409240:	b510      	push	{r4, lr}
  409242:	b084      	sub	sp, #16
  409244:	ab04      	add	r3, sp, #16
  409246:	460c      	mov	r4, r1
  409248:	f843 2d04 	str.w	r2, [r3, #-4]!
  40924c:	2100      	movs	r1, #0
  40924e:	9300      	str	r3, [sp, #0]
  409250:	4622      	mov	r2, r4
  409252:	460b      	mov	r3, r1
  409254:	f7ff ffde 	bl	409214 <_Unwind_VRS_Set>
  409258:	b004      	add	sp, #16
  40925a:	bd10      	pop	{r4, pc}

0040925c <__gnu_unwind_pr_common>:
  40925c:	e92d 4ff0 	stmdb	sp!, {r4, r5, r6, r7, r8, r9, sl, fp, lr}
  409260:	6cce      	ldr	r6, [r1, #76]	; 0x4c
  409262:	460c      	mov	r4, r1
  409264:	f856 1b04 	ldr.w	r1, [r6], #4
  409268:	b08b      	sub	sp, #44	; 0x2c
  40926a:	461d      	mov	r5, r3
  40926c:	4617      	mov	r7, r2
  40926e:	f000 0803 	and.w	r8, r0, #3
  409272:	9107      	str	r1, [sp, #28]
  409274:	9608      	str	r6, [sp, #32]
  409276:	b9e3      	cbnz	r3, 4092b2 <__gnu_unwind_pr_common+0x56>
  409278:	0209      	lsls	r1, r1, #8
  40927a:	f88d 3025 	strb.w	r3, [sp, #37]	; 0x25
  40927e:	2303      	movs	r3, #3
  409280:	9107      	str	r1, [sp, #28]
  409282:	f88d 3024 	strb.w	r3, [sp, #36]	; 0x24
  409286:	6d23      	ldr	r3, [r4, #80]	; 0x50
  409288:	f1b8 0f02 	cmp.w	r8, #2
  40928c:	bf08      	it	eq
  40928e:	6ba6      	ldreq	r6, [r4, #56]	; 0x38
  409290:	f013 0301 	ands.w	r3, r3, #1
  409294:	d01b      	beq.n	4092ce <__gnu_unwind_pr_common+0x72>
  409296:	2200      	movs	r2, #0
  409298:	9201      	str	r2, [sp, #4]
  40929a:	2d02      	cmp	r5, #2
  40929c:	f340 80b3 	ble.w	409406 <__gnu_unwind_pr_common+0x1aa>
  4092a0:	f7ff fe92 	bl	408fc8 <__gnu_unwind_24bit.isra.1>
  4092a4:	2800      	cmp	r0, #0
  4092a6:	f000 80b5 	beq.w	409414 <__gnu_unwind_pr_common+0x1b8>
  4092aa:	2009      	movs	r0, #9
  4092ac:	b00b      	add	sp, #44	; 0x2c
  4092ae:	e8bd 8ff0 	ldmia.w	sp!, {r4, r5, r6, r7, r8, r9, sl, fp, pc}
  4092b2:	2b02      	cmp	r3, #2
  4092b4:	dce7      	bgt.n	409286 <__gnu_unwind_pr_common+0x2a>
  4092b6:	0c0b      	lsrs	r3, r1, #16
  4092b8:	b2da      	uxtb	r2, r3
  4092ba:	0409      	lsls	r1, r1, #16
  4092bc:	f88d 3025 	strb.w	r3, [sp, #37]	; 0x25
  4092c0:	2302      	movs	r3, #2
  4092c2:	9107      	str	r1, [sp, #28]
  4092c4:	f88d 3024 	strb.w	r3, [sp, #36]	; 0x24
  4092c8:	eb06 0682 	add.w	r6, r6, r2, lsl #2
  4092cc:	e7db      	b.n	409286 <__gnu_unwind_pr_common+0x2a>
  4092ce:	f000 0008 	and.w	r0, r0, #8
  4092d2:	f104 0258 	add.w	r2, r4, #88	; 0x58
  4092d6:	b2c0      	uxtb	r0, r0
  4092d8:	9301      	str	r3, [sp, #4]
  4092da:	9202      	str	r2, [sp, #8]
  4092dc:	9003      	str	r0, [sp, #12]
  4092de:	46aa      	mov	sl, r5
  4092e0:	6835      	ldr	r5, [r6, #0]
  4092e2:	2d00      	cmp	r5, #0
  4092e4:	f000 80fb 	beq.w	4094de <__gnu_unwind_pr_common+0x282>
  4092e8:	f1ba 0f02 	cmp.w	sl, #2
  4092ec:	f000 8087 	beq.w	4093fe <__gnu_unwind_pr_common+0x1a2>
  4092f0:	8835      	ldrh	r5, [r6, #0]
  4092f2:	f8b6 9002 	ldrh.w	r9, [r6, #2]
  4092f6:	3604      	adds	r6, #4
  4092f8:	6ca3      	ldr	r3, [r4, #72]	; 0x48
  4092fa:	210f      	movs	r1, #15
  4092fc:	f029 0b01 	bic.w	fp, r9, #1
  409300:	4638      	mov	r0, r7
  409302:	449b      	add	fp, r3
  409304:	f7ff ff7a 	bl	4091fc <_Unwind_GetGR>
  409308:	4583      	cmp	fp, r0
  40930a:	d81a      	bhi.n	409342 <__gnu_unwind_pr_common+0xe6>
  40930c:	f025 0301 	bic.w	r3, r5, #1
  409310:	449b      	add	fp, r3
  409312:	f009 0901 	and.w	r9, r9, #1
  409316:	f005 0501 	and.w	r5, r5, #1
  40931a:	4558      	cmp	r0, fp
  40931c:	ea45 0549 	orr.w	r5, r5, r9, lsl #1
  409320:	bf2c      	ite	cs
  409322:	2000      	movcs	r0, #0
  409324:	2001      	movcc	r0, #1
  409326:	2d01      	cmp	r5, #1
  409328:	d014      	beq.n	409354 <__gnu_unwind_pr_common+0xf8>
  40932a:	d22e      	bcs.n	40938a <__gnu_unwind_pr_common+0x12e>
  40932c:	f1b8 0f00 	cmp.w	r8, #0
  409330:	bf0c      	ite	eq
  409332:	2000      	moveq	r0, #0
  409334:	f000 0001 	andne.w	r0, r0, #1
  409338:	2800      	cmp	r0, #0
  40933a:	f040 80bd 	bne.w	4094b8 <__gnu_unwind_pr_common+0x25c>
  40933e:	3604      	adds	r6, #4
  409340:	e7ce      	b.n	4092e0 <__gnu_unwind_pr_common+0x84>
  409342:	f009 0901 	and.w	r9, r9, #1
  409346:	f005 0501 	and.w	r5, r5, #1
  40934a:	ea45 0549 	orr.w	r5, r5, r9, lsl #1
  40934e:	2000      	movs	r0, #0
  409350:	2d01      	cmp	r5, #1
  409352:	d1ea      	bne.n	40932a <__gnu_unwind_pr_common+0xce>
  409354:	f1b8 0f00 	cmp.w	r8, #0
  409358:	d171      	bne.n	40943e <__gnu_unwind_pr_common+0x1e2>
  40935a:	b1a0      	cbz	r0, 409386 <__gnu_unwind_pr_common+0x12a>
  40935c:	6873      	ldr	r3, [r6, #4]
  40935e:	6835      	ldr	r5, [r6, #0]
  409360:	1c9a      	adds	r2, r3, #2
  409362:	d0a2      	beq.n	4092aa <__gnu_unwind_pr_common+0x4e>
  409364:	9a02      	ldr	r2, [sp, #8]
  409366:	3301      	adds	r3, #1
  409368:	9206      	str	r2, [sp, #24]
  40936a:	f000 809b 	beq.w	4094a4 <__gnu_unwind_pr_common+0x248>
  40936e:	1d30      	adds	r0, r6, #4
  409370:	f7ff fe24 	bl	408fbc <_Unwind_decode_typeinfo_ptr.isra.0>
  409374:	0fea      	lsrs	r2, r5, #31
  409376:	4601      	mov	r1, r0
  409378:	ab06      	add	r3, sp, #24
  40937a:	4620      	mov	r0, r4
  40937c:	f3af 8000 	nop.w
  409380:	2800      	cmp	r0, #0
  409382:	f040 80bf 	bne.w	409504 <__gnu_unwind_pr_common+0x2a8>
  409386:	3608      	adds	r6, #8
  409388:	e7aa      	b.n	4092e0 <__gnu_unwind_pr_common+0x84>
  40938a:	2d02      	cmp	r5, #2
  40938c:	d18d      	bne.n	4092aa <__gnu_unwind_pr_common+0x4e>
  40938e:	6833      	ldr	r3, [r6, #0]
  409390:	f023 4500 	bic.w	r5, r3, #2147483648	; 0x80000000
  409394:	f1b8 0f00 	cmp.w	r8, #0
  409398:	d16a      	bne.n	409470 <__gnu_unwind_pr_common+0x214>
  40939a:	b350      	cbz	r0, 4093f2 <__gnu_unwind_pr_common+0x196>
  40939c:	9a03      	ldr	r2, [sp, #12]
  40939e:	2a00      	cmp	r2, #0
  4093a0:	bf18      	it	ne
  4093a2:	2d00      	cmpne	r5, #0
  4093a4:	d125      	bne.n	4093f2 <__gnu_unwind_pr_common+0x196>
  4093a6:	2d00      	cmp	r5, #0
  4093a8:	f000 809c 	beq.w	4094e4 <__gnu_unwind_pr_common+0x288>
  4093ac:	f106 0b04 	add.w	fp, r6, #4
  4093b0:	46c1      	mov	r9, r8
  4093b2:	9604      	str	r6, [sp, #16]
  4093b4:	f8cd 8014 	str.w	r8, [sp, #20]
  4093b8:	9e02      	ldr	r6, [sp, #8]
  4093ba:	46d8      	mov	r8, fp
  4093bc:	e003      	b.n	4093c6 <__gnu_unwind_pr_common+0x16a>
  4093be:	45ab      	cmp	fp, r5
  4093c0:	46d9      	mov	r9, fp
  4093c2:	f000 808e 	beq.w	4094e2 <__gnu_unwind_pr_common+0x286>
  4093c6:	4640      	mov	r0, r8
  4093c8:	9606      	str	r6, [sp, #24]
  4093ca:	f7ff fdf7 	bl	408fbc <_Unwind_decode_typeinfo_ptr.isra.0>
  4093ce:	2200      	movs	r2, #0
  4093d0:	4601      	mov	r1, r0
  4093d2:	ab06      	add	r3, sp, #24
  4093d4:	4620      	mov	r0, r4
  4093d6:	f3af 8000 	nop.w
  4093da:	f109 0b01 	add.w	fp, r9, #1
  4093de:	f108 0804 	add.w	r8, r8, #4
  4093e2:	2800      	cmp	r0, #0
  4093e4:	d0eb      	beq.n	4093be <__gnu_unwind_pr_common+0x162>
  4093e6:	454d      	cmp	r5, r9
  4093e8:	9e04      	ldr	r6, [sp, #16]
  4093ea:	f8dd 8014 	ldr.w	r8, [sp, #20]
  4093ee:	d079      	beq.n	4094e4 <__gnu_unwind_pr_common+0x288>
  4093f0:	6833      	ldr	r3, [r6, #0]
  4093f2:	2b00      	cmp	r3, #0
  4093f4:	db54      	blt.n	4094a0 <__gnu_unwind_pr_common+0x244>
  4093f6:	3501      	adds	r5, #1
  4093f8:	eb06 0685 	add.w	r6, r6, r5, lsl #2
  4093fc:	e770      	b.n	4092e0 <__gnu_unwind_pr_common+0x84>
  4093fe:	f8d6 9004 	ldr.w	r9, [r6, #4]
  409402:	3608      	adds	r6, #8
  409404:	e778      	b.n	4092f8 <__gnu_unwind_pr_common+0x9c>
  409406:	4638      	mov	r0, r7
  409408:	a907      	add	r1, sp, #28
  40940a:	f000 fb01 	bl	409a10 <__gnu_unwind_execute>
  40940e:	2800      	cmp	r0, #0
  409410:	f47f af4b 	bne.w	4092aa <__gnu_unwind_pr_common+0x4e>
  409414:	9b01      	ldr	r3, [sp, #4]
  409416:	2008      	movs	r0, #8
  409418:	2b00      	cmp	r3, #0
  40941a:	f43f af47 	beq.w	4092ac <__gnu_unwind_pr_common+0x50>
  40941e:	210f      	movs	r1, #15
  409420:	4638      	mov	r0, r7
  409422:	f7ff feeb 	bl	4091fc <_Unwind_GetGR>
  409426:	210e      	movs	r1, #14
  409428:	4602      	mov	r2, r0
  40942a:	4638      	mov	r0, r7
  40942c:	f7ff ff08 	bl	409240 <_Unwind_SetGR>
  409430:	4638      	mov	r0, r7
  409432:	210f      	movs	r1, #15
  409434:	4a3b      	ldr	r2, [pc, #236]	; (409524 <__gnu_unwind_pr_common+0x2c8>)
  409436:	f7ff ff03 	bl	409240 <_Unwind_SetGR>
  40943a:	2007      	movs	r0, #7
  40943c:	e736      	b.n	4092ac <__gnu_unwind_pr_common+0x50>
  40943e:	210d      	movs	r1, #13
  409440:	4638      	mov	r0, r7
  409442:	6a25      	ldr	r5, [r4, #32]
  409444:	f7ff feda 	bl	4091fc <_Unwind_GetGR>
  409448:	4285      	cmp	r5, r0
  40944a:	d19c      	bne.n	409386 <__gnu_unwind_pr_common+0x12a>
  40944c:	6aa3      	ldr	r3, [r4, #40]	; 0x28
  40944e:	429e      	cmp	r6, r3
  409450:	d199      	bne.n	409386 <__gnu_unwind_pr_common+0x12a>
  409452:	4630      	mov	r0, r6
  409454:	f7ff fce2 	bl	408e1c <selfrel_offset31>
  409458:	210f      	movs	r1, #15
  40945a:	4602      	mov	r2, r0
  40945c:	4638      	mov	r0, r7
  40945e:	f7ff feef 	bl	409240 <_Unwind_SetGR>
  409462:	4638      	mov	r0, r7
  409464:	2100      	movs	r1, #0
  409466:	4622      	mov	r2, r4
  409468:	f7ff feea 	bl	409240 <_Unwind_SetGR>
  40946c:	2007      	movs	r0, #7
  40946e:	e71d      	b.n	4092ac <__gnu_unwind_pr_common+0x50>
  409470:	210d      	movs	r1, #13
  409472:	4638      	mov	r0, r7
  409474:	f8d4 9020 	ldr.w	r9, [r4, #32]
  409478:	f7ff fec0 	bl	4091fc <_Unwind_GetGR>
  40947c:	4581      	cmp	r9, r0
  40947e:	d1b7      	bne.n	4093f0 <__gnu_unwind_pr_common+0x194>
  409480:	6aa3      	ldr	r3, [r4, #40]	; 0x28
  409482:	429e      	cmp	r6, r3
  409484:	d1b4      	bne.n	4093f0 <__gnu_unwind_pr_common+0x194>
  409486:	2200      	movs	r2, #0
  409488:	1d33      	adds	r3, r6, #4
  40948a:	62e2      	str	r2, [r4, #44]	; 0x2c
  40948c:	2204      	movs	r2, #4
  40948e:	62a5      	str	r5, [r4, #40]	; 0x28
  409490:	6322      	str	r2, [r4, #48]	; 0x30
  409492:	6363      	str	r3, [r4, #52]	; 0x34
  409494:	6833      	ldr	r3, [r6, #0]
  409496:	2b00      	cmp	r3, #0
  409498:	db2e      	blt.n	4094f8 <__gnu_unwind_pr_common+0x29c>
  40949a:	2301      	movs	r3, #1
  40949c:	9301      	str	r3, [sp, #4]
  40949e:	e7aa      	b.n	4093f6 <__gnu_unwind_pr_common+0x19a>
  4094a0:	3604      	adds	r6, #4
  4094a2:	e7a8      	b.n	4093f6 <__gnu_unwind_pr_common+0x19a>
  4094a4:	4638      	mov	r0, r7
  4094a6:	210d      	movs	r1, #13
  4094a8:	f7ff fea8 	bl	4091fc <_Unwind_GetGR>
  4094ac:	6220      	str	r0, [r4, #32]
  4094ae:	9b06      	ldr	r3, [sp, #24]
  4094b0:	6263      	str	r3, [r4, #36]	; 0x24
  4094b2:	62a6      	str	r6, [r4, #40]	; 0x28
  4094b4:	2006      	movs	r0, #6
  4094b6:	e6f9      	b.n	4092ac <__gnu_unwind_pr_common+0x50>
  4094b8:	4630      	mov	r0, r6
  4094ba:	f7ff fcaf 	bl	408e1c <selfrel_offset31>
  4094be:	3604      	adds	r6, #4
  4094c0:	4605      	mov	r5, r0
  4094c2:	63a6      	str	r6, [r4, #56]	; 0x38
  4094c4:	4620      	mov	r0, r4
  4094c6:	f3af 8000 	nop.w
  4094ca:	2800      	cmp	r0, #0
  4094cc:	f43f aeed 	beq.w	4092aa <__gnu_unwind_pr_common+0x4e>
  4094d0:	4638      	mov	r0, r7
  4094d2:	210f      	movs	r1, #15
  4094d4:	462a      	mov	r2, r5
  4094d6:	f7ff feb3 	bl	409240 <_Unwind_SetGR>
  4094da:	2007      	movs	r0, #7
  4094dc:	e6e6      	b.n	4092ac <__gnu_unwind_pr_common+0x50>
  4094de:	4655      	mov	r5, sl
  4094e0:	e6db      	b.n	40929a <__gnu_unwind_pr_common+0x3e>
  4094e2:	9e04      	ldr	r6, [sp, #16]
  4094e4:	4638      	mov	r0, r7
  4094e6:	210d      	movs	r1, #13
  4094e8:	f7ff fe88 	bl	4091fc <_Unwind_GetGR>
  4094ec:	9b06      	ldr	r3, [sp, #24]
  4094ee:	6220      	str	r0, [r4, #32]
  4094f0:	6263      	str	r3, [r4, #36]	; 0x24
  4094f2:	62a6      	str	r6, [r4, #40]	; 0x28
  4094f4:	2006      	movs	r0, #6
  4094f6:	e6d9      	b.n	4092ac <__gnu_unwind_pr_common+0x50>
  4094f8:	f105 0001 	add.w	r0, r5, #1
  4094fc:	46a9      	mov	r9, r5
  4094fe:	eb06 0080 	add.w	r0, r6, r0, lsl #2
  409502:	e7a7      	b.n	409454 <__gnu_unwind_pr_common+0x1f8>
  409504:	4603      	mov	r3, r0
  409506:	210d      	movs	r1, #13
  409508:	4638      	mov	r0, r7
  40950a:	9300      	str	r3, [sp, #0]
  40950c:	f7ff fe76 	bl	4091fc <_Unwind_GetGR>
  409510:	9b00      	ldr	r3, [sp, #0]
  409512:	6220      	str	r0, [r4, #32]
  409514:	2b02      	cmp	r3, #2
  409516:	d1ca      	bne.n	4094ae <__gnu_unwind_pr_common+0x252>
  409518:	9a06      	ldr	r2, [sp, #24]
  40951a:	4623      	mov	r3, r4
  40951c:	f843 2f2c 	str.w	r2, [r3, #44]!
  409520:	6263      	str	r3, [r4, #36]	; 0x24
  409522:	e7c6      	b.n	4094b2 <__gnu_unwind_pr_common+0x256>
  409524:	00000000 	.word	0x00000000

00409528 <__aeabi_unwind_cpp_pr2>:
  409528:	2302      	movs	r3, #2
  40952a:	f7ff be97 	b.w	40925c <__gnu_unwind_pr_common>
  40952e:	bf00      	nop

00409530 <__aeabi_unwind_cpp_pr1>:
  409530:	2301      	movs	r3, #1
  409532:	f7ff be93 	b.w	40925c <__gnu_unwind_pr_common>
  409536:	bf00      	nop

00409538 <__aeabi_unwind_cpp_pr0>:
  409538:	2300      	movs	r3, #0
  40953a:	f7ff be8f 	b.w	40925c <__gnu_unwind_pr_common>
  40953e:	bf00      	nop

00409540 <__gnu_Unwind_Backtrace>:
  409540:	b5f0      	push	{r4, r5, r6, r7, lr}
  409542:	6bd3      	ldr	r3, [r2, #60]	; 0x3c
  409544:	f5ad 7d27 	sub.w	sp, sp, #668	; 0x29c
  409548:	6413      	str	r3, [r2, #64]	; 0x40
  40954a:	ac17      	add	r4, sp, #92	; 0x5c
  40954c:	1d15      	adds	r5, r2, #4
  40954e:	4607      	mov	r7, r0
  409550:	460e      	mov	r6, r1
  409552:	cd0f      	ldmia	r5!, {r0, r1, r2, r3}
  409554:	c40f      	stmia	r4!, {r0, r1, r2, r3}
  409556:	cd0f      	ldmia	r5!, {r0, r1, r2, r3}
  409558:	c40f      	stmia	r4!, {r0, r1, r2, r3}
  40955a:	cd0f      	ldmia	r5!, {r0, r1, r2, r3}
  40955c:	c40f      	stmia	r4!, {r0, r1, r2, r3}
  40955e:	e895 000f 	ldmia.w	r5, {r0, r1, r2, r3}
  409562:	e884 000f 	stmia.w	r4, {r0, r1, r2, r3}
  409566:	f04f 33ff 	mov.w	r3, #4294967295
  40956a:	9316      	str	r3, [sp, #88]	; 0x58
  40956c:	9926      	ldr	r1, [sp, #152]	; 0x98
  40956e:	4668      	mov	r0, sp
  409570:	f7ff fcd2 	bl	408f18 <get_eit_entry>
  409574:	466a      	mov	r2, sp
  409576:	210c      	movs	r1, #12
  409578:	b9b8      	cbnz	r0, 4095aa <__gnu_Unwind_Backtrace+0x6a>
  40957a:	a816      	add	r0, sp, #88	; 0x58
  40957c:	f7ff fe60 	bl	409240 <_Unwind_SetGR>
  409580:	4631      	mov	r1, r6
  409582:	a816      	add	r0, sp, #88	; 0x58
  409584:	47b8      	blx	r7
  409586:	4669      	mov	r1, sp
  409588:	aa16      	add	r2, sp, #88	; 0x58
  40958a:	b970      	cbnz	r0, 4095aa <__gnu_Unwind_Backtrace+0x6a>
  40958c:	2008      	movs	r0, #8
  40958e:	9b04      	ldr	r3, [sp, #16]
  409590:	4798      	blx	r3
  409592:	2809      	cmp	r0, #9
  409594:	bf18      	it	ne
  409596:	2805      	cmpne	r0, #5
  409598:	4604      	mov	r4, r0
  40959a:	d1e7      	bne.n	40956c <__gnu_Unwind_Backtrace+0x2c>
  40959c:	a816      	add	r0, sp, #88	; 0x58
  40959e:	f7ff fc8f 	bl	408ec0 <restore_non_core_regs>
  4095a2:	4620      	mov	r0, r4
  4095a4:	f50d 7d27 	add.w	sp, sp, #668	; 0x29c
  4095a8:	bdf0      	pop	{r4, r5, r6, r7, pc}
  4095aa:	2409      	movs	r4, #9
  4095ac:	e7f6      	b.n	40959c <__gnu_Unwind_Backtrace+0x5c>
  4095ae:	bf00      	nop

004095b0 <_Unwind_VRS_Pop>:
  4095b0:	e92d 41f0 	stmdb	sp!, {r4, r5, r6, r7, r8, lr}
  4095b4:	4604      	mov	r4, r0
  4095b6:	b0e8      	sub	sp, #416	; 0x1a0
  4095b8:	2904      	cmp	r1, #4
  4095ba:	d807      	bhi.n	4095cc <_Unwind_VRS_Pop+0x1c>
  4095bc:	e8df f001 	tbb	[pc, r1]
  4095c0:	0344462c 	.word	0x0344462c
  4095c4:	0a          	.byte	0x0a
  4095c5:	00          	.byte	0x00
  4095c6:	2b03      	cmp	r3, #3
  4095c8:	f000 80c3 	beq.w	409752 <_Unwind_VRS_Pop+0x1a2>
  4095cc:	2002      	movs	r0, #2
  4095ce:	b068      	add	sp, #416	; 0x1a0
  4095d0:	e8bd 81f0 	ldmia.w	sp!, {r4, r5, r6, r7, r8, pc}
  4095d4:	2a10      	cmp	r2, #16
  4095d6:	bf98      	it	ls
  4095d8:	2b00      	cmpls	r3, #0
  4095da:	d1f7      	bne.n	4095cc <_Unwind_VRS_Pop+0x1c>
  4095dc:	6823      	ldr	r3, [r4, #0]
  4095de:	06d9      	lsls	r1, r3, #27
  4095e0:	f100 80db 	bmi.w	40979a <_Unwind_VRS_Pop+0x1ea>
  4095e4:	a802      	add	r0, sp, #8
  4095e6:	9201      	str	r2, [sp, #4]
  4095e8:	f000 f988 	bl	4098fc <__gnu_Unwind_Save_WMMXC>
  4095ec:	6ba0      	ldr	r0, [r4, #56]	; 0x38
  4095ee:	9a01      	ldr	r2, [sp, #4]
  4095f0:	2300      	movs	r3, #0
  4095f2:	2501      	movs	r5, #1
  4095f4:	fa05 f103 	lsl.w	r1, r5, r3
  4095f8:	4211      	tst	r1, r2
  4095fa:	bf1e      	ittt	ne
  4095fc:	f850 1b04 	ldrne.w	r1, [r0], #4
  409600:	ae02      	addne	r6, sp, #8
  409602:	f846 1023 	strne.w	r1, [r6, r3, lsl #2]
  409606:	3301      	adds	r3, #1
  409608:	2b04      	cmp	r3, #4
  40960a:	d1f3      	bne.n	4095f4 <_Unwind_VRS_Pop+0x44>
  40960c:	63a0      	str	r0, [r4, #56]	; 0x38
  40960e:	a802      	add	r0, sp, #8
  409610:	f000 f96a 	bl	4098e8 <__gnu_Unwind_Restore_WMMXC>
  409614:	2000      	movs	r0, #0
  409616:	e7da      	b.n	4095ce <_Unwind_VRS_Pop+0x1e>
  409618:	2b00      	cmp	r3, #0
  40961a:	d1d7      	bne.n	4095cc <_Unwind_VRS_Pop+0x1c>
  40961c:	6ba5      	ldr	r5, [r4, #56]	; 0x38
  40961e:	b296      	uxth	r6, r2
  409620:	2001      	movs	r0, #1
  409622:	fa00 f103 	lsl.w	r1, r0, r3
  409626:	4231      	tst	r1, r6
  409628:	bf1e      	ittt	ne
  40962a:	f855 7b04 	ldrne.w	r7, [r5], #4
  40962e:	eb04 0183 	addne.w	r1, r4, r3, lsl #2
  409632:	604f      	strne	r7, [r1, #4]
  409634:	3301      	adds	r3, #1
  409636:	2b10      	cmp	r3, #16
  409638:	d1f3      	bne.n	409622 <_Unwind_VRS_Pop+0x72>
  40963a:	f412 5000 	ands.w	r0, r2, #8192	; 0x2000
  40963e:	bf08      	it	eq
  409640:	63a5      	streq	r5, [r4, #56]	; 0x38
  409642:	d0c4      	beq.n	4095ce <_Unwind_VRS_Pop+0x1e>
  409644:	2000      	movs	r0, #0
  409646:	e7c2      	b.n	4095ce <_Unwind_VRS_Pop+0x1e>
  409648:	2001      	movs	r0, #1
  40964a:	e7c0      	b.n	4095ce <_Unwind_VRS_Pop+0x1e>
  40964c:	f003 01fb 	and.w	r1, r3, #251	; 0xfb
  409650:	2901      	cmp	r1, #1
  409652:	d1bb      	bne.n	4095cc <_Unwind_VRS_Pop+0x1c>
  409654:	0c15      	lsrs	r5, r2, #16
  409656:	b296      	uxth	r6, r2
  409658:	1972      	adds	r2, r6, r5
  40965a:	2b01      	cmp	r3, #1
  40965c:	bf14      	ite	ne
  40965e:	2120      	movne	r1, #32
  409660:	2110      	moveq	r1, #16
  409662:	4291      	cmp	r1, r2
  409664:	d3b2      	bcc.n	4095cc <_Unwind_VRS_Pop+0x1c>
  409666:	f1b3 0c01 	subs.w	ip, r3, #1
  40966a:	f1dc 0700 	rsbs	r7, ip, #0
  40966e:	eb57 070c 	adcs.w	r7, r7, ip
  409672:	2d0f      	cmp	r5, #15
  409674:	bf94      	ite	ls
  409676:	2100      	movls	r1, #0
  409678:	2101      	movhi	r1, #1
  40967a:	4239      	tst	r1, r7
  40967c:	d1a6      	bne.n	4095cc <_Unwind_VRS_Pop+0x1c>
  40967e:	46b0      	mov	r8, r6
  409680:	b921      	cbnz	r1, 40968c <_Unwind_VRS_Pop+0xdc>
  409682:	2a10      	cmp	r2, #16
  409684:	f240 80ab 	bls.w	4097de <_Unwind_VRS_Pop+0x22e>
  409688:	f1a2 0810 	sub.w	r8, r2, #16
  40968c:	f1b8 0f00 	cmp.w	r8, #0
  409690:	bf18      	it	ne
  409692:	2b05      	cmpne	r3, #5
  409694:	d19a      	bne.n	4095cc <_Unwind_VRS_Pop+0x1c>
  409696:	2d0f      	cmp	r5, #15
  409698:	d80f      	bhi.n	4096ba <_Unwind_VRS_Pop+0x10a>
  40969a:	6822      	ldr	r2, [r4, #0]
  40969c:	07d0      	lsls	r0, r2, #31
  40969e:	d50c      	bpl.n	4096ba <_Unwind_VRS_Pop+0x10a>
  4096a0:	f022 0101 	bic.w	r1, r2, #1
  4096a4:	2b05      	cmp	r3, #5
  4096a6:	6021      	str	r1, [r4, #0]
  4096a8:	4620      	mov	r0, r4
  4096aa:	f000 80ae 	beq.w	40980a <_Unwind_VRS_Pop+0x25a>
  4096ae:	f022 0203 	bic.w	r2, r2, #3
  4096b2:	f840 2b48 	str.w	r2, [r0], #72
  4096b6:	f000 f8bf 	bl	409838 <__gnu_Unwind_Save_VFP>
  4096ba:	f1b8 0f00 	cmp.w	r8, #0
  4096be:	d002      	beq.n	4096c6 <_Unwind_VRS_Pop+0x116>
  4096c0:	6823      	ldr	r3, [r4, #0]
  4096c2:	0759      	lsls	r1, r3, #29
  4096c4:	d47b      	bmi.n	4097be <_Unwind_VRS_Pop+0x20e>
  4096c6:	2f00      	cmp	r7, #0
  4096c8:	f040 8098 	bne.w	4097fc <_Unwind_VRS_Pop+0x24c>
  4096cc:	2d0f      	cmp	r5, #15
  4096ce:	d96e      	bls.n	4097ae <_Unwind_VRS_Pop+0x1fe>
  4096d0:	f1b8 0f00 	cmp.w	r8, #0
  4096d4:	f040 808c 	bne.w	4097f0 <_Unwind_VRS_Pop+0x240>
  4096d8:	6ba0      	ldr	r0, [r4, #56]	; 0x38
  4096da:	2e00      	cmp	r6, #0
  4096dc:	4601      	mov	r1, r0
  4096de:	dd10      	ble.n	409702 <_Unwind_VRS_Pop+0x152>
  4096e0:	aa46      	add	r2, sp, #280	; 0x118
  4096e2:	ea4f 0c46 	mov.w	ip, r6, lsl #1
  4096e6:	eb02 06c5 	add.w	r6, r2, r5, lsl #3
  4096ea:	f10c 31ff 	add.w	r1, ip, #4294967295
  4096ee:	4633      	mov	r3, r6
  4096f0:	1b9a      	subs	r2, r3, r6
  4096f2:	5812      	ldr	r2, [r2, r0]
  4096f4:	3901      	subs	r1, #1
  4096f6:	f843 2b04 	str.w	r2, [r3], #4
  4096fa:	1c4a      	adds	r2, r1, #1
  4096fc:	d1f8      	bne.n	4096f0 <_Unwind_VRS_Pop+0x140>
  4096fe:	eb00 018c 	add.w	r1, r0, ip, lsl #2
  409702:	f1b8 0f00 	cmp.w	r8, #0
  409706:	d016      	beq.n	409736 <_Unwind_VRS_Pop+0x186>
  409708:	ab68      	add	r3, sp, #416	; 0x1a0
  40970a:	2d10      	cmp	r5, #16
  40970c:	bf2c      	ite	cs
  40970e:	462e      	movcs	r6, r5
  409710:	2610      	movcc	r6, #16
  409712:	eb03 06c6 	add.w	r6, r3, r6, lsl #3
  409716:	ea4f 0c48 	mov.w	ip, r8, lsl #1
  40971a:	f5a6 7602 	sub.w	r6, r6, #520	; 0x208
  40971e:	f10c 33ff 	add.w	r3, ip, #4294967295
  409722:	1f08      	subs	r0, r1, #4
  409724:	f850 2f04 	ldr.w	r2, [r0, #4]!
  409728:	3b01      	subs	r3, #1
  40972a:	f846 2b04 	str.w	r2, [r6], #4
  40972e:	1c5a      	adds	r2, r3, #1
  409730:	d1f8      	bne.n	409724 <_Unwind_VRS_Pop+0x174>
  409732:	eb01 018c 	add.w	r1, r1, ip, lsl #2
  409736:	2f00      	cmp	r7, #0
  409738:	d153      	bne.n	4097e2 <_Unwind_VRS_Pop+0x232>
  40973a:	2d0f      	cmp	r5, #15
  40973c:	63a1      	str	r1, [r4, #56]	; 0x38
  40973e:	d93a      	bls.n	4097b6 <_Unwind_VRS_Pop+0x206>
  409740:	f1b8 0f00 	cmp.w	r8, #0
  409744:	f43f af7e 	beq.w	409644 <_Unwind_VRS_Pop+0x94>
  409748:	a806      	add	r0, sp, #24
  40974a:	f000 f881 	bl	409850 <__gnu_Unwind_Restore_VFP_D_16_to_31>
  40974e:	2000      	movs	r0, #0
  409750:	e73d      	b.n	4095ce <_Unwind_VRS_Pop+0x1e>
  409752:	0c15      	lsrs	r5, r2, #16
  409754:	b296      	uxth	r6, r2
  409756:	1973      	adds	r3, r6, r5
  409758:	2b10      	cmp	r3, #16
  40975a:	f63f af37 	bhi.w	4095cc <_Unwind_VRS_Pop+0x1c>
  40975e:	6823      	ldr	r3, [r4, #0]
  409760:	0718      	lsls	r0, r3, #28
  409762:	d434      	bmi.n	4097ce <_Unwind_VRS_Pop+0x21e>
  409764:	a826      	add	r0, sp, #152	; 0x98
  409766:	f000 f89d 	bl	4098a4 <__gnu_Unwind_Save_WMMXD>
  40976a:	6ba0      	ldr	r0, [r4, #56]	; 0x38
  40976c:	aa26      	add	r2, sp, #152	; 0x98
  40976e:	0076      	lsls	r6, r6, #1
  409770:	eb02 05c5 	add.w	r5, r2, r5, lsl #3
  409774:	4603      	mov	r3, r0
  409776:	1e72      	subs	r2, r6, #1
  409778:	b14e      	cbz	r6, 40978e <_Unwind_VRS_Pop+0x1de>
  40977a:	462b      	mov	r3, r5
  40977c:	1b59      	subs	r1, r3, r5
  40977e:	5809      	ldr	r1, [r1, r0]
  409780:	3a01      	subs	r2, #1
  409782:	f843 1b04 	str.w	r1, [r3], #4
  409786:	1c51      	adds	r1, r2, #1
  409788:	d1f8      	bne.n	40977c <_Unwind_VRS_Pop+0x1cc>
  40978a:	eb00 0386 	add.w	r3, r0, r6, lsl #2
  40978e:	a826      	add	r0, sp, #152	; 0x98
  409790:	63a3      	str	r3, [r4, #56]	; 0x38
  409792:	f000 f865 	bl	409860 <__gnu_Unwind_Restore_WMMXD>
  409796:	2000      	movs	r0, #0
  409798:	e719      	b.n	4095ce <_Unwind_VRS_Pop+0x1e>
  40979a:	f023 0310 	bic.w	r3, r3, #16
  40979e:	6023      	str	r3, [r4, #0]
  4097a0:	f504 700c 	add.w	r0, r4, #560	; 0x230
  4097a4:	9201      	str	r2, [sp, #4]
  4097a6:	f000 f8a9 	bl	4098fc <__gnu_Unwind_Save_WMMXC>
  4097aa:	9a01      	ldr	r2, [sp, #4]
  4097ac:	e71a      	b.n	4095e4 <_Unwind_VRS_Pop+0x34>
  4097ae:	a846      	add	r0, sp, #280	; 0x118
  4097b0:	f000 f84a 	bl	409848 <__gnu_Unwind_Save_VFP_D>
  4097b4:	e78c      	b.n	4096d0 <_Unwind_VRS_Pop+0x120>
  4097b6:	a846      	add	r0, sp, #280	; 0x118
  4097b8:	f000 f842 	bl	409840 <__gnu_Unwind_Restore_VFP_D>
  4097bc:	e7c0      	b.n	409740 <_Unwind_VRS_Pop+0x190>
  4097be:	4620      	mov	r0, r4
  4097c0:	f023 0304 	bic.w	r3, r3, #4
  4097c4:	f840 3bd0 	str.w	r3, [r0], #208
  4097c8:	f000 f846 	bl	409858 <__gnu_Unwind_Save_VFP_D_16_to_31>
  4097cc:	e77b      	b.n	4096c6 <_Unwind_VRS_Pop+0x116>
  4097ce:	f023 0308 	bic.w	r3, r3, #8
  4097d2:	6023      	str	r3, [r4, #0]
  4097d4:	f504 70d8 	add.w	r0, r4, #432	; 0x1b0
  4097d8:	f000 f864 	bl	4098a4 <__gnu_Unwind_Save_WMMXD>
  4097dc:	e7c2      	b.n	409764 <_Unwind_VRS_Pop+0x1b4>
  4097de:	4688      	mov	r8, r1
  4097e0:	e759      	b.n	409696 <_Unwind_VRS_Pop+0xe6>
  4097e2:	3104      	adds	r1, #4
  4097e4:	a846      	add	r0, sp, #280	; 0x118
  4097e6:	63a1      	str	r1, [r4, #56]	; 0x38
  4097e8:	f000 f822 	bl	409830 <__gnu_Unwind_Restore_VFP>
  4097ec:	2000      	movs	r0, #0
  4097ee:	e6ee      	b.n	4095ce <_Unwind_VRS_Pop+0x1e>
  4097f0:	a806      	add	r0, sp, #24
  4097f2:	f000 f831 	bl	409858 <__gnu_Unwind_Save_VFP_D_16_to_31>
  4097f6:	f1c5 0610 	rsb	r6, r5, #16
  4097fa:	e76d      	b.n	4096d8 <_Unwind_VRS_Pop+0x128>
  4097fc:	a846      	add	r0, sp, #280	; 0x118
  4097fe:	f000 f81b 	bl	409838 <__gnu_Unwind_Save_VFP>
  409802:	f1b8 0f00 	cmp.w	r8, #0
  409806:	d1f6      	bne.n	4097f6 <_Unwind_VRS_Pop+0x246>
  409808:	e766      	b.n	4096d8 <_Unwind_VRS_Pop+0x128>
  40980a:	f041 0102 	orr.w	r1, r1, #2
  40980e:	f840 1b48 	str.w	r1, [r0], #72
  409812:	f000 f819 	bl	409848 <__gnu_Unwind_Save_VFP_D>
  409816:	e750      	b.n	4096ba <_Unwind_VRS_Pop+0x10a>

00409818 <__restore_core_regs>:
  409818:	f100 0134 	add.w	r1, r0, #52	; 0x34
  40981c:	e891 0038 	ldmia.w	r1, {r3, r4, r5}
  409820:	469c      	mov	ip, r3
  409822:	46a6      	mov	lr, r4
  409824:	f84c 5d04 	str.w	r5, [ip, #-4]!
  409828:	e890 0fff 	ldmia.w	r0, {r0, r1, r2, r3, r4, r5, r6, r7, r8, r9, sl, fp}
  40982c:	46e5      	mov	sp, ip
  40982e:	bd00      	pop	{pc}

00409830 <__gnu_Unwind_Restore_VFP>:
  409830:	ec90 0b21 	fldmiax	r0, {d0-d15}	;@ Deprecated
  409834:	4770      	bx	lr
  409836:	bf00      	nop

00409838 <__gnu_Unwind_Save_VFP>:
  409838:	ec80 0b21 	fstmiax	r0, {d0-d15}	;@ Deprecated
  40983c:	4770      	bx	lr
  40983e:	bf00      	nop

00409840 <__gnu_Unwind_Restore_VFP_D>:
  409840:	ec90 0b20 	vldmia	r0, {d0-d15}
  409844:	4770      	bx	lr
  409846:	bf00      	nop

00409848 <__gnu_Unwind_Save_VFP_D>:
  409848:	ec80 0b20 	vstmia	r0, {d0-d15}
  40984c:	4770      	bx	lr
  40984e:	bf00      	nop

00409850 <__gnu_Unwind_Restore_VFP_D_16_to_31>:
  409850:	ecd0 0b20 	vldmia	r0, {d16-d31}
  409854:	4770      	bx	lr
  409856:	bf00      	nop

00409858 <__gnu_Unwind_Save_VFP_D_16_to_31>:
  409858:	ecc0 0b20 	vstmia	r0, {d16-d31}
  40985c:	4770      	bx	lr
  40985e:	bf00      	nop

00409860 <__gnu_Unwind_Restore_WMMXD>:
  409860:	ecf0 0102 	ldfe	f0, [r0], #8
  409864:	ecf0 1102 	ldfe	f1, [r0], #8
  409868:	ecf0 2102 	ldfe	f2, [r0], #8
  40986c:	ecf0 3102 	ldfe	f3, [r0], #8
  409870:	ecf0 4102 	ldfe	f4, [r0], #8
  409874:	ecf0 5102 	ldfe	f5, [r0], #8
  409878:	ecf0 6102 	ldfe	f6, [r0], #8
  40987c:	ecf0 7102 	ldfe	f7, [r0], #8
  409880:	ecf0 8102 	ldfp	f0, [r0], #8
  409884:	ecf0 9102 	ldfp	f1, [r0], #8
  409888:	ecf0 a102 	ldfp	f2, [r0], #8
  40988c:	ecf0 b102 	ldfp	f3, [r0], #8
  409890:	ecf0 c102 	ldfp	f4, [r0], #8
  409894:	ecf0 d102 	ldfp	f5, [r0], #8
  409898:	ecf0 e102 	ldfp	f6, [r0], #8
  40989c:	ecf0 f102 	ldfp	f7, [r0], #8
  4098a0:	4770      	bx	lr
  4098a2:	bf00      	nop

004098a4 <__gnu_Unwind_Save_WMMXD>:
  4098a4:	ece0 0102 	stfe	f0, [r0], #8
  4098a8:	ece0 1102 	stfe	f1, [r0], #8
  4098ac:	ece0 2102 	stfe	f2, [r0], #8
  4098b0:	ece0 3102 	stfe	f3, [r0], #8
  4098b4:	ece0 4102 	stfe	f4, [r0], #8
  4098b8:	ece0 5102 	stfe	f5, [r0], #8
  4098bc:	ece0 6102 	stfe	f6, [r0], #8
  4098c0:	ece0 7102 	stfe	f7, [r0], #8
  4098c4:	ece0 8102 	stfp	f0, [r0], #8
  4098c8:	ece0 9102 	stfp	f1, [r0], #8
  4098cc:	ece0 a102 	stfp	f2, [r0], #8
  4098d0:	ece0 b102 	stfp	f3, [r0], #8
  4098d4:	ece0 c102 	stfp	f4, [r0], #8
  4098d8:	ece0 d102 	stfp	f5, [r0], #8
  4098dc:	ece0 e102 	stfp	f6, [r0], #8
  4098e0:	ece0 f102 	stfp	f7, [r0], #8
  4098e4:	4770      	bx	lr
  4098e6:	bf00      	nop

004098e8 <__gnu_Unwind_Restore_WMMXC>:
  4098e8:	fcb0 8101 	ldc2	1, cr8, [r0], #4
  4098ec:	fcb0 9101 	ldc2	1, cr9, [r0], #4
  4098f0:	fcb0 a101 	ldc2	1, cr10, [r0], #4
  4098f4:	fcb0 b101 	ldc2	1, cr11, [r0], #4
  4098f8:	4770      	bx	lr
  4098fa:	bf00      	nop

004098fc <__gnu_Unwind_Save_WMMXC>:
  4098fc:	fca0 8101 	stc2	1, cr8, [r0], #4
  409900:	fca0 9101 	stc2	1, cr9, [r0], #4
  409904:	fca0 a101 	stc2	1, cr10, [r0], #4
  409908:	fca0 b101 	stc2	1, cr11, [r0], #4
  40990c:	4770      	bx	lr
  40990e:	bf00      	nop

00409910 <_Unwind_RaiseException>:
  409910:	46ec      	mov	ip, sp
  409912:	b500      	push	{lr}
  409914:	e92d 5000 	stmdb	sp!, {ip, lr}
  409918:	e92d 1fff 	stmdb	sp!, {r0, r1, r2, r3, r4, r5, r6, r7, r8, r9, sl, fp, ip}
  40991c:	f04f 0300 	mov.w	r3, #0
  409920:	e92d 000c 	stmdb	sp!, {r2, r3}
  409924:	a901      	add	r1, sp, #4
  409926:	f7ff fbdf 	bl	4090e8 <__gnu_Unwind_RaiseException>
  40992a:	f8dd e040 	ldr.w	lr, [sp, #64]	; 0x40
  40992e:	b012      	add	sp, #72	; 0x48
  409930:	4770      	bx	lr
  409932:	bf00      	nop

00409934 <_Unwind_Resume>:
  409934:	46ec      	mov	ip, sp
  409936:	b500      	push	{lr}
  409938:	e92d 5000 	stmdb	sp!, {ip, lr}
  40993c:	e92d 1fff 	stmdb	sp!, {r0, r1, r2, r3, r4, r5, r6, r7, r8, r9, sl, fp, ip}
  409940:	f04f 0300 	mov.w	r3, #0
  409944:	e92d 000c 	stmdb	sp!, {r2, r3}
  409948:	a901      	add	r1, sp, #4
  40994a:	f7ff fc09 	bl	409160 <__gnu_Unwind_Resume>
  40994e:	f8dd e040 	ldr.w	lr, [sp, #64]	; 0x40
  409952:	b012      	add	sp, #72	; 0x48
  409954:	4770      	bx	lr
  409956:	bf00      	nop

00409958 <_Unwind_Resume_or_Rethrow>:
  409958:	46ec      	mov	ip, sp
  40995a:	b500      	push	{lr}
  40995c:	e92d 5000 	stmdb	sp!, {ip, lr}
  409960:	e92d 1fff 	stmdb	sp!, {r0, r1, r2, r3, r4, r5, r6, r7, r8, r9, sl, fp, ip}
  409964:	f04f 0300 	mov.w	r3, #0
  409968:	e92d 000c 	stmdb	sp!, {r2, r3}
  40996c:	a901      	add	r1, sp, #4
  40996e:	f7ff fc19 	bl	4091a4 <__gnu_Unwind_Resume_or_Rethrow>
  409972:	f8dd e040 	ldr.w	lr, [sp, #64]	; 0x40
  409976:	b012      	add	sp, #72	; 0x48
  409978:	4770      	bx	lr
  40997a:	bf00      	nop

0040997c <_Unwind_ForcedUnwind>:
  40997c:	46ec      	mov	ip, sp
  40997e:	b500      	push	{lr}
  409980:	e92d 5000 	stmdb	sp!, {ip, lr}
  409984:	e92d 1fff 	stmdb	sp!, {r0, r1, r2, r3, r4, r5, r6, r7, r8, r9, sl, fp, ip}
  409988:	f04f 0300 	mov.w	r3, #0
  40998c:	e92d 000c 	stmdb	sp!, {r2, r3}
  409990:	ab01      	add	r3, sp, #4
  409992:	f7ff fbd9 	bl	409148 <__gnu_Unwind_ForcedUnwind>
  409996:	f8dd e040 	ldr.w	lr, [sp, #64]	; 0x40
  40999a:	b012      	add	sp, #72	; 0x48
  40999c:	4770      	bx	lr
  40999e:	bf00      	nop

004099a0 <_Unwind_Backtrace>:
  4099a0:	46ec      	mov	ip, sp
  4099a2:	b500      	push	{lr}
  4099a4:	e92d 5000 	stmdb	sp!, {ip, lr}
  4099a8:	e92d 1fff 	stmdb	sp!, {r0, r1, r2, r3, r4, r5, r6, r7, r8, r9, sl, fp, ip}
  4099ac:	f04f 0300 	mov.w	r3, #0
  4099b0:	e92d 000c 	stmdb	sp!, {r2, r3}
  4099b4:	aa01      	add	r2, sp, #4
  4099b6:	f7ff fdc3 	bl	409540 <__gnu_Unwind_Backtrace>
  4099ba:	f8dd e040 	ldr.w	lr, [sp, #64]	; 0x40
  4099be:	b012      	add	sp, #72	; 0x48
  4099c0:	4770      	bx	lr
  4099c2:	bf00      	nop

004099c4 <next_unwind_byte>:
  4099c4:	7a02      	ldrb	r2, [r0, #8]
  4099c6:	4603      	mov	r3, r0
  4099c8:	b91a      	cbnz	r2, 4099d2 <next_unwind_byte+0xe>
  4099ca:	7a42      	ldrb	r2, [r0, #9]
  4099cc:	b942      	cbnz	r2, 4099e0 <next_unwind_byte+0x1c>
  4099ce:	20b0      	movs	r0, #176	; 0xb0
  4099d0:	4770      	bx	lr
  4099d2:	3a01      	subs	r2, #1
  4099d4:	6800      	ldr	r0, [r0, #0]
  4099d6:	721a      	strb	r2, [r3, #8]
  4099d8:	0202      	lsls	r2, r0, #8
  4099da:	601a      	str	r2, [r3, #0]
  4099dc:	0e00      	lsrs	r0, r0, #24
  4099de:	4770      	bx	lr
  4099e0:	6841      	ldr	r1, [r0, #4]
  4099e2:	3a01      	subs	r2, #1
  4099e4:	7242      	strb	r2, [r0, #9]
  4099e6:	f851 0b04 	ldr.w	r0, [r1], #4
  4099ea:	2203      	movs	r2, #3
  4099ec:	6059      	str	r1, [r3, #4]
  4099ee:	721a      	strb	r2, [r3, #8]
  4099f0:	e7f2      	b.n	4099d8 <next_unwind_byte+0x14>
  4099f2:	bf00      	nop

004099f4 <_Unwind_GetGR.constprop.0>:
  4099f4:	b500      	push	{lr}
  4099f6:	b085      	sub	sp, #20
  4099f8:	2100      	movs	r1, #0
  4099fa:	ab03      	add	r3, sp, #12
  4099fc:	9300      	str	r3, [sp, #0]
  4099fe:	220c      	movs	r2, #12
  409a00:	460b      	mov	r3, r1
  409a02:	f7ff fbe5 	bl	4091d0 <_Unwind_VRS_Get>
  409a06:	9803      	ldr	r0, [sp, #12]
  409a08:	b005      	add	sp, #20
  409a0a:	bd00      	pop	{pc}

00409a0c <unwind_UCB_from_context>:
  409a0c:	f7ff bff2 	b.w	4099f4 <_Unwind_GetGR.constprop.0>

00409a10 <__gnu_unwind_execute>:
  409a10:	e92d 43f0 	stmdb	sp!, {r4, r5, r6, r7, r8, r9, lr}
  409a14:	4606      	mov	r6, r0
  409a16:	b085      	sub	sp, #20
  409a18:	460d      	mov	r5, r1
  409a1a:	f04f 0800 	mov.w	r8, #0
  409a1e:	4628      	mov	r0, r5
  409a20:	f7ff ffd0 	bl	4099c4 <next_unwind_byte>
  409a24:	28b0      	cmp	r0, #176	; 0xb0
  409a26:	4604      	mov	r4, r0
  409a28:	f000 80be 	beq.w	409ba8 <__gnu_unwind_execute+0x198>
  409a2c:	f020 027f 	bic.w	r2, r0, #127	; 0x7f
  409a30:	b2d1      	uxtb	r1, r2
  409a32:	b301      	cbz	r1, 409a76 <__gnu_unwind_execute+0x66>
  409a34:	f000 02f0 	and.w	r2, r0, #240	; 0xf0
  409a38:	2a80      	cmp	r2, #128	; 0x80
  409a3a:	d079      	beq.n	409b30 <__gnu_unwind_execute+0x120>
  409a3c:	2a90      	cmp	r2, #144	; 0x90
  409a3e:	d03a      	beq.n	409ab6 <__gnu_unwind_execute+0xa6>
  409a40:	2aa0      	cmp	r2, #160	; 0xa0
  409a42:	d046      	beq.n	409ad2 <__gnu_unwind_execute+0xc2>
  409a44:	2ab0      	cmp	r2, #176	; 0xb0
  409a46:	d05a      	beq.n	409afe <__gnu_unwind_execute+0xee>
  409a48:	2ac0      	cmp	r2, #192	; 0xc0
  409a4a:	f000 8089 	beq.w	409b60 <__gnu_unwind_execute+0x150>
  409a4e:	f000 03f8 	and.w	r3, r0, #248	; 0xf8
  409a52:	2bd0      	cmp	r3, #208	; 0xd0
  409a54:	d10b      	bne.n	409a6e <__gnu_unwind_execute+0x5e>
  409a56:	f000 0407 	and.w	r4, r0, #7
  409a5a:	1c62      	adds	r2, r4, #1
  409a5c:	4630      	mov	r0, r6
  409a5e:	2101      	movs	r1, #1
  409a60:	f442 2200 	orr.w	r2, r2, #524288	; 0x80000
  409a64:	2305      	movs	r3, #5
  409a66:	f7ff fda3 	bl	4095b0 <_Unwind_VRS_Pop>
  409a6a:	2800      	cmp	r0, #0
  409a6c:	d0d7      	beq.n	409a1e <__gnu_unwind_execute+0xe>
  409a6e:	2009      	movs	r0, #9
  409a70:	b005      	add	sp, #20
  409a72:	e8bd 83f0 	ldmia.w	sp!, {r4, r5, r6, r7, r8, r9, pc}
  409a76:	ea4f 0980 	mov.w	r9, r0, lsl #2
  409a7a:	af03      	add	r7, sp, #12
  409a7c:	f004 0440 	and.w	r4, r4, #64	; 0x40
  409a80:	460b      	mov	r3, r1
  409a82:	fa5f f989 	uxtb.w	r9, r9
  409a86:	9700      	str	r7, [sp, #0]
  409a88:	4630      	mov	r0, r6
  409a8a:	220d      	movs	r2, #13
  409a8c:	b2e4      	uxtb	r4, r4
  409a8e:	f7ff fb9f 	bl	4091d0 <_Unwind_VRS_Get>
  409a92:	f109 0904 	add.w	r9, r9, #4
  409a96:	9b03      	ldr	r3, [sp, #12]
  409a98:	b94c      	cbnz	r4, 409aae <__gnu_unwind_execute+0x9e>
  409a9a:	444b      	add	r3, r9
  409a9c:	9303      	str	r3, [sp, #12]
  409a9e:	2100      	movs	r1, #0
  409aa0:	9700      	str	r7, [sp, #0]
  409aa2:	4630      	mov	r0, r6
  409aa4:	220d      	movs	r2, #13
  409aa6:	460b      	mov	r3, r1
  409aa8:	f7ff fbb4 	bl	409214 <_Unwind_VRS_Set>
  409aac:	e7b7      	b.n	409a1e <__gnu_unwind_execute+0xe>
  409aae:	ebc9 0303 	rsb	r3, r9, r3
  409ab2:	9303      	str	r3, [sp, #12]
  409ab4:	e7f3      	b.n	409a9e <__gnu_unwind_execute+0x8e>
  409ab6:	f000 030d 	and.w	r3, r0, #13
  409aba:	2b0d      	cmp	r3, #13
  409abc:	d0d7      	beq.n	409a6e <__gnu_unwind_execute+0x5e>
  409abe:	af03      	add	r7, sp, #12
  409ac0:	2100      	movs	r1, #0
  409ac2:	f000 020f 	and.w	r2, r0, #15
  409ac6:	460b      	mov	r3, r1
  409ac8:	9700      	str	r7, [sp, #0]
  409aca:	4630      	mov	r0, r6
  409acc:	f7ff fb80 	bl	4091d0 <_Unwind_VRS_Get>
  409ad0:	e7e5      	b.n	409a9e <__gnu_unwind_execute+0x8e>
  409ad2:	43c2      	mvns	r2, r0
  409ad4:	f44f 637f 	mov.w	r3, #4080	; 0xff0
  409ad8:	f002 0207 	and.w	r2, r2, #7
  409adc:	fa43 f202 	asr.w	r2, r3, r2
  409ae0:	f000 0408 	and.w	r4, r0, #8
  409ae4:	b2e4      	uxtb	r4, r4
  409ae6:	401a      	ands	r2, r3
  409ae8:	b10c      	cbz	r4, 409aee <__gnu_unwind_execute+0xde>
  409aea:	f442 4280 	orr.w	r2, r2, #16384	; 0x4000
  409aee:	2100      	movs	r1, #0
  409af0:	4630      	mov	r0, r6
  409af2:	460b      	mov	r3, r1
  409af4:	f7ff fd5c 	bl	4095b0 <_Unwind_VRS_Pop>
  409af8:	2800      	cmp	r0, #0
  409afa:	d1b8      	bne.n	409a6e <__gnu_unwind_execute+0x5e>
  409afc:	e78f      	b.n	409a1e <__gnu_unwind_execute+0xe>
  409afe:	28b1      	cmp	r0, #177	; 0xb1
  409b00:	d076      	beq.n	409bf0 <__gnu_unwind_execute+0x1e0>
  409b02:	28b2      	cmp	r0, #178	; 0xb2
  409b04:	f000 8087 	beq.w	409c16 <__gnu_unwind_execute+0x206>
  409b08:	28b3      	cmp	r0, #179	; 0xb3
  409b0a:	f000 80b6 	beq.w	409c7a <__gnu_unwind_execute+0x26a>
  409b0e:	f000 03fc 	and.w	r3, r0, #252	; 0xfc
  409b12:	2bb4      	cmp	r3, #180	; 0xb4
  409b14:	d05e      	beq.n	409bd4 <__gnu_unwind_execute+0x1c4>
  409b16:	f000 0207 	and.w	r2, r0, #7
  409b1a:	3201      	adds	r2, #1
  409b1c:	2101      	movs	r1, #1
  409b1e:	4630      	mov	r0, r6
  409b20:	f442 2200 	orr.w	r2, r2, #524288	; 0x80000
  409b24:	460b      	mov	r3, r1
  409b26:	f7ff fd43 	bl	4095b0 <_Unwind_VRS_Pop>
  409b2a:	2800      	cmp	r0, #0
  409b2c:	d19f      	bne.n	409a6e <__gnu_unwind_execute+0x5e>
  409b2e:	e776      	b.n	409a1e <__gnu_unwind_execute+0xe>
  409b30:	4628      	mov	r0, r5
  409b32:	f7ff ff47 	bl	4099c4 <next_unwind_byte>
  409b36:	0224      	lsls	r4, r4, #8
  409b38:	4304      	orrs	r4, r0
  409b3a:	f5b4 4f00 	cmp.w	r4, #32768	; 0x8000
  409b3e:	d096      	beq.n	409a6e <__gnu_unwind_execute+0x5e>
  409b40:	0522      	lsls	r2, r4, #20
  409b42:	2100      	movs	r1, #0
  409b44:	4630      	mov	r0, r6
  409b46:	0c12      	lsrs	r2, r2, #16
  409b48:	460b      	mov	r3, r1
  409b4a:	0124      	lsls	r4, r4, #4
  409b4c:	f7ff fd30 	bl	4095b0 <_Unwind_VRS_Pop>
  409b50:	2800      	cmp	r0, #0
  409b52:	d18c      	bne.n	409a6e <__gnu_unwind_execute+0x5e>
  409b54:	f414 4f00 	tst.w	r4, #32768	; 0x8000
  409b58:	bf18      	it	ne
  409b5a:	f04f 0801 	movne.w	r8, #1
  409b5e:	e75e      	b.n	409a1e <__gnu_unwind_execute+0xe>
  409b60:	28c6      	cmp	r0, #198	; 0xc6
  409b62:	f000 809d 	beq.w	409ca0 <__gnu_unwind_execute+0x290>
  409b66:	28c7      	cmp	r0, #199	; 0xc7
  409b68:	f000 80a4 	beq.w	409cb4 <__gnu_unwind_execute+0x2a4>
  409b6c:	f000 03f8 	and.w	r3, r0, #248	; 0xf8
  409b70:	2bc0      	cmp	r3, #192	; 0xc0
  409b72:	f000 80b2 	beq.w	409cda <__gnu_unwind_execute+0x2ca>
  409b76:	28c8      	cmp	r0, #200	; 0xc8
  409b78:	f000 80bd 	beq.w	409cf6 <__gnu_unwind_execute+0x2e6>
  409b7c:	28c9      	cmp	r0, #201	; 0xc9
  409b7e:	f47f af76 	bne.w	409a6e <__gnu_unwind_execute+0x5e>
  409b82:	4628      	mov	r0, r5
  409b84:	f7ff ff1e 	bl	4099c4 <next_unwind_byte>
  409b88:	f000 030f 	and.w	r3, r0, #15
  409b8c:	3301      	adds	r3, #1
  409b8e:	f000 02f0 	and.w	r2, r0, #240	; 0xf0
  409b92:	ea43 3202 	orr.w	r2, r3, r2, lsl #12
  409b96:	4630      	mov	r0, r6
  409b98:	2101      	movs	r1, #1
  409b9a:	2305      	movs	r3, #5
  409b9c:	f7ff fd08 	bl	4095b0 <_Unwind_VRS_Pop>
  409ba0:	2800      	cmp	r0, #0
  409ba2:	f47f af64 	bne.w	409a6e <__gnu_unwind_execute+0x5e>
  409ba6:	e73a      	b.n	409a1e <__gnu_unwind_execute+0xe>
  409ba8:	2000      	movs	r0, #0
  409baa:	f1b8 0f00 	cmp.w	r8, #0
  409bae:	f47f af5f 	bne.w	409a70 <__gnu_unwind_execute+0x60>
  409bb2:	ac03      	add	r4, sp, #12
  409bb4:	4641      	mov	r1, r8
  409bb6:	220e      	movs	r2, #14
  409bb8:	4643      	mov	r3, r8
  409bba:	9400      	str	r4, [sp, #0]
  409bbc:	4630      	mov	r0, r6
  409bbe:	f7ff fb07 	bl	4091d0 <_Unwind_VRS_Get>
  409bc2:	9400      	str	r4, [sp, #0]
  409bc4:	4630      	mov	r0, r6
  409bc6:	4641      	mov	r1, r8
  409bc8:	220f      	movs	r2, #15
  409bca:	4643      	mov	r3, r8
  409bcc:	f7ff fb22 	bl	409214 <_Unwind_VRS_Set>
  409bd0:	4640      	mov	r0, r8
  409bd2:	e74d      	b.n	409a70 <__gnu_unwind_execute+0x60>
  409bd4:	f000 0203 	and.w	r2, r0, #3
  409bd8:	3201      	adds	r2, #1
  409bda:	2102      	movs	r1, #2
  409bdc:	4630      	mov	r0, r6
  409bde:	f442 2280 	orr.w	r2, r2, #262144	; 0x40000
  409be2:	460b      	mov	r3, r1
  409be4:	f7ff fce4 	bl	4095b0 <_Unwind_VRS_Pop>
  409be8:	2800      	cmp	r0, #0
  409bea:	f47f af40 	bne.w	409a6e <__gnu_unwind_execute+0x5e>
  409bee:	e716      	b.n	409a1e <__gnu_unwind_execute+0xe>
  409bf0:	4628      	mov	r0, r5
  409bf2:	f7ff fee7 	bl	4099c4 <next_unwind_byte>
  409bf6:	4602      	mov	r2, r0
  409bf8:	2800      	cmp	r0, #0
  409bfa:	f43f af38 	beq.w	409a6e <__gnu_unwind_execute+0x5e>
  409bfe:	f010 01f0 	ands.w	r1, r0, #240	; 0xf0
  409c02:	f47f af34 	bne.w	409a6e <__gnu_unwind_execute+0x5e>
  409c06:	4630      	mov	r0, r6
  409c08:	460b      	mov	r3, r1
  409c0a:	f7ff fcd1 	bl	4095b0 <_Unwind_VRS_Pop>
  409c0e:	2800      	cmp	r0, #0
  409c10:	f47f af2d 	bne.w	409a6e <__gnu_unwind_execute+0x5e>
  409c14:	e703      	b.n	409a1e <__gnu_unwind_execute+0xe>
  409c16:	2100      	movs	r1, #0
  409c18:	af03      	add	r7, sp, #12
  409c1a:	220d      	movs	r2, #13
  409c1c:	460b      	mov	r3, r1
  409c1e:	9700      	str	r7, [sp, #0]
  409c20:	4630      	mov	r0, r6
  409c22:	f7ff fad5 	bl	4091d0 <_Unwind_VRS_Get>
  409c26:	4628      	mov	r0, r5
  409c28:	f7ff fecc 	bl	4099c4 <next_unwind_byte>
  409c2c:	f020 037f 	bic.w	r3, r0, #127	; 0x7f
  409c30:	2402      	movs	r4, #2
  409c32:	f013 0fff 	tst.w	r3, #255	; 0xff
  409c36:	d00f      	beq.n	409c58 <__gnu_unwind_execute+0x248>
  409c38:	f000 007f 	and.w	r0, r0, #127	; 0x7f
  409c3c:	fa00 f204 	lsl.w	r2, r0, r4
  409c40:	9b03      	ldr	r3, [sp, #12]
  409c42:	4628      	mov	r0, r5
  409c44:	189b      	adds	r3, r3, r2
  409c46:	9303      	str	r3, [sp, #12]
  409c48:	f7ff febc 	bl	4099c4 <next_unwind_byte>
  409c4c:	f020 037f 	bic.w	r3, r0, #127	; 0x7f
  409c50:	3407      	adds	r4, #7
  409c52:	f013 0fff 	tst.w	r3, #255	; 0xff
  409c56:	d1ef      	bne.n	409c38 <__gnu_unwind_execute+0x228>
  409c58:	f000 007f 	and.w	r0, r0, #127	; 0x7f
  409c5c:	fa00 f404 	lsl.w	r4, r0, r4
  409c60:	9b03      	ldr	r3, [sp, #12]
  409c62:	2100      	movs	r1, #0
  409c64:	f503 7301 	add.w	r3, r3, #516	; 0x204
  409c68:	191c      	adds	r4, r3, r4
  409c6a:	9700      	str	r7, [sp, #0]
  409c6c:	4630      	mov	r0, r6
  409c6e:	220d      	movs	r2, #13
  409c70:	460b      	mov	r3, r1
  409c72:	9403      	str	r4, [sp, #12]
  409c74:	f7ff face 	bl	409214 <_Unwind_VRS_Set>
  409c78:	e6d1      	b.n	409a1e <__gnu_unwind_execute+0xe>
  409c7a:	4628      	mov	r0, r5
  409c7c:	f7ff fea2 	bl	4099c4 <next_unwind_byte>
  409c80:	f000 030f 	and.w	r3, r0, #15
  409c84:	3301      	adds	r3, #1
  409c86:	f000 02f0 	and.w	r2, r0, #240	; 0xf0
  409c8a:	2101      	movs	r1, #1
  409c8c:	ea43 3202 	orr.w	r2, r3, r2, lsl #12
  409c90:	4630      	mov	r0, r6
  409c92:	460b      	mov	r3, r1
  409c94:	f7ff fc8c 	bl	4095b0 <_Unwind_VRS_Pop>
  409c98:	2800      	cmp	r0, #0
  409c9a:	f47f aee8 	bne.w	409a6e <__gnu_unwind_execute+0x5e>
  409c9e:	e6be      	b.n	409a1e <__gnu_unwind_execute+0xe>
  409ca0:	4628      	mov	r0, r5
  409ca2:	f7ff fe8f 	bl	4099c4 <next_unwind_byte>
  409ca6:	f000 030f 	and.w	r3, r0, #15
  409caa:	3301      	adds	r3, #1
  409cac:	f000 02f0 	and.w	r2, r0, #240	; 0xf0
  409cb0:	2103      	movs	r1, #3
  409cb2:	e7eb      	b.n	409c8c <__gnu_unwind_execute+0x27c>
  409cb4:	4628      	mov	r0, r5
  409cb6:	f7ff fe85 	bl	4099c4 <next_unwind_byte>
  409cba:	4602      	mov	r2, r0
  409cbc:	2800      	cmp	r0, #0
  409cbe:	f43f aed6 	beq.w	409a6e <__gnu_unwind_execute+0x5e>
  409cc2:	f010 03f0 	ands.w	r3, r0, #240	; 0xf0
  409cc6:	f47f aed2 	bne.w	409a6e <__gnu_unwind_execute+0x5e>
  409cca:	4630      	mov	r0, r6
  409ccc:	2104      	movs	r1, #4
  409cce:	f7ff fc6f 	bl	4095b0 <_Unwind_VRS_Pop>
  409cd2:	2800      	cmp	r0, #0
  409cd4:	f47f aecb 	bne.w	409a6e <__gnu_unwind_execute+0x5e>
  409cd8:	e6a1      	b.n	409a1e <__gnu_unwind_execute+0xe>
  409cda:	f000 020f 	and.w	r2, r0, #15
  409cde:	3201      	adds	r2, #1
  409ce0:	2103      	movs	r1, #3
  409ce2:	4630      	mov	r0, r6
  409ce4:	f442 2220 	orr.w	r2, r2, #655360	; 0xa0000
  409ce8:	460b      	mov	r3, r1
  409cea:	f7ff fc61 	bl	4095b0 <_Unwind_VRS_Pop>
  409cee:	2800      	cmp	r0, #0
  409cf0:	f47f aebd 	bne.w	409a6e <__gnu_unwind_execute+0x5e>
  409cf4:	e693      	b.n	409a1e <__gnu_unwind_execute+0xe>
  409cf6:	4628      	mov	r0, r5
  409cf8:	f7ff fe64 	bl	4099c4 <next_unwind_byte>
  409cfc:	f000 02f0 	and.w	r2, r0, #240	; 0xf0
  409d00:	f000 030f 	and.w	r3, r0, #15
  409d04:	3210      	adds	r2, #16
  409d06:	3301      	adds	r3, #1
  409d08:	e743      	b.n	409b92 <__gnu_unwind_execute+0x182>
  409d0a:	bf00      	nop

00409d0c <__gnu_unwind_frame>:
  409d0c:	b510      	push	{r4, lr}
  409d0e:	6cc3      	ldr	r3, [r0, #76]	; 0x4c
  409d10:	b084      	sub	sp, #16
  409d12:	2203      	movs	r2, #3
  409d14:	685c      	ldr	r4, [r3, #4]
  409d16:	f88d 200c 	strb.w	r2, [sp, #12]
  409d1a:	79da      	ldrb	r2, [r3, #7]
  409d1c:	0224      	lsls	r4, r4, #8
  409d1e:	3308      	adds	r3, #8
  409d20:	4608      	mov	r0, r1
  409d22:	a901      	add	r1, sp, #4
  409d24:	9401      	str	r4, [sp, #4]
  409d26:	9302      	str	r3, [sp, #8]
  409d28:	f88d 200d 	strb.w	r2, [sp, #13]
  409d2c:	f7ff fe70 	bl	409a10 <__gnu_unwind_execute>
  409d30:	b004      	add	sp, #16
  409d32:	bd10      	pop	{r4, pc}

00409d34 <_Unwind_GetRegionStart>:
  409d34:	b508      	push	{r3, lr}
  409d36:	f7ff fe69 	bl	409a0c <unwind_UCB_from_context>
  409d3a:	6c80      	ldr	r0, [r0, #72]	; 0x48
  409d3c:	bd08      	pop	{r3, pc}
  409d3e:	bf00      	nop

00409d40 <_Unwind_GetLanguageSpecificData>:
  409d40:	b508      	push	{r3, lr}
  409d42:	f7ff fe63 	bl	409a0c <unwind_UCB_from_context>
  409d46:	6cc3      	ldr	r3, [r0, #76]	; 0x4c
  409d48:	79da      	ldrb	r2, [r3, #7]
  409d4a:	eb03 0082 	add.w	r0, r3, r2, lsl #2
  409d4e:	3008      	adds	r0, #8
  409d50:	bd08      	pop	{r3, pc}
  409d52:	bf00      	nop

00409d54 <_Unwind_GetDataRelBase>:
  409d54:	b508      	push	{r3, lr}
  409d56:	f7fd fa69 	bl	40722c <abort>
  409d5a:	bf00      	nop

00409d5c <_Unwind_GetTextRelBase>:
  409d5c:	b508      	push	{r3, lr}
  409d5e:	f7fd fa65 	bl	40722c <abort>
  409d62:	bf00      	nop
  409d64:	6c696146 	.word	0x6c696146
  409d68:	77206465 	.word	0x77206465
  409d6c:	20687469 	.word	0x20687469
  409d70:	253d6372 	.word	0x253d6372
  409d74:	000a2e75 	.word	0x000a2e75
  409d78:	65533a30 	.word	0x65533a30
  409d7c:	726f736e 	.word	0x726f736e
  409d80:	676f6c2e 	.word	0x676f6c2e
  409d84:	69725700 	.word	0x69725700
  409d88:	45206574 	.word	0x45206574
  409d8c:	726f7272 	.word	0x726f7272
  409d90:	7762203a 	.word	0x7762203a
  409d94:	20642520 	.word	0x20642520
  409d98:	3831203c 	.word	0x3831203c
  409d9c:	3a30000a 	.word	0x3a30000a
  409da0:	69726353 	.word	0x69726353
  409da4:	00737470 	.word	0x00737470
  409da8:	74746553 	.word	0x74746553
  409dac:	20676e69 	.word	0x20676e69
  409db0:	73207075 	.word	0x73207075
  409db4:	65747379 	.word	0x65747379
  409db8:	6c63206d 	.word	0x6c63206d
  409dbc:	2e6b636f 	.word	0x2e6b636f
  409dc0:	5a002e2e 	.word	0x5a002e2e
  409dc4:	6c707065 	.word	0x6c707065
  409dc8:	49206e69 	.word	0x49206e69
  409dcc:	3a74696e 	.word	0x3a74696e
  409dd0:	74655300 	.word	0x74655300
  409dd4:	676e6974 	.word	0x676e6974
  409dd8:	20707520 	.word	0x20707520
  409ddc:	736e6970 	.word	0x736e6970
  409de0:	002e2e2e 	.word	0x002e2e2e
  409de4:	74746553 	.word	0x74746553
  409de8:	20676e69 	.word	0x20676e69
  409dec:	53207075 	.word	0x53207075
  409df0:	74732044 	.word	0x74732044
  409df4:	2e6b6361 	.word	0x2e6b6361
  409df8:	50002e2e 	.word	0x50002e2e
  409dfc:	7361656c 	.word	0x7361656c
  409e00:	6c702065 	.word	0x6c702065
  409e04:	61206775 	.word	0x61206775
  409e08:	4453206e 	.word	0x4453206e
  409e0c:	72616320 	.word	0x72616320
  409e10:	6e692064 	.word	0x6e692064
  409e14:	6f6c7320 	.word	0x6f6c7320
  409e18:	43002e74 	.word	0x43002e74
  409e1c:	20647261 	.word	0x20647261
  409e20:	74736e69 	.word	0x74736e69
  409e24:	206c6c61 	.word	0x206c6c61
  409e28:	4c494146 	.word	0x4c494146
  409e2c:	50000d0a 	.word	0x50000d0a
  409e30:	7361656c 	.word	0x7361656c
  409e34:	6e752065 	.word	0x6e752065
  409e38:	67756c70 	.word	0x67756c70
  409e3c:	646e6120 	.word	0x646e6120
  409e40:	2d657220 	.word	0x2d657220
  409e44:	67756c70 	.word	0x67756c70
  409e48:	65687420 	.word	0x65687420
  409e4c:	72616320 	.word	0x72616320
  409e50:	0d0a2e64 	.word	0x0d0a2e64
  409e54:	20445300 	.word	0x20445300
  409e58:	64726143 	.word	0x64726143
  409e5c:	756f4620 	.word	0x756f4620
  409e60:	4d00646e 	.word	0x4d00646e
  409e64:	746e756f 	.word	0x746e756f
  409e68:	20676e69 	.word	0x20676e69
  409e6c:	6b736964 	.word	0x6b736964
  409e70:	002e2e2e 	.word	0x002e2e2e
  409e74:	4941465b 	.word	0x4941465b
  409e78:	72205d4c 	.word	0x72205d4c
  409e7c:	25207365 	.word	0x25207365
  409e80:	000a0d64 	.word	0x000a0d64
  409e84:	6b736944 	.word	0x6b736944
  409e88:	756f6d20 	.word	0x756f6d20
  409e8c:	6465746e 	.word	0x6465746e
  409e90:	64614d00 	.word	0x64614d00
  409e94:	63532065 	.word	0x63532065
  409e98:	74706972 	.word	0x74706972
  409e9c:	6f662073 	.word	0x6f662073
  409ea0:	7265646c 	.word	0x7265646c
  409ea4:	73657200 	.word	0x73657200
  409ea8:	6425203a 	.word	0x6425203a
  409eac:	003a3000 	.word	0x003a3000
  409eb0:	6e616843 	.word	0x6e616843
  409eb4:	53206567 	.word	0x53206567
  409eb8:	70697263 	.word	0x70697263
  409ebc:	72410074 	.word	0x72410074
  409ec0:	6f52206d 	.word	0x6f52206d
  409ec4:	74656b63 	.word	0x74656b63
  409ec8:	6d724100 	.word	0x6d724100
  409ecc:	65654220 	.word	0x65654220
  409ed0:	68530070 	.word	0x68530070
  409ed4:	6f447475 	.word	0x6f447475
  409ed8:	00006e77 	.word	0x00006e77

00409edc <sd_trans_multipliers>:
  409edc:	00000000 0000000a 0000000c 0000000d     ................
  409eec:	0000000f 00000014 00000019 0000001e     ................
  409efc:	00000023 00000028 0000002d 00000032     #...(...-...2...
  409f0c:	00000037 0000003c 00000046 00000050     7...<...F...P...

00409f1c <__func__.8996>:
  409f1c:	6d5f6473 6f5f6963 6f635f70 0000646e     sd_mci_op_cond..

00409f2c <sd_mmc_trans_units>:
  409f2c:	0000000a 00000064 000003e8 00002710     ....d........'..
	...

00409f48 <mmc_trans_multipliers>:
  409f48:	00000000 0000000a 0000000c 0000000d     ................
  409f58:	0000000f 00000014 0000001a 0000001e     ................
  409f68:	00000023 00000028 0000002d 00000034     #...(...-...4...
  409f78:	00000037 0000003c 00000046 00000050     7...<...F...P...

00409f88 <__func__.9159>:
  409f88:	6d5f6473 695f636d 5f74696e 64616572     sd_mmc_init_read
  409f98:	6f6c625f 00736b63 72617453 44532074     _blocks.Start SD
  409fa8:	72616320 6e692064 6c617473 000d0a6c      card install...
  409fb8:	203a7325 38444d43 73657220 20323370     %s: CMD8 resp32 
  409fc8:	30257830 55207838 4153554e 20454c42     0x%08x UNUSABLE 
  409fd8:	44524143 53000d0a 61632044 56206472     CARD...SD card V
  409fe8:	000d0a32 203a7325 35444d43 61462035     2...%s: CMD55 Fa
  409ff8:	0d0a6c69 3a732500 4d434120 20313444     il...%s: ACMD41 
  40a008:	6c696146 25000d0a 41203a73 34444d43     Fail...%s: ACMD4
  40a018:	69542031 756f656d 6e6f2074 73756220     1 Timeout on bus
  40a028:	72202c79 33707365 78302032 78383025     y, resp32 0x%08x
  40a038:	000d0a20 203a7325 31444d43 49434d20      ...%s: CMD1 MCI
  40a048:	69614620 202d206c 79737542 74657220      Fail - Busy ret
  40a058:	25207972 000d0a64 203a7325 31444d43     ry %d...%s: CMD1
  40a068:	6d695420 74756f65 206e6f20 79737562      Timeout on busy
  40a078:	25000d0a 43203a73 2036444d 44524143     ...%s: CMD6 CARD
  40a088:	4154535f 5f535554 54495753 455f4843     _STATUS_SWITCH_E
  40a098:	524f5252 25000d0a 69622d64 75622074     RROR...%d-bit bu
  40a0a8:	69772073 20687464 62616e65 2e64656c     s width enabled.
  40a0b8:	25000d0a 43203a73 2036444d 535f4453     ...%s: CMD6 SD_S
  40a0c8:	54535f57 53555441 4e55465f 5052475f     W_STATUS_FUN_GRP
  40a0d8:	55425f31 0d0a5953 2f445300 20434d4d     1_BUSY...SD/MMC 
  40a0e8:	64726163 61657220 0d0a7964 61745300     card ready...Sta
  40a0f8:	4d207472 4920434d 6174736e 0d0a6c6c     rt MMC Install..
  40a108:	2f445300 20434d4d 64726163 696e6920     .SD/MMC card ini
  40a118:	6c616974 74617a69 206e6f69 6c696166     tialization fail
  40a128:	0d0a6465 3a732500 444d4320 42203331     ed...%s: CMD13 B
  40a138:	20797375 656d6974 0a74756f 7325000d     usy timeout...%s
  40a148:	6552203a 62206461 6b636f6c 30252073     : Read blocks %0
  40a158:	72206432 33707365 78302032 78383025     2d resp32 0x%08x
  40a168:	52414320 54535f44 53555441 5252455f      CARD_STATUS_ERR
  40a178:	5f44525f 0d0a5257 3a732500 69725720     _RD_WR...%s: Wri
  40a188:	62206574 6b636f6c 30252073 72206432     te blocks %02d r
  40a198:	78302031 78383025 52414320 54535f44     1 0x%08x CARD_ST
  40a1a8:	53555441 5252455f 5f44525f 0d0a5257     ATUS_ERR_RD_WR..
	...

0040a1b9 <__func__.9176>:
  40a1b9:	6d5f6473 695f636d 5f74696e 74697277     sd_mmc_init_writ
  40a1c9:	6c625f65 736b636f 00000000                       e_blocks...

0040a1d4 <CSWTCH.69>:
  40a1d4:	01b70100 01b70000 01b70000 01b70000     ................
  40a1e4:	01b70200                                ....

0040a1e8 <__func__.9015>:
  40a1e8:	635f6473 735f366d 685f7465 5f686769     sd_cm6_set_high_
  40a1f8:	65657073 6d6d0064                                speed.

0040a1fe <__func__.9028>:
  40a1fe:	5f636d6d 36646d63 7465735f 6769685f     mmc_cmd6_set_hig
  40a20e:	70735f68 00646565                       h_speed.

0040a216 <__func__.9081>:
  40a216:	6d5f6473 635f636d 3331646d 636d6d00              sd_mmc_cmd13.

0040a223 <__func__.9024>:
  40a223:	5f636d6d 36646d63 7465735f 7375625f     mmc_cmd6_set_bus
  40a233:	6469775f 73006874                                _width.

0040a23a <__func__.9033>:
  40a23a:	635f6473 0038646d                       sd_cmd8.

0040a242 <__func__.8978>:
  40a242:	5f636d6d 5f69636d 635f706f 00646e6f     mmc_mci_op_cond.

0040a252 <CSWTCH.39>:
  40a252:	00000080 697845c0 676e6974 74697720     .....Exiting wit
  40a262:	74732068 73757461 2e642520 0100000a              h status %d...

0040a270 <CSWTCH.6>:
  40a270:	80030100                                         ...

0040a273 <excvt.4497>:
  40a273:	b6909a80 808fb78e d8d4d3d2 8f8eded7     ................
  40a283:	e2929290 ebeae399 9d9a9959 9f9e9d9c     ........Y.......
  40a293:	e9e0d6b5 a7a6a5a5 abaaa9a8 afae21ac     .............!..
  40a2a3:	b3b2b1b0 b7b6b5b4 bbbab9b8 bfbebdbc     ................
  40a2b3:	c3c2c1c0 c7c7c5c4 cbcac9c8 cfcecdcc     ................
  40a2c3:	d3d2d1d0 d7d6d5d4 dbdad9d8 dfdedddc     ................
  40a2d3:	e3e2e1e0 e7e6e5e5 ebeae9e7 efeeeded     ................
  40a2e3:	f3f2f1f0 f7f6f5f4 fbfaf9f8 fffefdfc     ................
  40a2f3:	3c3a2a22 7f7c3f3e 3b2c2b00 005d5b3d     "*:<>?|..+,;=[].

0040a303 <LfnOfs>:
  40a303:	07050301 12100e09 1c181614 6200611e              .............

0040a310 <tbl_lower.4247>:
  40a310:	00620061 00640063 00660065 00680067     a.b.c.d.e.f.g.h.
  40a320:	006a0069 006c006b 006e006d 0070006f     i.j.k.l.m.n.o.p.
  40a330:	00720071 00740073 00760075 00780077     q.r.s.t.u.v.w.x.
  40a340:	007a0079 00a200a1 00a500a3 00af00ac     y.z.............
  40a350:	00e100e0 00e300e2 00e500e4 00e700e6     ................
  40a360:	00e900e8 00eb00ea 00ed00ec 00ef00ee     ................
  40a370:	00f100f0 00f300f2 00f500f4 00f800f6     ................
  40a380:	00fa00f9 00fc00fb 00fe00fd 010100ff     ................
  40a390:	01050103 01090107 010d010b 0111010f     ................
  40a3a0:	01150113 01190117 011d011b 0121011f     ..............!.
  40a3b0:	01250123 01290127 012d012b 0131012f     #.%.'.).+.-./.1.
  40a3c0:	01350133 013a0137 013e013c 01420140     3.5.7.:.<.>.@.B.
  40a3d0:	01460144 014b0148 014f014d 01530151     D.F.H.K.M.O.Q.S.
  40a3e0:	01570155 015b0159 015f015d 01630161     U.W.Y.[.]._.a.c.
  40a3f0:	01670165 016b0169 016f016d 01730171     e.g.i.k.m.o.q.s.
  40a400:	01770175 017c017a 0192017e 03b203b1     u.w.z.|.~.......
  40a410:	03b403b3 03b603b5 03b803b7 03ba03b9     ................
  40a420:	03bc03bb 03be03bd 03c003bf 03c303c1     ................
  40a430:	03c503c4 03c703c6 03c903c8 043003ca     ..............0.
  40a440:	04320431 04340433 04360435 04380437     1.2.3.4.5.6.7.8.
  40a450:	043a0439 043c043b 043e043d 0440043f     9.:.;.<.=.>.?.@.
  40a460:	04420441 04440443 04460445 04480447     A.B.C.D.E.F.G.H.
  40a470:	044a0449 044c044b 044e044d 0451044f     I.J.K.L.M.N.O.Q.
  40a480:	04530452 04550454 04570456 04590458     R.S.T.U.V.W.X.Y.
  40a490:	045b045a 045e045c 2170045f 21722171     Z.[.\.^._.p!q!r!
  40a4a0:	21742173 21762175 21782177 217a2179     s!t!u!v!w!x!y!z!
  40a4b0:	217c217b 217e217d ff41217f ff43ff42     {!|!}!~!.!A.B.C.
  40a4c0:	ff45ff44 ff47ff46 ff49ff48 ff4bff4a     D.E.F.G.H.I.J.K.
  40a4d0:	ff4dff4c ff4fff4e ff51ff50 ff53ff52     L.M.N.O.P.Q.R.S.
  40a4e0:	ff55ff54 ff57ff56 ff59ff58 0000ff5a     T.U.V.W.X.Y.Z...

0040a4f0 <Tbl>:
  40a4f0:	00fc00c7 00e200e9 00e000e4 00e700e5     ................
  40a500:	00eb00ea 00ef00e8 00ec00ee 00c500c4     ................
  40a510:	00e600c9 00f400c6 00f200f6 00f900fb     ................
  40a520:	00d600ff 00f800dc 00d800a3 019200d7     ................
  40a530:	00ed00e1 00fa00f3 00d100f1 00ba00aa     ................
  40a540:	00ae00bf 00bd00ac 00a100bc 00bb00ab     ................
  40a550:	25922591 25022593 00c12524 00c000c2     .%.%.%.%$%......
  40a560:	256300a9 25572551 00a2255d 251000a5     ..c%Q%W%]%.....%
  40a570:	25342514 251c252c 253c2500 00c300e3     .%4%,%.%.%<%....
  40a580:	2554255a 25662569 25502560 00a4256c     Z%T%i%f%`%P%l%..
  40a590:	00d000f0 00cb00ca 013100c8 00ce00cd     ..........1.....
  40a5a0:	251800cf 2588250c 00a62584 258000cc     ...%.%.%.%.....%
  40a5b0:	00df00d3 00d200d4 00d500f5 00fe00b5     ................
  40a5c0:	00da00de 00d900db 00dd00fd 00b400af     ................
  40a5d0:	00b100ad 00be2017 00a700b6 00b800f7     ..... ..........
  40a5e0:	00a800b0 00b900b7 00b200b3 00a025a0     .............%..

0040a5f0 <tbl_upper.4248>:
  40a5f0:	00420041 00440043 00460045 00480047     A.B.C.D.E.F.G.H.
  40a600:	004a0049 004c004b 004e004d 0050004f     I.J.K.L.M.N.O.P.
  40a610:	00520051 00540053 00560055 00580057     Q.R.S.T.U.V.W.X.
  40a620:	005a0059 ffe00021 ffe5ffe1 ffe3ffe2     Y.Z.!...........
  40a630:	00c100c0 00c300c2 00c500c4 00c700c6     ................
  40a640:	00c900c8 00cb00ca 00cd00cc 00cf00ce     ................
  40a650:	00d100d0 00d300d2 00d500d4 00d800d6     ................
  40a660:	00da00d9 00dc00db 00de00dd 01000178     ............x...
  40a670:	01040102 01080106 010c010a 0110010e     ................
  40a680:	01140112 01180116 011c011a 0120011e     .............. .
  40a690:	01240122 01280126 012c012a 0130012e     ".$.&.(.*.,...0.
  40a6a0:	01340132 01390136 013d013b 0141013f     2.4.6.9.;.=.?.A.
  40a6b0:	01450143 014a0147 014e014c 01520150     C.E.G.J.L.N.P.R.
  40a6c0:	01560154 015a0158 015e015c 01620160     T.V.X.Z.\.^.`.b.
  40a6d0:	01660164 016a0168 016e016c 01720170     d.f.h.j.l.n.p.r.
  40a6e0:	01760174 017b0179 0191017d 03920391     t.v.y.{.}.......
  40a6f0:	03940393 03960395 03980397 039a0399     ................
  40a700:	039c039b 039e039d 03a0039f 03a303a1     ................
  40a710:	03a503a4 03a703a6 03a903a8 041003aa     ................
  40a720:	04120411 04140413 04160415 04180417     ................
  40a730:	041a0419 041c041b 041e041d 0420041f     .............. .
  40a740:	04220421 04240423 04260425 04280427     !.".#.$.%.&.'.(.
  40a750:	042a0429 042c042b 042e042d 0401042f     ).*.+.,.-.../...
  40a760:	04030402 04050404 04070406 04090408     ................
  40a770:	040b040a 040e040c 2160040f 21622161     ..........`!a!b!
  40a780:	21642163 21662165 21682167 216a2169     c!d!e!f!g!h!i!j!
  40a790:	216c216b 216e216d ff21216f ff23ff22     k!l!m!n!o!!.".#.
  40a7a0:	ff25ff24 ff27ff26 ff29ff28 ff2bff2a     $.%.&.'.(.).*.+.
  40a7b0:	ff2dff2c ff2fff2e ff31ff30 ff33ff32     ,.-.../.0.1.2.3.
  40a7c0:	ff35ff34 ff37ff36 ff39ff38 0000ff3a     4.5.6.7.8.9.:...

0040a7d0 <_global_impure_ptr>:
  40a7d0:	20000118 20200043                                ... C.

0040a7d6 <blanks.6672>:
  40a7d6:	20202020 20202020 20202020 20202020                     

0040a7e6 <zeroes.6673>:
  40a7e6:	30303030 30303030 30303030 30303030     0000000000000000
  40a7f6:	33323130 37363534 42413938 46454443     0123456789ABCDEF
  40a806:	32313000 36353433 61393837 65646362     .0123456789abcde
  40a816:	20200066                                         f.

0040a818 <blanks.6659>:
  40a818:	20202020 20202020 20202020 20202020                     

0040a828 <zeroes.6660>:
  40a828:	30303030 30303030 30303030 30303030     0000000000000000
  40a838:	49534f50 00000058 8101b2a1 01aeb0b0     POSIX...........
  40a848:	00000000 8101b108 8400b0b0 00000000     ................
  40a858:	8101b108 8400b0b0 00000000 8101b108     ................
  40a868:	8400b0b0 00000000                       ........

0040a870 <_init>:
  40a870:	b5f8      	push	{r3, r4, r5, r6, r7, lr}
  40a872:	bf00      	nop
  40a874:	bcf8      	pop	{r3, r4, r5, r6, r7}
  40a876:	bc08      	pop	{r3}
  40a878:	469e      	mov	lr, r3
  40a87a:	4770      	bx	lr

0040a87c <__init_array_start>:
  40a87c:	00407219 	.word	0x00407219

0040a880 <__frame_dummy_init_array_entry>:
  40a880:	00400149                                I.@.

0040a884 <_fini>:
  40a884:	b5f8      	push	{r3, r4, r5, r6, r7, lr}
  40a886:	bf00      	nop
  40a888:	bcf8      	pop	{r3, r4, r5, r6, r7}
  40a88a:	bc08      	pop	{r3}
  40a88c:	469e      	mov	lr, r3
  40a88e:	4770      	bx	lr

0040a890 <__fini_array_start>:
  40a890:	00400121 	.word	0x00400121

Disassembly of section .relocate:

20000000 <portable_delay_cycles>:
20000000:	f3bf 8f5f 	dmb	sy
20000004:	3801      	subs	r0, #1
20000006:	d1fb      	bne.n	20000000 <portable_delay_cycles>
20000008:	4770      	bx	lr
	...

2000000c <SystemCoreClock>:
2000000c:	0900 003d                                   ..=.

20000010 <file_name>:
20000010:	3a30 655a 7070 696c 2d6e 4346 622e 6e69     0:Zepplin-FC.bin
	...

20000021 <b_read>:
20000021:	0001 ff00                                        ...

20000024 <bTemp>:
20000024:	ffff ffff                                   ....

20000028 <sd_mmc_cards>:
	...
20000030:	0001 0000 0000 0000 0000 0000 0000 0000     ................
	...

2000004c <udi_api_cdc_data>:
2000004c:	19f9 0040 16dd 0040 16d1 0040 16d5 0040     ..@...@...@...@.
2000005c:	1839 0040                                   9.@.

20000060 <udi_api_cdc_comm>:
20000060:	187d 0040 16c1 0040 1719 0040 16d5 0040     }.@...@...@...@.
20000070:	0000 0000                                   ....

20000074 <udc_config>:
20000074:	008c 2000 0084 2000                         ... ... 

2000007c <udi_apis>:
2000007c:	0060 2000 004c 2000                         `.. L.. 

20000084 <udc_config_fs>:
20000084:	00a0 2000 007c 2000                         ... |.. 

2000008c <udc_device_desc>:
2000008c:	0112 0200 0002 4000 03eb 2404 0100 0201     .......@...$....
2000009c:	0100 0000                                   ....

200000a0 <udc_desc_fs>:
200000a0:	0209 0043 0102 c000 0932 0004 0100 0202     ..C.....2.......
200000b0:	0001 2405 1000 0401 0224 0502 0624 0100     ...$....$...$...
200000c0:	2405 0301 0701 8305 4003 1000 0409 0001     .$.......@......
200000d0:	0a02 0000 0700 8105 4002 0000 0507 0202     .........@......
200000e0:	0040 0000                                   @...

200000e4 <udc_string_product_name>:
200000e4:	4443 0043                                   CDC.

200000e8 <udc_string_manufacturer_name>:
200000e8:	5441 454d 204c 5341 0046 0000               ATMEL ASF...

200000f4 <udc_string_desc>:
200000f4:	0300 0000 0000 0000 0000 0000 0000 0000     ................
20000104:	0000 0000                                   ....

20000108 <udc_string_desc_languageid>:
20000108:	0304 0409                                   ....

2000010c <g_interrupt_enabled>:
2000010c:	0001 0000                                   ....

20000110 <_impure_ptr>:
20000110:	0118 2000 0000 0000                         ... ....

20000118 <impure_data>:
20000118:	0000 0000 0404 2000 046c 2000 04d4 2000     ....... l.. ... 
	...
2000014c:	a7d4 0040 0000 0000 0000 0000 0000 0000     ..@.............
	...
200001c0:	0001 0000 0000 0000 330e abcd 1234 e66d     .........3..4.m.
200001d0:	deec 0005 000b 0000 0000 0000 0000 0000     ................
	...

20000540 <lc_ctype_charset>:
20000540:	5341 4943 0049 0000 0000 0000 0000 0000     ASCII...........
	...

20000560 <__mb_cur_max>:
20000560:	0001 0000                                   ....

20000564 <lc_message_charset>:
20000564:	5341 4943 0049 0000 0000 0000 0000 0000     ASCII...........
	...

20000584 <lconv>:
20000584:	9df9 0040 9e83 0040 9e83 0040 9e83 0040     ..@...@...@...@.
20000594:	9e83 0040 9e83 0040 9e83 0040 9e83 0040     ..@...@...@...@.
200005a4:	9e83 0040 9e83 0040 ffff ffff ffff ffff     ..@...@.........
200005b4:	ffff ffff ffff 0000                         ........

200005bc <__malloc_av_>:
	...
200005c4:	05bc 2000 05bc 2000 05c4 2000 05c4 2000     ... ... ... ... 
200005d4:	05cc 2000 05cc 2000 05d4 2000 05d4 2000     ... ... ... ... 
200005e4:	05dc 2000 05dc 2000 05e4 2000 05e4 2000     ... ... ... ... 
200005f4:	05ec 2000 05ec 2000 05f4 2000 05f4 2000     ... ... ... ... 
20000604:	05fc 2000 05fc 2000 0604 2000 0604 2000     ... ... ... ... 
20000614:	060c 2000 060c 2000 0614 2000 0614 2000     ... ... ... ... 
20000624:	061c 2000 061c 2000 0624 2000 0624 2000     ... ... $.. $.. 
20000634:	062c 2000 062c 2000 0634 2000 0634 2000     ,.. ,.. 4.. 4.. 
20000644:	063c 2000 063c 2000 0644 2000 0644 2000     <.. <.. D.. D.. 
20000654:	064c 2000 064c 2000 0654 2000 0654 2000     L.. L.. T.. T.. 
20000664:	065c 2000 065c 2000 0664 2000 0664 2000     \.. \.. d.. d.. 
20000674:	066c 2000 066c 2000 0674 2000 0674 2000     l.. l.. t.. t.. 
20000684:	067c 2000 067c 2000 0684 2000 0684 2000     |.. |.. ... ... 
20000694:	068c 2000 068c 2000 0694 2000 0694 2000     ... ... ... ... 
200006a4:	069c 2000 069c 2000 06a4 2000 06a4 2000     ... ... ... ... 
200006b4:	06ac 2000 06ac 2000 06b4 2000 06b4 2000     ... ... ... ... 
200006c4:	06bc 2000 06bc 2000 06c4 2000 06c4 2000     ... ... ... ... 
200006d4:	06cc 2000 06cc 2000 06d4 2000 06d4 2000     ... ... ... ... 
200006e4:	06dc 2000 06dc 2000 06e4 2000 06e4 2000     ... ... ... ... 
200006f4:	06ec 2000 06ec 2000 06f4 2000 06f4 2000     ... ... ... ... 
20000704:	06fc 2000 06fc 2000 0704 2000 0704 2000     ... ... ... ... 
20000714:	070c 2000 070c 2000 0714 2000 0714 2000     ... ... ... ... 
20000724:	071c 2000 071c 2000 0724 2000 0724 2000     ... ... $.. $.. 
20000734:	072c 2000 072c 2000 0734 2000 0734 2000     ,.. ,.. 4.. 4.. 
20000744:	073c 2000 073c 2000 0744 2000 0744 2000     <.. <.. D.. D.. 
20000754:	074c 2000 074c 2000 0754 2000 0754 2000     L.. L.. T.. T.. 
20000764:	075c 2000 075c 2000 0764 2000 0764 2000     \.. \.. d.. d.. 
20000774:	076c 2000 076c 2000 0774 2000 0774 2000     l.. l.. t.. t.. 
20000784:	077c 2000 077c 2000 0784 2000 0784 2000     |.. |.. ... ... 
20000794:	078c 2000 078c 2000 0794 2000 0794 2000     ... ... ... ... 
200007a4:	079c 2000 079c 2000 07a4 2000 07a4 2000     ... ... ... ... 
200007b4:	07ac 2000 07ac 2000 07b4 2000 07b4 2000     ... ... ... ... 
200007c4:	07bc 2000 07bc 2000 07c4 2000 07c4 2000     ... ... ... ... 
200007d4:	07cc 2000 07cc 2000 07d4 2000 07d4 2000     ... ... ... ... 
200007e4:	07dc 2000 07dc 2000 07e4 2000 07e4 2000     ... ... ... ... 
200007f4:	07ec 2000 07ec 2000 07f4 2000 07f4 2000     ... ... ... ... 
20000804:	07fc 2000 07fc 2000 0804 2000 0804 2000     ... ... ... ... 
20000814:	080c 2000 080c 2000 0814 2000 0814 2000     ... ... ... ... 
20000824:	081c 2000 081c 2000 0824 2000 0824 2000     ... ... $.. $.. 
20000834:	082c 2000 082c 2000 0834 2000 0834 2000     ,.. ,.. 4.. 4.. 
20000844:	083c 2000 083c 2000 0844 2000 0844 2000     <.. <.. D.. D.. 
20000854:	084c 2000 084c 2000 0854 2000 0854 2000     L.. L.. T.. T.. 
20000864:	085c 2000 085c 2000 0864 2000 0864 2000     \.. \.. d.. d.. 
20000874:	086c 2000 086c 2000 0874 2000 0874 2000     l.. l.. t.. t.. 
20000884:	087c 2000 087c 2000 0884 2000 0884 2000     |.. |.. ... ... 
20000894:	088c 2000 088c 2000 0894 2000 0894 2000     ... ... ... ... 
200008a4:	089c 2000 089c 2000 08a4 2000 08a4 2000     ... ... ... ... 
200008b4:	08ac 2000 08ac 2000 08b4 2000 08b4 2000     ... ... ... ... 
200008c4:	08bc 2000 08bc 2000 08c4 2000 08c4 2000     ... ... ... ... 
200008d4:	08cc 2000 08cc 2000 08d4 2000 08d4 2000     ... ... ... ... 
200008e4:	08dc 2000 08dc 2000 08e4 2000 08e4 2000     ... ... ... ... 
200008f4:	08ec 2000 08ec 2000 08f4 2000 08f4 2000     ... ... ... ... 
20000904:	08fc 2000 08fc 2000 0904 2000 0904 2000     ... ... ... ... 
20000914:	090c 2000 090c 2000 0914 2000 0914 2000     ... ... ... ... 
20000924:	091c 2000 091c 2000 0924 2000 0924 2000     ... ... $.. $.. 
20000934:	092c 2000 092c 2000 0934 2000 0934 2000     ,.. ,.. 4.. 4.. 
20000944:	093c 2000 093c 2000 0944 2000 0944 2000     <.. <.. D.. D.. 
20000954:	094c 2000 094c 2000 0954 2000 0954 2000     L.. L.. T.. T.. 
20000964:	095c 2000 095c 2000 0964 2000 0964 2000     \.. \.. d.. d.. 
20000974:	096c 2000 096c 2000 0974 2000 0974 2000     l.. l.. t.. t.. 
20000984:	097c 2000 097c 2000 0984 2000 0984 2000     |.. |.. ... ... 
20000994:	098c 2000 098c 2000 0994 2000 0994 2000     ... ... ... ... 
200009a4:	099c 2000 099c 2000 09a4 2000 09a4 2000     ... ... ... ... 
200009b4:	09ac 2000 09ac 2000 09b4 2000 09b4 2000     ... ... ... ... 

200009c4 <__malloc_sbrk_base>:
200009c4:	ffff ffff                                   ....

200009c8 <__malloc_trim_threshold>:
200009c8:	0000 0002                                   ....

200009cc <__wctomb>:
200009cc:	8681 0040                                   ..@.
