Archive member included because of file (symbol)

c:/program files (x86)/atmel/atmel studio 6.0/extensions/atmel/armgcc/3.3.1.128/armgcctoolchain/bin/../lib/gcc/arm-none-eabi/4.7.0/../../../../arm-none-eabi/lib/thumb\libc.a(lib_a-assert.o)
                              src/asf/sam/services/flash_efc/flash_efc.o (__assert_func)
c:/program files (x86)/atmel/atmel studio 6.0/extensions/atmel/armgcc/3.3.1.128/armgcctoolchain/bin/../lib/gcc/arm-none-eabi/4.7.0/../../../../arm-none-eabi/lib/thumb\libc.a(lib_a-atexit.o)
                              c:/program files (x86)/atmel/atmel studio 6.0/extensions/atmel/armgcc/3.3.1.128/armgcctoolchain/bin/../lib/gcc/arm-none-eabi/4.7.0/../../../../arm-none-eabi/lib/thumb/crt0.o (atexit)
c:/program files (x86)/atmel/atmel studio 6.0/extensions/atmel/armgcc/3.3.1.128/armgcctoolchain/bin/../lib/gcc/arm-none-eabi/4.7.0/../../../../arm-none-eabi/lib/thumb\libc.a(lib_a-exit.o)
                              c:/program files (x86)/atmel/atmel studio 6.0/extensions/atmel/armgcc/3.3.1.128/armgcctoolchain/bin/../lib/gcc/arm-none-eabi/4.7.0/../../../../arm-none-eabi/lib/thumb/crt0.o (exit)
c:/program files (x86)/atmel/atmel studio 6.0/extensions/atmel/armgcc/3.3.1.128/armgcctoolchain/bin/../lib/gcc/arm-none-eabi/4.7.0/../../../../arm-none-eabi/lib/thumb\libc.a(lib_a-fini.o)
                              c:/program files (x86)/atmel/atmel studio 6.0/extensions/atmel/armgcc/3.3.1.128/armgcctoolchain/bin/../lib/gcc/arm-none-eabi/4.7.0/../../../../arm-none-eabi/lib/thumb/crt0.o (__libc_fini_array)
c:/program files (x86)/atmel/atmel studio 6.0/extensions/atmel/armgcc/3.3.1.128/armgcctoolchain/bin/../lib/gcc/arm-none-eabi/4.7.0/../../../../arm-none-eabi/lib/thumb\libc.a(lib_a-fiprintf.o)
                              c:/program files (x86)/atmel/atmel studio 6.0/extensions/atmel/armgcc/3.3.1.128/armgcctoolchain/bin/../lib/gcc/arm-none-eabi/4.7.0/../../../../arm-none-eabi/lib/thumb\libc.a(lib_a-assert.o) (fiprintf)
c:/program files (x86)/atmel/atmel studio 6.0/extensions/atmel/armgcc/3.3.1.128/armgcctoolchain/bin/../lib/gcc/arm-none-eabi/4.7.0/../../../../arm-none-eabi/lib/thumb\libc.a(lib_a-impure.o)
                              c:/program files (x86)/atmel/atmel studio 6.0/extensions/atmel/armgcc/3.3.1.128/armgcctoolchain/bin/../lib/gcc/arm-none-eabi/4.7.0/../../../../arm-none-eabi/lib/thumb\libc.a(lib_a-exit.o) (_global_impure_ptr)
c:/program files (x86)/atmel/atmel studio 6.0/extensions/atmel/armgcc/3.3.1.128/armgcctoolchain/bin/../lib/gcc/arm-none-eabi/4.7.0/../../../../arm-none-eabi/lib/thumb\libc.a(lib_a-init.o)
                              c:/program files (x86)/atmel/atmel studio 6.0/extensions/atmel/armgcc/3.3.1.128/armgcctoolchain/bin/../lib/gcc/arm-none-eabi/4.7.0/../../../../arm-none-eabi/lib/thumb/crt0.o (__libc_init_array)
c:/program files (x86)/atmel/atmel studio 6.0/extensions/atmel/armgcc/3.3.1.128/armgcctoolchain/bin/../lib/gcc/arm-none-eabi/4.7.0/../../../../arm-none-eabi/lib/thumb\libc.a(lib_a-memcpy.o)
                              src/asf/common/services/usb/class/cdc/device/udi_cdc.o (memcpy)
c:/program files (x86)/atmel/atmel studio 6.0/extensions/atmel/armgcc/3.3.1.128/armgcctoolchain/bin/../lib/gcc/arm-none-eabi/4.7.0/../../../../arm-none-eabi/lib/thumb\libc.a(lib_a-memset.o)
                              c:/program files (x86)/atmel/atmel studio 6.0/extensions/atmel/armgcc/3.3.1.128/armgcctoolchain/bin/../lib/gcc/arm-none-eabi/4.7.0/../../../../arm-none-eabi/lib/thumb/crt0.o (memset)
c:/program files (x86)/atmel/atmel studio 6.0/extensions/atmel/armgcc/3.3.1.128/armgcctoolchain/bin/../lib/gcc/arm-none-eabi/4.7.0/../../../../arm-none-eabi/lib/thumb\libc.a(lib_a-printf.o)
                              src/zeppelin_fc.o (printf)
c:/program files (x86)/atmel/atmel studio 6.0/extensions/atmel/armgcc/3.3.1.128/armgcctoolchain/bin/../lib/gcc/arm-none-eabi/4.7.0/../../../../arm-none-eabi/lib/thumb\libc.a(lib_a-puts.o)
                              src/zeppelin_fc.o (puts)
c:/program files (x86)/atmel/atmel studio 6.0/extensions/atmel/armgcc/3.3.1.128/armgcctoolchain/bin/../lib/gcc/arm-none-eabi/4.7.0/../../../../arm-none-eabi/lib/thumb\libc.a(lib_a-setbuf.o)
                              src/asf/common/utils/stdio/stdio_usb/stdio_usb.o (setbuf)
c:/program files (x86)/atmel/atmel studio 6.0/extensions/atmel/armgcc/3.3.1.128/armgcctoolchain/bin/../lib/gcc/arm-none-eabi/4.7.0/../../../../arm-none-eabi/lib/thumb\libc.a(lib_a-setvbuf.o)
                              c:/program files (x86)/atmel/atmel studio 6.0/extensions/atmel/armgcc/3.3.1.128/armgcctoolchain/bin/../lib/gcc/arm-none-eabi/4.7.0/../../../../arm-none-eabi/lib/thumb\libc.a(lib_a-setbuf.o) (setvbuf)
c:/program files (x86)/atmel/atmel studio 6.0/extensions/atmel/armgcc/3.3.1.128/armgcctoolchain/bin/../lib/gcc/arm-none-eabi/4.7.0/../../../../arm-none-eabi/lib/thumb\libc.a(lib_a-sprintf.o)
                              src/zeppelin_fc.o (sprintf)
c:/program files (x86)/atmel/atmel studio 6.0/extensions/atmel/armgcc/3.3.1.128/armgcctoolchain/bin/../lib/gcc/arm-none-eabi/4.7.0/../../../../arm-none-eabi/lib/thumb\libc.a(lib_a-strlen.o)
                              c:/program files (x86)/atmel/atmel studio 6.0/extensions/atmel/armgcc/3.3.1.128/armgcctoolchain/bin/../lib/gcc/arm-none-eabi/4.7.0/../../../../arm-none-eabi/lib/thumb\libc.a(lib_a-puts.o) (strlen)
c:/program files (x86)/atmel/atmel studio 6.0/extensions/atmel/armgcc/3.3.1.128/armgcctoolchain/bin/../lib/gcc/arm-none-eabi/4.7.0/../../../../arm-none-eabi/lib/thumb\libc.a(lib_a-svfprintf.o)
                              c:/program files (x86)/atmel/atmel studio 6.0/extensions/atmel/armgcc/3.3.1.128/armgcctoolchain/bin/../lib/gcc/arm-none-eabi/4.7.0/../../../../arm-none-eabi/lib/thumb\libc.a(lib_a-sprintf.o) (_svfprintf_r)
c:/program files (x86)/atmel/atmel studio 6.0/extensions/atmel/armgcc/3.3.1.128/armgcctoolchain/bin/../lib/gcc/arm-none-eabi/4.7.0/../../../../arm-none-eabi/lib/thumb\libc.a(lib_a-vfiprintf.o)
                              c:/program files (x86)/atmel/atmel studio 6.0/extensions/atmel/armgcc/3.3.1.128/armgcctoolchain/bin/../lib/gcc/arm-none-eabi/4.7.0/../../../../arm-none-eabi/lib/thumb\libc.a(lib_a-fiprintf.o) (_vfiprintf_r)
c:/program files (x86)/atmel/atmel studio 6.0/extensions/atmel/armgcc/3.3.1.128/armgcctoolchain/bin/../lib/gcc/arm-none-eabi/4.7.0/../../../../arm-none-eabi/lib/thumb\libc.a(lib_a-vfprintf.o)
                              c:/program files (x86)/atmel/atmel studio 6.0/extensions/atmel/armgcc/3.3.1.128/armgcctoolchain/bin/../lib/gcc/arm-none-eabi/4.7.0/../../../../arm-none-eabi/lib/thumb\libc.a(lib_a-printf.o) (_vfprintf_r)
c:/program files (x86)/atmel/atmel studio 6.0/extensions/atmel/armgcc/3.3.1.128/armgcctoolchain/bin/../lib/gcc/arm-none-eabi/4.7.0/../../../../arm-none-eabi/lib/thumb\libc.a(lib_a-wsetup.o)
                              c:/program files (x86)/atmel/atmel studio 6.0/extensions/atmel/armgcc/3.3.1.128/armgcctoolchain/bin/../lib/gcc/arm-none-eabi/4.7.0/../../../../arm-none-eabi/lib/thumb\libc.a(lib_a-vfiprintf.o) (__swsetup_r)
c:/program files (x86)/atmel/atmel studio 6.0/extensions/atmel/armgcc/3.3.1.128/armgcctoolchain/bin/../lib/gcc/arm-none-eabi/4.7.0/../../../../arm-none-eabi/lib/thumb\libc.a(lib_a-__atexit.o)
                              c:/program files (x86)/atmel/atmel studio 6.0/extensions/atmel/armgcc/3.3.1.128/armgcctoolchain/bin/../lib/gcc/arm-none-eabi/4.7.0/../../../../arm-none-eabi/lib/thumb\libc.a(lib_a-atexit.o) (__register_exitproc)
c:/program files (x86)/atmel/atmel studio 6.0/extensions/atmel/armgcc/3.3.1.128/armgcctoolchain/bin/../lib/gcc/arm-none-eabi/4.7.0/../../../../arm-none-eabi/lib/thumb\libc.a(lib_a-__call_atexit.o)
                              c:/program files (x86)/atmel/atmel studio 6.0/extensions/atmel/armgcc/3.3.1.128/armgcctoolchain/bin/../lib/gcc/arm-none-eabi/4.7.0/../../../../arm-none-eabi/lib/thumb\libc.a(lib_a-exit.o) (__call_exitprocs)
c:/program files (x86)/atmel/atmel studio 6.0/extensions/atmel/armgcc/3.3.1.128/armgcctoolchain/bin/../lib/gcc/arm-none-eabi/4.7.0/../../../../arm-none-eabi/lib/thumb\libc.a(lib_a-abort.o)
                              c:/program files (x86)/atmel/atmel studio 6.0/extensions/atmel/armgcc/3.3.1.128/armgcctoolchain/bin/../lib/gcc/arm-none-eabi/4.7.0/../../../../arm-none-eabi/lib/thumb\libc.a(lib_a-assert.o) (abort)
c:/program files (x86)/atmel/atmel studio 6.0/extensions/atmel/armgcc/3.3.1.128/armgcctoolchain/bin/../lib/gcc/arm-none-eabi/4.7.0/../../../../arm-none-eabi/lib/thumb\libc.a(lib_a-fflush.o)
                              c:/program files (x86)/atmel/atmel studio 6.0/extensions/atmel/armgcc/3.3.1.128/armgcctoolchain/bin/../lib/gcc/arm-none-eabi/4.7.0/../../../../arm-none-eabi/lib/thumb\libc.a(lib_a-setvbuf.o) (_fflush_r)
c:/program files (x86)/atmel/atmel studio 6.0/extensions/atmel/armgcc/3.3.1.128/armgcctoolchain/bin/../lib/gcc/arm-none-eabi/4.7.0/../../../../arm-none-eabi/lib/thumb\libc.a(lib_a-findfp.o)
                              c:/program files (x86)/atmel/atmel studio 6.0/extensions/atmel/armgcc/3.3.1.128/armgcctoolchain/bin/../lib/gcc/arm-none-eabi/4.7.0/../../../../arm-none-eabi/lib/thumb\libc.a(lib_a-setvbuf.o) (_cleanup_r)
c:/program files (x86)/atmel/atmel studio 6.0/extensions/atmel/armgcc/3.3.1.128/armgcctoolchain/bin/../lib/gcc/arm-none-eabi/4.7.0/../../../../arm-none-eabi/lib/thumb\libc.a(lib_a-fputwc.o)
                              c:/program files (x86)/atmel/atmel studio 6.0/extensions/atmel/armgcc/3.3.1.128/armgcctoolchain/bin/../lib/gcc/arm-none-eabi/4.7.0/../../../../arm-none-eabi/lib/thumb\libc.a(lib_a-vfiprintf.o) (_fputwc_r)
c:/program files (x86)/atmel/atmel studio 6.0/extensions/atmel/armgcc/3.3.1.128/armgcctoolchain/bin/../lib/gcc/arm-none-eabi/4.7.0/../../../../arm-none-eabi/lib/thumb\libc.a(lib_a-freer.o)
                              c:/program files (x86)/atmel/atmel studio 6.0/extensions/atmel/armgcc/3.3.1.128/armgcctoolchain/bin/../lib/gcc/arm-none-eabi/4.7.0/../../../../arm-none-eabi/lib/thumb\libc.a(lib_a-setvbuf.o) (_free_r)
c:/program files (x86)/atmel/atmel studio 6.0/extensions/atmel/armgcc/3.3.1.128/armgcctoolchain/bin/../lib/gcc/arm-none-eabi/4.7.0/../../../../arm-none-eabi/lib/thumb\libc.a(lib_a-fvwrite.o)
                              c:/program files (x86)/atmel/atmel studio 6.0/extensions/atmel/armgcc/3.3.1.128/armgcctoolchain/bin/../lib/gcc/arm-none-eabi/4.7.0/../../../../arm-none-eabi/lib/thumb\libc.a(lib_a-puts.o) (__sfvwrite_r)
c:/program files (x86)/atmel/atmel studio 6.0/extensions/atmel/armgcc/3.3.1.128/armgcctoolchain/bin/../lib/gcc/arm-none-eabi/4.7.0/../../../../arm-none-eabi/lib/thumb\libc.a(lib_a-fwalk.o)
                              c:/program files (x86)/atmel/atmel studio 6.0/extensions/atmel/armgcc/3.3.1.128/armgcctoolchain/bin/../lib/gcc/arm-none-eabi/4.7.0/../../../../arm-none-eabi/lib/thumb\libc.a(lib_a-findfp.o) (_fwalk)
c:/program files (x86)/atmel/atmel studio 6.0/extensions/atmel/armgcc/3.3.1.128/armgcctoolchain/bin/../lib/gcc/arm-none-eabi/4.7.0/../../../../arm-none-eabi/lib/thumb\libc.a(lib_a-locale.o)
                              c:/program files (x86)/atmel/atmel studio 6.0/extensions/atmel/armgcc/3.3.1.128/armgcctoolchain/bin/../lib/gcc/arm-none-eabi/4.7.0/../../../../arm-none-eabi/lib/thumb\libc.a(lib_a-fputwc.o) (__locale_mb_cur_max)
c:/program files (x86)/atmel/atmel studio 6.0/extensions/atmel/armgcc/3.3.1.128/armgcctoolchain/bin/../lib/gcc/arm-none-eabi/4.7.0/../../../../arm-none-eabi/lib/thumb\libc.a(lib_a-makebuf.o)
                              c:/program files (x86)/atmel/atmel studio 6.0/extensions/atmel/armgcc/3.3.1.128/armgcctoolchain/bin/../lib/gcc/arm-none-eabi/4.7.0/../../../../arm-none-eabi/lib/thumb\libc.a(lib_a-wsetup.o) (__smakebuf_r)
c:/program files (x86)/atmel/atmel studio 6.0/extensions/atmel/armgcc/3.3.1.128/armgcctoolchain/bin/../lib/gcc/arm-none-eabi/4.7.0/../../../../arm-none-eabi/lib/thumb\libc.a(lib_a-malloc.o)
                              c:/program files (x86)/atmel/atmel studio 6.0/extensions/atmel/armgcc/3.3.1.128/armgcctoolchain/bin/../lib/gcc/arm-none-eabi/4.7.0/../../../../arm-none-eabi/lib/thumb\libc.a(lib_a-setvbuf.o) (malloc)
c:/program files (x86)/atmel/atmel studio 6.0/extensions/atmel/armgcc/3.3.1.128/armgcctoolchain/bin/../lib/gcc/arm-none-eabi/4.7.0/../../../../arm-none-eabi/lib/thumb\libc.a(lib_a-mallocr.o)
                              c:/program files (x86)/atmel/atmel studio 6.0/extensions/atmel/armgcc/3.3.1.128/armgcctoolchain/bin/../lib/gcc/arm-none-eabi/4.7.0/../../../../arm-none-eabi/lib/thumb\libc.a(lib_a-svfprintf.o) (_malloc_r)
c:/program files (x86)/atmel/atmel studio 6.0/extensions/atmel/armgcc/3.3.1.128/armgcctoolchain/bin/../lib/gcc/arm-none-eabi/4.7.0/../../../../arm-none-eabi/lib/thumb\libc.a(lib_a-memchr.o)
                              c:/program files (x86)/atmel/atmel studio 6.0/extensions/atmel/armgcc/3.3.1.128/armgcctoolchain/bin/../lib/gcc/arm-none-eabi/4.7.0/../../../../arm-none-eabi/lib/thumb\libc.a(lib_a-svfprintf.o) (memchr)
c:/program files (x86)/atmel/atmel studio 6.0/extensions/atmel/armgcc/3.3.1.128/armgcctoolchain/bin/../lib/gcc/arm-none-eabi/4.7.0/../../../../arm-none-eabi/lib/thumb\libc.a(lib_a-memmove.o)
                              c:/program files (x86)/atmel/atmel studio 6.0/extensions/atmel/armgcc/3.3.1.128/armgcctoolchain/bin/../lib/gcc/arm-none-eabi/4.7.0/../../../../arm-none-eabi/lib/thumb\libc.a(lib_a-fvwrite.o) (memmove)
c:/program files (x86)/atmel/atmel studio 6.0/extensions/atmel/armgcc/3.3.1.128/armgcctoolchain/bin/../lib/gcc/arm-none-eabi/4.7.0/../../../../arm-none-eabi/lib/thumb\libc.a(lib_a-mlock.o)
                              c:/program files (x86)/atmel/atmel studio 6.0/extensions/atmel/armgcc/3.3.1.128/armgcctoolchain/bin/../lib/gcc/arm-none-eabi/4.7.0/../../../../arm-none-eabi/lib/thumb\libc.a(lib_a-freer.o) (__malloc_lock)
c:/program files (x86)/atmel/atmel studio 6.0/extensions/atmel/armgcc/3.3.1.128/armgcctoolchain/bin/../lib/gcc/arm-none-eabi/4.7.0/../../../../arm-none-eabi/lib/thumb\libc.a(lib_a-reallocr.o)
                              c:/program files (x86)/atmel/atmel studio 6.0/extensions/atmel/armgcc/3.3.1.128/armgcctoolchain/bin/../lib/gcc/arm-none-eabi/4.7.0/../../../../arm-none-eabi/lib/thumb\libc.a(lib_a-fvwrite.o) (_realloc_r)
c:/program files (x86)/atmel/atmel studio 6.0/extensions/atmel/armgcc/3.3.1.128/armgcctoolchain/bin/../lib/gcc/arm-none-eabi/4.7.0/../../../../arm-none-eabi/lib/thumb\libc.a(lib_a-sbrkr.o)
                              c:/program files (x86)/atmel/atmel studio 6.0/extensions/atmel/armgcc/3.3.1.128/armgcctoolchain/bin/../lib/gcc/arm-none-eabi/4.7.0/../../../../arm-none-eabi/lib/thumb\libc.a(lib_a-freer.o) (_sbrk_r)
c:/program files (x86)/atmel/atmel studio 6.0/extensions/atmel/armgcc/3.3.1.128/armgcctoolchain/bin/../lib/gcc/arm-none-eabi/4.7.0/../../../../arm-none-eabi/lib/thumb\libc.a(lib_a-signal.o)
                              c:/program files (x86)/atmel/atmel studio 6.0/extensions/atmel/armgcc/3.3.1.128/armgcctoolchain/bin/../lib/gcc/arm-none-eabi/4.7.0/../../../../arm-none-eabi/lib/thumb\libc.a(lib_a-abort.o) (raise)
c:/program files (x86)/atmel/atmel studio 6.0/extensions/atmel/armgcc/3.3.1.128/armgcctoolchain/bin/../lib/gcc/arm-none-eabi/4.7.0/../../../../arm-none-eabi/lib/thumb\libc.a(lib_a-signalr.o)
                              c:/program files (x86)/atmel/atmel studio 6.0/extensions/atmel/armgcc/3.3.1.128/armgcctoolchain/bin/../lib/gcc/arm-none-eabi/4.7.0/../../../../arm-none-eabi/lib/thumb\libc.a(lib_a-signal.o) (_kill_r)
c:/program files (x86)/atmel/atmel studio 6.0/extensions/atmel/armgcc/3.3.1.128/armgcctoolchain/bin/../lib/gcc/arm-none-eabi/4.7.0/../../../../arm-none-eabi/lib/thumb\libc.a(lib_a-stdio.o)
                              c:/program files (x86)/atmel/atmel studio 6.0/extensions/atmel/armgcc/3.3.1.128/armgcctoolchain/bin/../lib/gcc/arm-none-eabi/4.7.0/../../../../arm-none-eabi/lib/thumb\libc.a(lib_a-findfp.o) (__sread)
c:/program files (x86)/atmel/atmel studio 6.0/extensions/atmel/armgcc/3.3.1.128/armgcctoolchain/bin/../lib/gcc/arm-none-eabi/4.7.0/../../../../arm-none-eabi/lib/thumb\libc.a(lib_a-strcmp.o)
                              c:/program files (x86)/atmel/atmel studio 6.0/extensions/atmel/armgcc/3.3.1.128/armgcctoolchain/bin/../lib/gcc/arm-none-eabi/4.7.0/../../../../arm-none-eabi/lib/thumb\libc.a(lib_a-locale.o) (strcmp)
c:/program files (x86)/atmel/atmel studio 6.0/extensions/atmel/armgcc/3.3.1.128/armgcctoolchain/bin/../lib/gcc/arm-none-eabi/4.7.0/../../../../arm-none-eabi/lib/thumb\libc.a(lib_a-svfiprintf.o)
                              c:/program files (x86)/atmel/atmel studio 6.0/extensions/atmel/armgcc/3.3.1.128/armgcctoolchain/bin/../lib/gcc/arm-none-eabi/4.7.0/../../../../arm-none-eabi/lib/thumb\libc.a(lib_a-svfprintf.o) (__ssprint_r)
c:/program files (x86)/atmel/atmel studio 6.0/extensions/atmel/armgcc/3.3.1.128/armgcctoolchain/bin/../lib/gcc/arm-none-eabi/4.7.0/../../../../arm-none-eabi/lib/thumb\libc.a(lib_a-wbuf.o)
                              c:/program files (x86)/atmel/atmel studio 6.0/extensions/atmel/armgcc/3.3.1.128/armgcctoolchain/bin/../lib/gcc/arm-none-eabi/4.7.0/../../../../arm-none-eabi/lib/thumb\libc.a(lib_a-fputwc.o) (__swbuf_r)
c:/program files (x86)/atmel/atmel studio 6.0/extensions/atmel/armgcc/3.3.1.128/armgcctoolchain/bin/../lib/gcc/arm-none-eabi/4.7.0/../../../../arm-none-eabi/lib/thumb\libc.a(lib_a-wcrtomb.o)
                              c:/program files (x86)/atmel/atmel studio 6.0/extensions/atmel/armgcc/3.3.1.128/armgcctoolchain/bin/../lib/gcc/arm-none-eabi/4.7.0/../../../../arm-none-eabi/lib/thumb\libc.a(lib_a-fputwc.o) (_wcrtomb_r)
c:/program files (x86)/atmel/atmel studio 6.0/extensions/atmel/armgcc/3.3.1.128/armgcctoolchain/bin/../lib/gcc/arm-none-eabi/4.7.0/../../../../arm-none-eabi/lib/thumb\libc.a(lib_a-wctomb_r.o)
                              c:/program files (x86)/atmel/atmel studio 6.0/extensions/atmel/armgcc/3.3.1.128/armgcctoolchain/bin/../lib/gcc/arm-none-eabi/4.7.0/../../../../arm-none-eabi/lib/thumb\libc.a(lib_a-wcrtomb.o) (__wctomb)
c:/program files (x86)/atmel/atmel studio 6.0/extensions/atmel/armgcc/3.3.1.128/armgcctoolchain/bin/../lib/gcc/arm-none-eabi/4.7.0/../../../../arm-none-eabi/lib/thumb\libc.a(lib_a-writer.o)
                              c:/program files (x86)/atmel/atmel studio 6.0/extensions/atmel/armgcc/3.3.1.128/armgcctoolchain/bin/../lib/gcc/arm-none-eabi/4.7.0/../../../../arm-none-eabi/lib/thumb\libc.a(lib_a-stdio.o) (_write_r)
c:/program files (x86)/atmel/atmel studio 6.0/extensions/atmel/armgcc/3.3.1.128/armgcctoolchain/bin/../lib/gcc/arm-none-eabi/4.7.0/../../../../arm-none-eabi/lib/thumb\libc.a(lib_a-closer.o)
                              c:/program files (x86)/atmel/atmel studio 6.0/extensions/atmel/armgcc/3.3.1.128/armgcctoolchain/bin/../lib/gcc/arm-none-eabi/4.7.0/../../../../arm-none-eabi/lib/thumb\libc.a(lib_a-stdio.o) (_close_r)
c:/program files (x86)/atmel/atmel studio 6.0/extensions/atmel/armgcc/3.3.1.128/armgcctoolchain/bin/../lib/gcc/arm-none-eabi/4.7.0/../../../../arm-none-eabi/lib/thumb\libc.a(lib_a-fclose.o)
                              c:/program files (x86)/atmel/atmel studio 6.0/extensions/atmel/armgcc/3.3.1.128/armgcctoolchain/bin/../lib/gcc/arm-none-eabi/4.7.0/../../../../arm-none-eabi/lib/thumb\libc.a(lib_a-findfp.o) (fclose)
c:/program files (x86)/atmel/atmel studio 6.0/extensions/atmel/armgcc/3.3.1.128/armgcctoolchain/bin/../lib/gcc/arm-none-eabi/4.7.0/../../../../arm-none-eabi/lib/thumb\libc.a(lib_a-fstatr.o)
                              c:/program files (x86)/atmel/atmel studio 6.0/extensions/atmel/armgcc/3.3.1.128/armgcctoolchain/bin/../lib/gcc/arm-none-eabi/4.7.0/../../../../arm-none-eabi/lib/thumb\libc.a(lib_a-makebuf.o) (_fstat_r)
c:/program files (x86)/atmel/atmel studio 6.0/extensions/atmel/armgcc/3.3.1.128/armgcctoolchain/bin/../lib/gcc/arm-none-eabi/4.7.0/../../../../arm-none-eabi/lib/thumb\libc.a(lib_a-isattyr.o)
                              c:/program files (x86)/atmel/atmel studio 6.0/extensions/atmel/armgcc/3.3.1.128/armgcctoolchain/bin/../lib/gcc/arm-none-eabi/4.7.0/../../../../arm-none-eabi/lib/thumb\libc.a(lib_a-makebuf.o) (_isatty_r)
c:/program files (x86)/atmel/atmel studio 6.0/extensions/atmel/armgcc/3.3.1.128/armgcctoolchain/bin/../lib/gcc/arm-none-eabi/4.7.0/../../../../arm-none-eabi/lib/thumb\libc.a(lib_a-lseekr.o)
                              c:/program files (x86)/atmel/atmel studio 6.0/extensions/atmel/armgcc/3.3.1.128/armgcctoolchain/bin/../lib/gcc/arm-none-eabi/4.7.0/../../../../arm-none-eabi/lib/thumb\libc.a(lib_a-stdio.o) (_lseek_r)
c:/program files (x86)/atmel/atmel studio 6.0/extensions/atmel/armgcc/3.3.1.128/armgcctoolchain/bin/../lib/gcc/arm-none-eabi/4.7.0/../../../../arm-none-eabi/lib/thumb\libc.a(lib_a-readr.o)
                              c:/program files (x86)/atmel/atmel studio 6.0/extensions/atmel/armgcc/3.3.1.128/armgcctoolchain/bin/../lib/gcc/arm-none-eabi/4.7.0/../../../../arm-none-eabi/lib/thumb\libc.a(lib_a-stdio.o) (_read_r)
c:/program files (x86)/atmel/atmel studio 6.0/extensions/atmel/armgcc/3.3.1.128/armgcctoolchain/bin/../lib/gcc/arm-none-eabi/4.7.0/../../../../arm-none-eabi/lib/thumb\libc.a(lib_a-reent.o)
                              c:/program files (x86)/atmel/atmel studio 6.0/extensions/atmel/armgcc/3.3.1.128/armgcctoolchain/bin/../lib/gcc/arm-none-eabi/4.7.0/../../../../arm-none-eabi/lib/thumb\libc.a(lib_a-sbrkr.o) (errno)
c:/program files (x86)/atmel/atmel studio 6.0/extensions/atmel/armgcc/3.3.1.128/armgcctoolchain/bin/../lib/gcc/arm-none-eabi/4.7.0/thumb\libgcc.a(_aeabi_uldivmod.o)
                              c:/program files (x86)/atmel/atmel studio 6.0/extensions/atmel/armgcc/3.3.1.128/armgcctoolchain/bin/../lib/gcc/arm-none-eabi/4.7.0/../../../../arm-none-eabi/lib/thumb\libc.a(lib_a-svfprintf.o) (__aeabi_uldivmod)
c:/program files (x86)/atmel/atmel studio 6.0/extensions/atmel/armgcc/3.3.1.128/armgcctoolchain/bin/../lib/gcc/arm-none-eabi/4.7.0/thumb\libgcc.a(bpabi.o)
                              c:/program files (x86)/atmel/atmel studio 6.0/extensions/atmel/armgcc/3.3.1.128/armgcctoolchain/bin/../lib/gcc/arm-none-eabi/4.7.0/thumb\libgcc.a(_aeabi_uldivmod.o) (__gnu_uldivmod_helper)
c:/program files (x86)/atmel/atmel studio 6.0/extensions/atmel/armgcc/3.3.1.128/armgcctoolchain/bin/../lib/gcc/arm-none-eabi/4.7.0/thumb\libgcc.a(_dvmd_tls.o)
                              c:/program files (x86)/atmel/atmel studio 6.0/extensions/atmel/armgcc/3.3.1.128/armgcctoolchain/bin/../lib/gcc/arm-none-eabi/4.7.0/thumb\libgcc.a(_aeabi_uldivmod.o) (__aeabi_ldiv0)
c:/program files (x86)/atmel/atmel studio 6.0/extensions/atmel/armgcc/3.3.1.128/armgcctoolchain/bin/../lib/gcc/arm-none-eabi/4.7.0/thumb\libgcc.a(_divdi3.o)
                              c:/program files (x86)/atmel/atmel studio 6.0/extensions/atmel/armgcc/3.3.1.128/armgcctoolchain/bin/../lib/gcc/arm-none-eabi/4.7.0/thumb\libgcc.a(bpabi.o) (__divdi3)
c:/program files (x86)/atmel/atmel studio 6.0/extensions/atmel/armgcc/3.3.1.128/armgcctoolchain/bin/../lib/gcc/arm-none-eabi/4.7.0/thumb\libgcc.a(_udivdi3.o)
                              c:/program files (x86)/atmel/atmel studio 6.0/extensions/atmel/armgcc/3.3.1.128/armgcctoolchain/bin/../lib/gcc/arm-none-eabi/4.7.0/thumb\libgcc.a(bpabi.o) (__udivdi3)
c:/program files (x86)/atmel/atmel studio 6.0/extensions/atmel/armgcc/3.3.1.128/armgcctoolchain/bin/../lib/gcc/arm-none-eabi/4.7.0/thumb\libgcc.a(unwind-arm.o)
                              c:/program files (x86)/atmel/atmel studio 6.0/extensions/atmel/armgcc/3.3.1.128/armgcctoolchain/bin/../lib/gcc/arm-none-eabi/4.7.0/thumb\libgcc.a(_divdi3.o) (__aeabi_unwind_cpp_pr0)
c:/program files (x86)/atmel/atmel studio 6.0/extensions/atmel/armgcc/3.3.1.128/armgcctoolchain/bin/../lib/gcc/arm-none-eabi/4.7.0/thumb\libgcc.a(libunwind.o)
                              c:/program files (x86)/atmel/atmel studio 6.0/extensions/atmel/armgcc/3.3.1.128/armgcctoolchain/bin/../lib/gcc/arm-none-eabi/4.7.0/thumb\libgcc.a(unwind-arm.o) (restore_core_regs)
c:/program files (x86)/atmel/atmel studio 6.0/extensions/atmel/armgcc/3.3.1.128/armgcctoolchain/bin/../lib/gcc/arm-none-eabi/4.7.0/thumb\libgcc.a(pr-support.o)
                              c:/program files (x86)/atmel/atmel studio 6.0/extensions/atmel/armgcc/3.3.1.128/armgcctoolchain/bin/../lib/gcc/arm-none-eabi/4.7.0/thumb\libgcc.a(unwind-arm.o) (__gnu_unwind_execute)

Allocating common symbols
Common symbol       size              file

log                 0x224             src/zeppelin_fc.o
Script              0x200             src/zeppelin_fc.o
errno               0x4               c:/program files (x86)/atmel/atmel studio 6.0/extensions/atmel/armgcc/3.3.1.128/armgcctoolchain/bin/../lib/gcc/arm-none-eabi/4.7.0/../../../../arm-none-eabi/lib/thumb\libc.a(lib_a-reent.o)
fno                 0x20              src/zeppelin_fc.o
fs                  0x230             src/zeppelin_fc.o
file_object         0x224             src/zeppelin_fc.o
ptr_get             0x4               src/asf/common/utils/stdio/read.o
ptr_put             0x4               src/asf/common/utils/stdio/write.o
f_script            0x20              src/zeppelin_fc.o
MPU9150_buffer      0xe               src/MPU9150.o
udd_g_ctrlreq       0x18              src/asf/sam/drivers/udp/udp_device.o
f_log               0x20              src/zeppelin_fc.o
stdio_base          0x4               src/asf/common/utils/stdio/write.o
bw                  0x4               src/zeppelin_fc.o
sleepmgr_locks      0x5               src/asf/common/services/sleepmgr/sam/sleepmgr.o
dir                 0x24              src/zeppelin_fc.o
res                 0x1               src/zeppelin_fc.o
MPU9150_devAddr     0x1               src/MPU9150.o
status              0x1               src/zeppelin_fc.o

Discarded input sections

 .text          0x00000000        0x0 c:/program files (x86)/atmel/atmel studio 6.0/extensions/atmel/armgcc/3.3.1.128/armgcctoolchain/bin/../lib/gcc/arm-none-eabi/4.7.0/thumb/crti.o
 .data          0x00000000        0x0 c:/program files (x86)/atmel/atmel studio 6.0/extensions/atmel/armgcc/3.3.1.128/armgcctoolchain/bin/../lib/gcc/arm-none-eabi/4.7.0/thumb/crti.o
 .bss           0x00000000        0x0 c:/program files (x86)/atmel/atmel studio 6.0/extensions/atmel/armgcc/3.3.1.128/armgcctoolchain/bin/../lib/gcc/arm-none-eabi/4.7.0/thumb/crti.o
 .data          0x00000000        0x4 c:/program files (x86)/atmel/atmel studio 6.0/extensions/atmel/armgcc/3.3.1.128/armgcctoolchain/bin/../lib/gcc/arm-none-eabi/4.7.0/thumb/crtbegin.o
 .text          0x00000000       0x70 c:/program files (x86)/atmel/atmel studio 6.0/extensions/atmel/armgcc/3.3.1.128/armgcctoolchain/bin/../lib/gcc/arm-none-eabi/4.7.0/../../../../arm-none-eabi/lib/thumb/crt0.o
 .data          0x00000000        0x0 c:/program files (x86)/atmel/atmel studio 6.0/extensions/atmel/armgcc/3.3.1.128/armgcctoolchain/bin/../lib/gcc/arm-none-eabi/4.7.0/../../../../arm-none-eabi/lib/thumb/crt0.o
 .bss           0x00000000        0x0 c:/program files (x86)/atmel/atmel studio 6.0/extensions/atmel/armgcc/3.3.1.128/armgcctoolchain/bin/../lib/gcc/arm-none-eabi/4.7.0/../../../../arm-none-eabi/lib/thumb/crt0.o
 .ARM.extab     0x00000000        0x0 c:/program files (x86)/atmel/atmel studio 6.0/extensions/atmel/armgcc/3.3.1.128/armgcctoolchain/bin/../lib/gcc/arm-none-eabi/4.7.0/../../../../arm-none-eabi/lib/thumb/crt0.o
 .ARM.exidx     0x00000000        0x8 c:/program files (x86)/atmel/atmel studio 6.0/extensions/atmel/armgcc/3.3.1.128/armgcctoolchain/bin/../lib/gcc/arm-none-eabi/4.7.0/../../../../arm-none-eabi/lib/thumb/crt0.o
 .ARM.attributes
                0x00000000       0x1b c:/program files (x86)/atmel/atmel studio 6.0/extensions/atmel/armgcc/3.3.1.128/armgcctoolchain/bin/../lib/gcc/arm-none-eabi/4.7.0/../../../../arm-none-eabi/lib/thumb/crt0.o
 .debug_line    0x00000000       0xbd c:/program files (x86)/atmel/atmel studio 6.0/extensions/atmel/armgcc/3.3.1.128/armgcctoolchain/bin/../lib/gcc/arm-none-eabi/4.7.0/../../../../arm-none-eabi/lib/thumb/crt0.o
 .debug_info    0x00000000      0x114 c:/program files (x86)/atmel/atmel studio 6.0/extensions/atmel/armgcc/3.3.1.128/armgcctoolchain/bin/../lib/gcc/arm-none-eabi/4.7.0/../../../../arm-none-eabi/lib/thumb/crt0.o
 .debug_abbrev  0x00000000       0x14 c:/program files (x86)/atmel/atmel studio 6.0/extensions/atmel/armgcc/3.3.1.128/armgcctoolchain/bin/../lib/gcc/arm-none-eabi/4.7.0/../../../../arm-none-eabi/lib/thumb/crt0.o
 .debug_aranges
                0x00000000       0x20 c:/program files (x86)/atmel/atmel studio 6.0/extensions/atmel/armgcc/3.3.1.128/armgcctoolchain/bin/../lib/gcc/arm-none-eabi/4.7.0/../../../../arm-none-eabi/lib/thumb/crt0.o
 .text          0x00000000        0x0 src/asf/sam/drivers/chipid/chipid.o
 .data          0x00000000        0x0 src/asf/sam/drivers/chipid/chipid.o
 .bss           0x00000000        0x0 src/asf/sam/drivers/chipid/chipid.o
 .text.chipid_read
                0x00000000       0x52 src/asf/sam/drivers/chipid/chipid.o
 .text.chipid_read_version
                0x00000000        0x8 src/asf/sam/drivers/chipid/chipid.o
 .text.chipid_read_processor
                0x00000000        0x8 src/asf/sam/drivers/chipid/chipid.o
 .text.chipid_read_arch
                0x00000000        0x8 src/asf/sam/drivers/chipid/chipid.o
 .text.chipid_read_sramsize
                0x00000000        0x8 src/asf/sam/drivers/chipid/chipid.o
 .text.chipid_read_nvpmsize
                0x00000000        0x8 src/asf/sam/drivers/chipid/chipid.o
 .text.chipid_read_nvpm2size
                0x00000000        0x8 src/asf/sam/drivers/chipid/chipid.o
 .text.chipid_read_nvpmtype
                0x00000000        0x8 src/asf/sam/drivers/chipid/chipid.o
 .text.chipid_read_extchipid
                0x00000000        0xc src/asf/sam/drivers/chipid/chipid.o
 .comment       0x00000000       0x34 src/asf/sam/drivers/chipid/chipid.o
 .ARM.attributes
                0x00000000       0x33 src/asf/sam/drivers/chipid/chipid.o
 .text          0x00000000        0x0 src/asf/sam/drivers/pwm/pwm.o
 .data          0x00000000        0x0 src/asf/sam/drivers/pwm/pwm.o
 .bss           0x00000000        0x0 src/asf/sam/drivers/pwm/pwm.o
 .text.pwm_channel_update_period
                0x00000000       0x1e src/asf/sam/drivers/pwm/pwm.o
 .text.pwm_channel_get_counter
                0x00000000        0xc src/asf/sam/drivers/pwm/pwm.o
 .text.pwm_channel_get_status
                0x00000000        0x4 src/asf/sam/drivers/pwm/pwm.o
 .text.pwm_channel_get_interrupt_mask
                0x00000000        0x4 src/asf/sam/drivers/pwm/pwm.o
 .text.pwm_channel_disable_interrupt
                0x00000000       0x12 src/asf/sam/drivers/pwm/pwm.o
 .text.pwm_channel_update_output
                0x00000000       0x60 src/asf/sam/drivers/pwm/pwm.o
 .text.pwm_channel_update_dead_time
                0x00000000       0x14 src/asf/sam/drivers/pwm/pwm.o
 .text.pwm_fault_init
                0x00000000       0x32 src/asf/sam/drivers/pwm/pwm.o
 .text.pwm_fault_get_status
                0x00000000        0x8 src/asf/sam/drivers/pwm/pwm.o
 .text.pwm_fault_get_input_level
                0x00000000        0xc src/asf/sam/drivers/pwm/pwm.o
 .text.pwm_fault_clear_status
                0x00000000        0x4 src/asf/sam/drivers/pwm/pwm.o
 .text.pwm_cmp_init
                0x00000000       0x96 src/asf/sam/drivers/pwm/pwm.o
 .text.pwm_cmp_change_setting
                0x00000000       0xa2 src/asf/sam/drivers/pwm/pwm.o
 .text.pwm_cmp_get_period_counter
                0x00000000        0xe src/asf/sam/drivers/pwm/pwm.o
 .text.pwm_cmp_get_update_counter
                0x00000000        0xe src/asf/sam/drivers/pwm/pwm.o
 .text.pwm_cmp_enable_interrupt
                0x00000000       0x1a src/asf/sam/drivers/pwm/pwm.o
 .text.pwm_cmp_disable_interrupt
                0x00000000       0x1a src/asf/sam/drivers/pwm/pwm.o
 .text.pwm_pdc_set_request_mode
                0x00000000       0x14 src/asf/sam/drivers/pwm/pwm.o
 .text.pwm_pdc_enable_interrupt
                0x00000000        0x4 src/asf/sam/drivers/pwm/pwm.o
 .text.pwm_pdc_disable_interrupt
                0x00000000        0x4 src/asf/sam/drivers/pwm/pwm.o
 .text.pwm_sync_init
                0x00000000       0x14 src/asf/sam/drivers/pwm/pwm.o
 .text.pwm_sync_unlock_update
                0x00000000        0x6 src/asf/sam/drivers/pwm/pwm.o
 .text.pwm_sync_change_period
                0x00000000        0x8 src/asf/sam/drivers/pwm/pwm.o
 .text.pwm_sync_get_period_counter
                0x00000000        0xa src/asf/sam/drivers/pwm/pwm.o
 .text.pwm_sync_enable_interrupt
                0x00000000        0x4 src/asf/sam/drivers/pwm/pwm.o
 .text.pwm_sync_disable_interrupt
                0x00000000        0x4 src/asf/sam/drivers/pwm/pwm.o
 .text.pwm_enable_protect
                0x00000000       0x1c src/asf/sam/drivers/pwm/pwm.o
 .text.pwm_disable_protect
                0x00000000       0x10 src/asf/sam/drivers/pwm/pwm.o
 .text.pwm_get_protect_status
                0x00000000       0x1e src/asf/sam/drivers/pwm/pwm.o
 .text.pwm_get_interrupt_status
                0x00000000        0x4 src/asf/sam/drivers/pwm/pwm.o
 .text.pwm_get_interrupt_mask
                0x00000000        0x4 src/asf/sam/drivers/pwm/pwm.o
 .text.pwm_stepper_motor_init
                0x00000000       0x20 src/asf/sam/drivers/pwm/pwm.o
 .text          0x00000000        0x0 src/asf/sam/drivers/twi/twi.o
 .data          0x00000000        0x0 src/asf/sam/drivers/twi/twi.o
 .bss           0x00000000        0x0 src/asf/sam/drivers/twi/twi.o
 .text.twi_enable_master_mode
                0x00000000        0xe src/asf/sam/drivers/twi/twi.o
 .text.twi_disable_master_mode
                0x00000000        0x6 src/asf/sam/drivers/twi/twi.o
 .text.twi_set_speed
                0x00000000       0x3c src/asf/sam/drivers/twi/twi.o
 .text.twi_master_init
                0x00000000       0x40 src/asf/sam/drivers/twi/twi.o
 .text.twi_master_read
                0x00000000       0x7c src/asf/sam/drivers/twi/twi.o
 .text.twi_master_write
                0x00000000       0x72 src/asf/sam/drivers/twi/twi.o
 .text.twi_probe
                0x00000000       0x28 src/asf/sam/drivers/twi/twi.o
 .text.twi_enable_interrupt
                0x00000000        0x4 src/asf/sam/drivers/twi/twi.o
 .text.twi_disable_interrupt
                0x00000000        0x6 src/asf/sam/drivers/twi/twi.o
 .text.twi_get_interrupt_status
                0x00000000        0x4 src/asf/sam/drivers/twi/twi.o
 .text.twi_get_interrupt_mask
                0x00000000        0x4 src/asf/sam/drivers/twi/twi.o
 .text.twi_read_byte
                0x00000000        0x6 src/asf/sam/drivers/twi/twi.o
 .text.twi_write_byte
                0x00000000        0x4 src/asf/sam/drivers/twi/twi.o
 .text.twi_enable_slave_mode
                0x00000000        0xe src/asf/sam/drivers/twi/twi.o
 .text.twi_disable_slave_mode
                0x00000000        0x6 src/asf/sam/drivers/twi/twi.o
 .text.twi_slave_init
                0x00000000       0x24 src/asf/sam/drivers/twi/twi.o
 .text.twi_slave_read
                0x00000000       0x2e src/asf/sam/drivers/twi/twi.o
 .text.twi_slave_write
                0x00000000       0x2e src/asf/sam/drivers/twi/twi.o
 .text.twi_reset
                0x00000000        0x8 src/asf/sam/drivers/twi/twi.o
 .text.twi_get_pdc_base
                0x00000000       0x28 src/asf/sam/drivers/twi/twi.o
 .comment       0x00000000       0x34 src/asf/sam/drivers/twi/twi.o
 .ARM.attributes
                0x00000000       0x33 src/asf/sam/drivers/twi/twi.o
 .text          0x00000000        0x0 src/asf/sam/utils/cmsis/sam3s8/source/templates/exceptions.o
 .data          0x00000000        0x0 src/asf/sam/utils/cmsis/sam3s8/source/templates/exceptions.o
 .bss           0x00000000        0x0 src/asf/sam/utils/cmsis/sam3s8/source/templates/exceptions.o
 .text          0x00000000        0x0 src/asf/sam/utils/cmsis/sam3s8/source/templates/gcc/startup_sam3sd8.o
 .data          0x00000000        0x0 src/asf/sam/utils/cmsis/sam3s8/source/templates/gcc/startup_sam3sd8.o
 .bss           0x00000000        0x0 src/asf/sam/utils/cmsis/sam3s8/source/templates/gcc/startup_sam3sd8.o
 .text          0x00000000        0x0 src/asf/sam/utils/cmsis/sam3s8/source/templates/system_sam3sd8.o
 .data          0x00000000        0x0 src/asf/sam/utils/cmsis/sam3s8/source/templates/system_sam3sd8.o
 .bss           0x00000000        0x0 src/asf/sam/utils/cmsis/sam3s8/source/templates/system_sam3sd8.o
 .text.SystemInit
                0x00000000       0x90 src/asf/sam/utils/cmsis/sam3s8/source/templates/system_sam3sd8.o
 .text          0x00000000        0x0 src/I2CdevWrapper.o
 .data          0x00000000        0x0 src/I2CdevWrapper.o
 .bss           0x00000000        0x0 src/I2CdevWrapper.o
 .text.I2Cdev_readBytes
                0x00000000       0x80 src/I2CdevWrapper.o
 .text.I2Cdev_readByte
                0x00000000       0x10 src/I2CdevWrapper.o
 .text.I2Cdev_readBit
                0x00000000       0x24 src/I2CdevWrapper.o
 .text.I2Cdev_readBits
                0x00000000       0x34 src/I2CdevWrapper.o
 .text.I2Cdev_writeBytes
                0x00000000       0x80 src/I2CdevWrapper.o
 .text.I2Cdev_writeByte
                0x00000000       0x14 src/I2CdevWrapper.o
 .text.I2Cdev_writeBits
                0x00000000       0x50 src/I2CdevWrapper.o
 .text.I2Cdev_writeBit
                0x00000000       0x48 src/I2CdevWrapper.o
 .comment       0x00000000       0x34 src/I2CdevWrapper.o
 .ARM.attributes
                0x00000000       0x33 src/I2CdevWrapper.o
 .text          0x00000000        0x0 src/MPU9150.o
 .data          0x00000000        0x0 src/MPU9150.o
 .bss           0x00000000        0x0 src/MPU9150.o
 .text.MPU9150_getAuxVDDIOLevel
                0x00000000       0x24 src/MPU9150.o
 .text.MPU9150_setAuxVDDIOLevel
                0x00000000       0x1c src/MPU9150.o
 .text.MPU9150_getRate
                0x00000000       0x20 src/MPU9150.o
 .text.MPU9150_setRate
                0x00000000       0x18 src/MPU9150.o
 .text.MPU9150_getExternalFrameSync
                0x00000000       0x24 src/MPU9150.o
 .text.MPU9150_setExternalFrameSync
                0x00000000       0x20 src/MPU9150.o
 .text.MPU9150_getDLPFMode
                0x00000000       0x24 src/MPU9150.o
 .text.MPU9150_setDLPFMode
                0x00000000       0x20 src/MPU9150.o
 .text.MPU9150_getFullScaleGyroRange
                0x00000000       0x24 src/MPU9150.o
 .text.MPU9150_setFullScaleGyroRange
                0x00000000       0x20 src/MPU9150.o
 .text.MPU9150_getAccelXSelfTest
                0x00000000       0x28 src/MPU9150.o
 .text.MPU9150_setAccelXSelfTest
                0x00000000       0x1c src/MPU9150.o
 .text.MPU9150_getAccelYSelfTest
                0x00000000       0x28 src/MPU9150.o
 .text.MPU9150_setAccelYSelfTest
                0x00000000       0x1c src/MPU9150.o
 .text.MPU9150_getAccelZSelfTest
                0x00000000       0x28 src/MPU9150.o
 .text.MPU9150_setAccelZSelfTest
                0x00000000       0x1c src/MPU9150.o
 .text.MPU9150_getFullScaleAccelRange
                0x00000000       0x24 src/MPU9150.o
 .text.MPU9150_setFullScaleAccelRange
                0x00000000       0x20 src/MPU9150.o
 .text.MPU9150_getDHPFMode
                0x00000000       0x24 src/MPU9150.o
 .text.MPU9150_setDHPFMode
                0x00000000       0x20 src/MPU9150.o
 .text.MPU9150_getFreefallDetectionThreshold
                0x00000000       0x20 src/MPU9150.o
 .text.MPU9150_setFreefallDetectionThreshold
                0x00000000       0x18 src/MPU9150.o
 .text.MPU9150_getFreefallDetectionDuration
                0x00000000       0x20 src/MPU9150.o
 .text.MPU9150_setFreefallDetectionDuration
                0x00000000       0x18 src/MPU9150.o
 .text.MPU9150_getMotionDetectionThreshold
                0x00000000       0x20 src/MPU9150.o
 .text.MPU9150_setMotionDetectionThreshold
                0x00000000       0x18 src/MPU9150.o
 .text.MPU9150_getMotionDetectionDuration
                0x00000000       0x20 src/MPU9150.o
 .text.MPU9150_setMotionDetectionDuration
                0x00000000       0x18 src/MPU9150.o
 .text.MPU9150_getZeroMotionDetectionThreshold
                0x00000000       0x20 src/MPU9150.o
 .text.MPU9150_setZeroMotionDetectionThreshold
                0x00000000       0x18 src/MPU9150.o
 .text.MPU9150_getZeroMotionDetectionDuration
                0x00000000       0x20 src/MPU9150.o
 .text.MPU9150_setZeroMotionDetectionDuration
                0x00000000       0x18 src/MPU9150.o
 .text.MPU9150_getTempFIFOEnabled
                0x00000000       0x28 src/MPU9150.o
 .text.MPU9150_setTempFIFOEnabled
                0x00000000       0x1c src/MPU9150.o
 .text.MPU9150_getXGyroFIFOEnabled
                0x00000000       0x28 src/MPU9150.o
 .text.MPU9150_setXGyroFIFOEnabled
                0x00000000       0x1c src/MPU9150.o
 .text.MPU9150_getYGyroFIFOEnabled
                0x00000000       0x28 src/MPU9150.o
 .text.MPU9150_setYGyroFIFOEnabled
                0x00000000       0x1c src/MPU9150.o
 .text.MPU9150_getZGyroFIFOEnabled
                0x00000000       0x28 src/MPU9150.o
 .text.MPU9150_setZGyroFIFOEnabled
                0x00000000       0x1c src/MPU9150.o
 .text.MPU9150_getAccelFIFOEnabled
                0x00000000       0x28 src/MPU9150.o
 .text.MPU9150_setAccelFIFOEnabled
                0x00000000       0x1c src/MPU9150.o
 .text.MPU9150_getSlave2FIFOEnabled
                0x00000000       0x28 src/MPU9150.o
 .text.MPU9150_setSlave2FIFOEnabled
                0x00000000       0x1c src/MPU9150.o
 .text.MPU9150_getSlave1FIFOEnabled
                0x00000000       0x28 src/MPU9150.o
 .text.MPU9150_setSlave1FIFOEnabled
                0x00000000       0x1c src/MPU9150.o
 .text.MPU9150_getSlave0FIFOEnabled
                0x00000000       0x28 src/MPU9150.o
 .text.MPU9150_setSlave0FIFOEnabled
                0x00000000       0x1c src/MPU9150.o
 .text.MPU9150_getMultiMasterEnabled
                0x00000000       0x28 src/MPU9150.o
 .text.MPU9150_setMultiMasterEnabled
                0x00000000       0x1c src/MPU9150.o
 .text.MPU9150_getWaitForExternalSensorEnabled
                0x00000000       0x28 src/MPU9150.o
 .text.MPU9150_setWaitForExternalSensorEnabled
                0x00000000       0x1c src/MPU9150.o
 .text.MPU9150_getSlave3FIFOEnabled
                0x00000000       0x28 src/MPU9150.o
 .text.MPU9150_setSlave3FIFOEnabled
                0x00000000       0x1c src/MPU9150.o
 .text.MPU9150_getSlaveReadWriteTransitionEnabled
                0x00000000       0x28 src/MPU9150.o
 .text.MPU9150_setSlaveReadWriteTransitionEnabled
                0x00000000       0x1c src/MPU9150.o
 .text.MPU9150_getMasterClockSpeed
                0x00000000       0x24 src/MPU9150.o
 .text.MPU9150_setMasterClockSpeed
                0x00000000       0x20 src/MPU9150.o
 .text.MPU9150_getSlaveAddress
                0x00000000       0x30 src/MPU9150.o
 .text.MPU9150_setSlaveAddress
                0x00000000       0x24 src/MPU9150.o
 .text.MPU9150_getSlaveRegister
                0x00000000       0x30 src/MPU9150.o
 .text.MPU9150_setSlaveRegister
                0x00000000       0x24 src/MPU9150.o
 .text.MPU9150_getSlaveEnabled
                0x00000000       0x38 src/MPU9150.o
 .text.MPU9150_setSlaveEnabled
                0x00000000       0x28 src/MPU9150.o
 .text.MPU9150_getSlaveWordByteSwap
                0x00000000       0x38 src/MPU9150.o
 .text.MPU9150_setSlaveWordByteSwap
                0x00000000       0x28 src/MPU9150.o
 .text.MPU9150_getSlaveWriteMode
                0x00000000       0x38 src/MPU9150.o
 .text.MPU9150_setSlaveWriteMode
                0x00000000       0x28 src/MPU9150.o
 .text.MPU9150_getSlaveWordGroupOffset
                0x00000000       0x38 src/MPU9150.o
 .text.MPU9150_setSlaveWordGroupOffset
                0x00000000       0x28 src/MPU9150.o
 .text.MPU9150_getSlaveDataLength
                0x00000000       0x34 src/MPU9150.o
 .text.MPU9150_setSlaveDataLength
                0x00000000       0x28 src/MPU9150.o
 .text.MPU9150_getSlave4Address
                0x00000000       0x20 src/MPU9150.o
 .text.MPU9150_setSlave4Address
                0x00000000       0x18 src/MPU9150.o
 .text.MPU9150_getSlave4Register
                0x00000000       0x20 src/MPU9150.o
 .text.MPU9150_setSlave4Register
                0x00000000       0x18 src/MPU9150.o
 .text.MPU9150_setSlave4OutputByte
                0x00000000       0x18 src/MPU9150.o
 .text.MPU9150_getSlave4Enabled
                0x00000000       0x28 src/MPU9150.o
 .text.MPU9150_setSlave4Enabled
                0x00000000       0x1c src/MPU9150.o
 .text.MPU9150_getSlave4InterruptEnabled
                0x00000000       0x28 src/MPU9150.o
 .text.MPU9150_setSlave4InterruptEnabled
                0x00000000       0x1c src/MPU9150.o
 .text.MPU9150_getSlave4WriteMode
                0x00000000       0x28 src/MPU9150.o
 .text.MPU9150_setSlave4WriteMode
                0x00000000       0x1c src/MPU9150.o
 .text.MPU9150_getSlave4MasterDelay
                0x00000000       0x24 src/MPU9150.o
 .text.MPU9150_setSlave4MasterDelay
                0x00000000       0x20 src/MPU9150.o
 .text.MPU9150_getSlate4InputByte
                0x00000000       0x20 src/MPU9150.o
 .text.MPU9150_getPassthroughStatus
                0x00000000       0x28 src/MPU9150.o
 .text.MPU9150_getSlave4IsDone
                0x00000000       0x28 src/MPU9150.o
 .text.MPU9150_getLostArbitration
                0x00000000       0x28 src/MPU9150.o
 .text.MPU9150_getSlave4Nack
                0x00000000       0x28 src/MPU9150.o
 .text.MPU9150_getSlave3Nack
                0x00000000       0x28 src/MPU9150.o
 .text.MPU9150_getSlave2Nack
                0x00000000       0x28 src/MPU9150.o
 .text.MPU9150_getSlave1Nack
                0x00000000       0x28 src/MPU9150.o
 .text.MPU9150_getSlave0Nack
                0x00000000       0x28 src/MPU9150.o
 .text.MPU9150_getInterruptMode
                0x00000000       0x28 src/MPU9150.o
 .text.MPU9150_setInterruptMode
                0x00000000       0x1c src/MPU9150.o
 .text.MPU9150_getInterruptDrive
                0x00000000       0x28 src/MPU9150.o
 .text.MPU9150_setInterruptDrive
                0x00000000       0x1c src/MPU9150.o
 .text.MPU9150_getInterruptLatch
                0x00000000       0x28 src/MPU9150.o
 .text.MPU9150_setInterruptLatch
                0x00000000       0x1c src/MPU9150.o
 .text.MPU9150_getInterruptLatchClear
                0x00000000       0x28 src/MPU9150.o
 .text.MPU9150_setInterruptLatchClear
                0x00000000       0x1c src/MPU9150.o
 .text.MPU9150_getFSyncInterruptLevel
                0x00000000       0x28 src/MPU9150.o
 .text.MPU9150_setFSyncInterruptLevel
                0x00000000       0x1c src/MPU9150.o
 .text.MPU9150_getFSyncInterruptEnabled
                0x00000000       0x28 src/MPU9150.o
 .text.MPU9150_setFSyncInterruptEnabled
                0x00000000       0x1c src/MPU9150.o
 .text.MPU9150_getI2CBypassEnabled
                0x00000000       0x28 src/MPU9150.o
 .text.MPU9150_setI2CBypassEnabled
                0x00000000       0x1c src/MPU9150.o
 .text.MPU9150_getClockOutputEnabled
                0x00000000       0x28 src/MPU9150.o
 .text.MPU9150_setClockOutputEnabled
                0x00000000       0x1c src/MPU9150.o
 .text.MPU9150_getIntEnabled
                0x00000000       0x20 src/MPU9150.o
 .text.MPU9150_setIntEnabled
                0x00000000       0x18 src/MPU9150.o
 .text.MPU9150_getIntFreefallEnabled
                0x00000000       0x28 src/MPU9150.o
 .text.MPU9150_setIntFreefallEnabled
                0x00000000       0x1c src/MPU9150.o
 .text.MPU9150_getIntMotionEnabled
                0x00000000       0x28 src/MPU9150.o
 .text.MPU9150_setIntMotionEnabled
                0x00000000       0x1c src/MPU9150.o
 .text.MPU9150_getIntZeroMotionEnabled
                0x00000000       0x28 src/MPU9150.o
 .text.MPU9150_setIntZeroMotionEnabled
                0x00000000       0x1c src/MPU9150.o
 .text.MPU9150_getIntFIFOMPU9150_bufferOverflowEnabled
                0x00000000       0x28 src/MPU9150.o
 .text.MPU9150_setIntFIFOMPU9150_bufferOverflowEnabled
                0x00000000       0x1c src/MPU9150.o
 .text.MPU9150_getIntI2CMasterEnabled
                0x00000000       0x28 src/MPU9150.o
 .text.MPU9150_setIntI2CMasterEnabled
                0x00000000       0x1c src/MPU9150.o
 .text.MPU9150_getIntDataReadyEnabled
                0x00000000       0x28 src/MPU9150.o
 .text.MPU9150_setIntDataReadyEnabled
                0x00000000       0x1c src/MPU9150.o
 .text.MPU9150_getIntStatus
                0x00000000       0x20 src/MPU9150.o
 .text.MPU9150_getIntFreefallStatus
                0x00000000       0x28 src/MPU9150.o
 .text.MPU9150_getIntMotionStatus
                0x00000000       0x28 src/MPU9150.o
 .text.MPU9150_getIntZeroMotionStatus
                0x00000000       0x28 src/MPU9150.o
 .text.MPU9150_getIntFIFOMPU9150_bufferOverflowStatus
                0x00000000       0x28 src/MPU9150.o
 .text.MPU9150_getIntI2CMasterStatus
                0x00000000       0x28 src/MPU9150.o
 .text.MPU9150_getIntDataReadyStatus
                0x00000000       0x28 src/MPU9150.o
 .text.MPU9150_getMotion6
                0x00000000       0x70 src/MPU9150.o
 .text.MPU9150_getMotion9
                0x00000000       0x7c src/MPU9150.o
 .text.MPU9150_getAcceleration
                0x00000000       0x48 src/MPU9150.o
 .text.MPU9150_getAccelerationX
                0x00000000       0x2c src/MPU9150.o
 .text.MPU9150_getAccelerationY
                0x00000000       0x2c src/MPU9150.o
 .text.MPU9150_getAccelerationZ
                0x00000000       0x2c src/MPU9150.o
 .text.MPU9150_getTemperature
                0x00000000       0x2c src/MPU9150.o
 .text.MPU9150_getRotation
                0x00000000       0x48 src/MPU9150.o
 .text.MPU9150_getRotationX
                0x00000000       0x2c src/MPU9150.o
 .text.MPU9150_getRotationY
                0x00000000       0x2c src/MPU9150.o
 .text.MPU9150_getRotationZ
                0x00000000       0x2c src/MPU9150.o
 .text.MPU9150_getExternalSensorByte
                0x00000000       0x24 src/MPU9150.o
 .text.MPU9150_getExternalSensorWord
                0x00000000       0x2c src/MPU9150.o
 .text.MPU9150_getExternalSensorDWord
                0x00000000       0x38 src/MPU9150.o
 .text.MPU9150_getXNegMotionDetected
                0x00000000       0x28 src/MPU9150.o
 .text.MPU9150_getXPosMotionDetected
                0x00000000       0x28 src/MPU9150.o
 .text.MPU9150_getYNegMotionDetected
                0x00000000       0x28 src/MPU9150.o
 .text.MPU9150_getYPosMotionDetected
                0x00000000       0x28 src/MPU9150.o
 .text.MPU9150_getZNegMotionDetected
                0x00000000       0x28 src/MPU9150.o
 .text.MPU9150_getZPosMotionDetected
                0x00000000       0x28 src/MPU9150.o
 .text.MPU9150_getZeroMotionDetected
                0x00000000       0x28 src/MPU9150.o
 .text.MPU9150_setSlaveOutputByte
                0x00000000       0x20 src/MPU9150.o
 .text.MPU9150_getExternalShadowDelayEnabled
                0x00000000       0x28 src/MPU9150.o
 .text.MPU9150_setExternalShadowDelayEnabled
                0x00000000       0x1c src/MPU9150.o
 .text.MPU9150_getSlaveDelayEnabled
                0x00000000       0x30 src/MPU9150.o
 .text.MPU9150_setSlaveDelayEnabled
                0x00000000       0x1c src/MPU9150.o
 .text.MPU9150_resetGyroscopePath
                0x00000000       0x1c src/MPU9150.o
 .text.MPU9150_resetAccelerometerPath
                0x00000000       0x1c src/MPU9150.o
 .text.MPU9150_resetTemperaturePath
                0x00000000       0x1c src/MPU9150.o
 .text.MPU9150_getAccelerometerPowerOnDelay
                0x00000000       0x24 src/MPU9150.o
 .text.MPU9150_setAccelerometerPowerOnDelay
                0x00000000       0x20 src/MPU9150.o
 .text.MPU9150_getFreefallDetectionCounterDecrement
                0x00000000       0x24 src/MPU9150.o
 .text.MPU9150_setFreefallDetectionCounterDecrement
                0x00000000       0x20 src/MPU9150.o
 .text.MPU9150_getMotionDetectionCounterDecrement
                0x00000000       0x24 src/MPU9150.o
 .text.MPU9150_setMotionDetectionCounterDecrement
                0x00000000       0x20 src/MPU9150.o
 .text.MPU9150_getFIFOEnabled
                0x00000000       0x28 src/MPU9150.o
 .text.MPU9150_setFIFOEnabled
                0x00000000       0x1c src/MPU9150.o
 .text.MPU9150_getI2CMasterModeEnabled
                0x00000000       0x28 src/MPU9150.o
 .text.MPU9150_setI2CMasterModeEnabled
                0x00000000       0x1c src/MPU9150.o
 .text.MPU9150_switchSPIEnabled
                0x00000000       0x1c src/MPU9150.o
 .text.MPU9150_resetFIFO
                0x00000000       0x1c src/MPU9150.o
 .text.MPU9150_resetI2CMaster
                0x00000000       0x1c src/MPU9150.o
 .text.MPU9150_resetSensors
                0x00000000       0x1c src/MPU9150.o
 .text.MPU9150_reset
                0x00000000       0x1c src/MPU9150.o
 .text.MPU9150_getSleepEnabled
                0x00000000       0x28 src/MPU9150.o
 .text.MPU9150_setSleepEnabled
                0x00000000       0x1c src/MPU9150.o
 .text.MPU9150_getWakeCycleEnabled
                0x00000000       0x28 src/MPU9150.o
 .text.MPU9150_setWakeCycleEnabled
                0x00000000       0x1c src/MPU9150.o
 .text.MPU9150_getTempSensorEnabled
                0x00000000       0x2c src/MPU9150.o
 .text.MPU9150_setTempSensorEnabled
                0x00000000       0x1c src/MPU9150.o
 .text.MPU9150_getClockSource
                0x00000000       0x24 src/MPU9150.o
 .text.MPU9150_setClockSource
                0x00000000       0x20 src/MPU9150.o
 .text.MPU9150_initialize
                0x00000000       0x38 src/MPU9150.o
 .text.MPU9150_getWakeFrequency
                0x00000000       0x24 src/MPU9150.o
 .text.MPU9150_setWakeFrequency
                0x00000000       0x20 src/MPU9150.o
 .text.MPU9150_getStandbyXAccelEnabled
                0x00000000       0x28 src/MPU9150.o
 .text.MPU9150_setStandbyXAccelEnabled
                0x00000000       0x1c src/MPU9150.o
 .text.MPU9150_getStandbyYAccelEnabled
                0x00000000       0x28 src/MPU9150.o
 .text.MPU9150_setStandbyYAccelEnabled
                0x00000000       0x1c src/MPU9150.o
 .text.MPU9150_getStandbyZAccelEnabled
                0x00000000       0x28 src/MPU9150.o
 .text.MPU9150_setStandbyZAccelEnabled
                0x00000000       0x1c src/MPU9150.o
 .text.MPU9150_getStandbyXGyroEnabled
                0x00000000       0x28 src/MPU9150.o
 .text.MPU9150_setStandbyXGyroEnabled
                0x00000000       0x1c src/MPU9150.o
 .text.MPU9150_getStandbyYGyroEnabled
                0x00000000       0x28 src/MPU9150.o
 .text.MPU9150_setStandbyYGyroEnabled
                0x00000000       0x1c src/MPU9150.o
 .text.MPU9150_getStandbyZGyroEnabled
                0x00000000       0x28 src/MPU9150.o
 .text.MPU9150_setStandbyZGyroEnabled
                0x00000000       0x1c src/MPU9150.o
 .text.MPU9150_getFIFOCount
                0x00000000       0x28 src/MPU9150.o
 .text.MPU9150_getFIFOByte
                0x00000000       0x20 src/MPU9150.o
 .text.MPU9150_getFIFOBytes
                0x00000000       0x1c src/MPU9150.o
 .text.MPU9150_setFIFOByte
                0x00000000       0x18 src/MPU9150.o
 .text.MPU9150_getDeviceID
                0x00000000       0x24 src/MPU9150.o
 .text.MPU9150_testConnection
                0x00000000       0x14 src/MPU9150.o
 .text.MPU9150_setDeviceID
                0x00000000       0x20 src/MPU9150.o
 .text.MPU9150_getOTPBankValid
                0x00000000       0x24 src/MPU9150.o
 .text.MPU9150_setOTPBankValid
                0x00000000       0x1c src/MPU9150.o
 .text.MPU9150_getXGyroOffset
                0x00000000       0x28 src/MPU9150.o
 .text.MPU9150_setXGyroOffset
                0x00000000       0x20 src/MPU9150.o
 .text.MPU9150_getYGyroOffset
                0x00000000       0x28 src/MPU9150.o
 .text.MPU9150_setYGyroOffset
                0x00000000       0x20 src/MPU9150.o
 .text.MPU9150_getZGyroOffset
                0x00000000       0x28 src/MPU9150.o
 .text.MPU9150_setZGyroOffset
                0x00000000       0x20 src/MPU9150.o
 .text.MPU9150_getXFineGain
                0x00000000       0x24 src/MPU9150.o
 .text.MPU9150_setXFineGain
                0x00000000       0x18 src/MPU9150.o
 .text.MPU9150_getYFineGain
                0x00000000       0x24 src/MPU9150.o
 .text.MPU9150_setYFineGain
                0x00000000       0x18 src/MPU9150.o
 .text.MPU9150_getZFineGain
                0x00000000       0x24 src/MPU9150.o
 .text.MPU9150_setZFineGain
                0x00000000       0x18 src/MPU9150.o
 .text.MPU9150_getXAccelOffset
                0x00000000       0x2c src/MPU9150.o
 .text.MPU9150_setXAccelOffset
                0x00000000       0x18 src/MPU9150.o
 .text.MPU9150_getYAccelOffset
                0x00000000       0x2c src/MPU9150.o
 .text.MPU9150_setYAccelOffset
                0x00000000       0x18 src/MPU9150.o
 .text.MPU9150_getZAccelOffset
                0x00000000       0x2c src/MPU9150.o
 .text.MPU9150_setZAccelOffset
                0x00000000       0x18 src/MPU9150.o
 .text.MPU9150_getXGyroOffsetUser
                0x00000000       0x2c src/MPU9150.o
 .text.MPU9150_setXGyroOffsetUser
                0x00000000       0x18 src/MPU9150.o
 .text.MPU9150_getYGyroOffsetUser
                0x00000000       0x2c src/MPU9150.o
 .text.MPU9150_setYGyroOffsetUser
                0x00000000       0x18 src/MPU9150.o
 .text.MPU9150_getZGyroOffsetUser
                0x00000000       0x2c src/MPU9150.o
 .text.MPU9150_setZGyroOffsetUser
                0x00000000       0x18 src/MPU9150.o
 .text.MPU9150_getIntPLLReadyEnabled
                0x00000000       0x28 src/MPU9150.o
 .text.MPU9150_setIntPLLReadyEnabled
                0x00000000       0x1c src/MPU9150.o
 .text.MPU9150_getIntDMPEnabled
                0x00000000       0x28 src/MPU9150.o
 .text.MPU9150_setIntDMPEnabled
                0x00000000       0x1c src/MPU9150.o
 .text.MPU9150_getDMPInt5Status
                0x00000000       0x28 src/MPU9150.o
 .text.MPU9150_getDMPInt4Status
                0x00000000       0x28 src/MPU9150.o
 .text.MPU9150_getDMPInt3Status
                0x00000000       0x28 src/MPU9150.o
 .text.MPU9150_getDMPInt2Status
                0x00000000       0x28 src/MPU9150.o
 .text.MPU9150_getDMPInt1Status
                0x00000000       0x28 src/MPU9150.o
 .text.MPU9150_getDMPInt0Status
                0x00000000       0x28 src/MPU9150.o
 .text.MPU9150_getIntPLLReadyStatus
                0x00000000       0x28 src/MPU9150.o
 .text.MPU9150_getIntDMPStatus
                0x00000000       0x28 src/MPU9150.o
 .text.MPU9150_getDMPEnabled
                0x00000000       0x28 src/MPU9150.o
 .text.MPU9150_setDMPEnabled
                0x00000000       0x1c src/MPU9150.o
 .text.MPU9150_resetDMP
                0x00000000       0x1c src/MPU9150.o
 .text.MPU9150_setMemoryBank
                0x00000000       0x28 src/MPU9150.o
 .text.MPU9150_setMemoryStartAddress
                0x00000000       0x18 src/MPU9150.o
 .text.MPU9150_readMemoryByte
                0x00000000       0x20 src/MPU9150.o
 .text.MPU9150_writeMemoryByte
                0x00000000       0x18 src/MPU9150.o
 .text.MPU9150_getDMPConfig1
                0x00000000       0x20 src/MPU9150.o
 .text.MPU9150_setDMPConfig1
                0x00000000       0x18 src/MPU9150.o
 .text.MPU9150_getDMPConfig2
                0x00000000       0x20 src/MPU9150.o
 .text.MPU9150_setDMPConfig2
                0x00000000       0x18 src/MPU9150.o
 .comment       0x00000000       0x34 src/MPU9150.o
 .ARM.attributes
                0x00000000       0x33 src/MPU9150.o
 COMMON         0x00000000        0xf src/MPU9150.o
 .text          0x00000000        0x0 src/pwmb.o
 .data          0x00000000        0x0 src/pwmb.o
 .bss           0x00000000        0x0 src/pwmb.o
 .text          0x00000000        0x0 src/rtc.o
 .data          0x00000000        0x0 src/rtc.o
 .bss           0x00000000        0x0 src/rtc.o
 .text          0x00000000        0x0 src/zeppelin_fc.o
 .data          0x00000000        0x0 src/zeppelin_fc.o
 .bss           0x00000000        0x0 src/zeppelin_fc.o
 .text.die      0x00000000       0x14 src/zeppelin_fc.o
 .text.ZP_Scan_Scripts
                0x00000000       0x18 src/zeppelin_fc.o
 .data.test_file_name
                0x00000000        0xc src/zeppelin_fc.o
 .bss.tick      0x00000000        0x2 src/zeppelin_fc.o
 .text          0x00000000        0x0 src/asf/common/components/memory/sd_mmc/sd_mmc.o
 .data          0x00000000        0x0 src/asf/common/components/memory/sd_mmc/sd_mmc.o
 .bss           0x00000000        0x0 src/asf/common/components/memory/sd_mmc/sd_mmc.o
 .text.sd_mmc_nb_slot
                0x00000000        0x4 src/asf/common/components/memory/sd_mmc/sd_mmc.o
 .text.sd_mmc_get_version
                0x00000000       0x24 src/asf/common/components/memory/sd_mmc/sd_mmc.o
 .text          0x00000000        0x0 src/asf/common/services/clock/sam3s/sysclk.o
 .data          0x00000000        0x0 src/asf/common/services/clock/sam3s/sysclk.o
 .bss           0x00000000        0x0 src/asf/common/services/clock/sam3s/sysclk.o
 .text.sysclk_set_prescalers
                0x00000000       0x14 src/asf/common/services/clock/sam3s/sysclk.o
 .text.sysclk_set_source
                0x00000000       0x34 src/asf/common/services/clock/sam3s/sysclk.o
 .text.sysclk_disable_usb
                0x00000000        0xc src/asf/common/services/clock/sam3s/sysclk.o
 .text          0x00000000        0x0 src/asf/common/services/delay/sam/cycle_counter.o
 .data          0x00000000        0x0 src/asf/common/services/delay/sam/cycle_counter.o
 .bss           0x00000000        0x0 src/asf/common/services/delay/sam/cycle_counter.o
 .text          0x00000000        0x0 src/asf/common/services/sleepmgr/sam/sleepmgr.o
 .data          0x00000000        0x0 src/asf/common/services/sleepmgr/sam/sleepmgr.o
 .bss           0x00000000        0x0 src/asf/common/services/sleepmgr/sam/sleepmgr.o
 .text          0x00000000        0x0 src/asf/common/services/storage/ctrl_access/ctrl_access.o
 .data          0x00000000        0x0 src/asf/common/services/storage/ctrl_access/ctrl_access.o
 .bss           0x00000000        0x0 src/asf/common/services/storage/ctrl_access/ctrl_access.o
 .text.get_nb_lun
                0x00000000        0x4 src/asf/common/services/storage/ctrl_access/ctrl_access.o
 .text.get_cur_lun
                0x00000000        0x4 src/asf/common/services/storage/ctrl_access/ctrl_access.o
 .text.mem_removal
                0x00000000       0x14 src/asf/common/services/storage/ctrl_access/ctrl_access.o
 .text.mem_name
                0x00000000       0x10 src/asf/common/services/storage/ctrl_access/ctrl_access.o
 .rodata.str1.1
                0x00000000       0x15 src/asf/common/services/storage/ctrl_access/ctrl_access.o
 .text          0x00000000        0x0 src/asf/common/services/usb/class/cdc/device/udi_cdc.o
 .data          0x00000000        0x0 src/asf/common/services/usb/class/cdc/device/udi_cdc.o
 .bss           0x00000000        0x0 src/asf/common/services/usb/class/cdc/device/udi_cdc.o
 .text.udi_cdc_ctrl_state_notify.isra.2
                0x00000000       0x3c src/asf/common/services/usb/class/cdc/device/udi_cdc.o
 .text.udi_cdc_serial_state_msg_sent
                0x00000000       0x38 src/asf/common/services/usb/class/cdc/device/udi_cdc.o
 .text.udi_cdc_ctrl_state_change.isra.4
                0x00000000       0x38 src/asf/common/services/usb/class/cdc/device/udi_cdc.o
 .text.udi_cdc_ctrl_signal_dcd
                0x00000000       0x10 src/asf/common/services/usb/class/cdc/device/udi_cdc.o
 .text.udi_cdc_ctrl_signal_dsr
                0x00000000       0x10 src/asf/common/services/usb/class/cdc/device/udi_cdc.o
 .text.udi_cdc_signal_framing_error
                0x00000000       0x10 src/asf/common/services/usb/class/cdc/device/udi_cdc.o
 .text.udi_cdc_signal_parity_error
                0x00000000       0x10 src/asf/common/services/usb/class/cdc/device/udi_cdc.o
 .text.udi_cdc_signal_overrun
                0x00000000       0x10 src/asf/common/services/usb/class/cdc/device/udi_cdc.o
 .text.udi_cdc_multi_ctrl_signal_dcd
                0x00000000       0x10 src/asf/common/services/usb/class/cdc/device/udi_cdc.o
 .text.udi_cdc_multi_ctrl_signal_dsr
                0x00000000       0x10 src/asf/common/services/usb/class/cdc/device/udi_cdc.o
 .text.udi_cdc_multi_signal_framing_error
                0x00000000       0x10 src/asf/common/services/usb/class/cdc/device/udi_cdc.o
 .text.udi_cdc_multi_signal_parity_error
                0x00000000       0x10 src/asf/common/services/usb/class/cdc/device/udi_cdc.o
 .text.udi_cdc_multi_signal_overrun
                0x00000000       0x10 src/asf/common/services/usb/class/cdc/device/udi_cdc.o
 .text.udi_cdc_is_rx_ready
                0x00000000       0x10 src/asf/common/services/usb/class/cdc/device/udi_cdc.o
 .text.udi_cdc_multi_read_buf
                0x00000000       0x94 src/asf/common/services/usb/class/cdc/device/udi_cdc.o
 .text.udi_cdc_read_buf
                0x00000000       0x14 src/asf/common/services/usb/class/cdc/device/udi_cdc.o
 .text.udi_cdc_is_tx_ready
                0x00000000       0x10 src/asf/common/services/usb/class/cdc/device/udi_cdc.o
 .text.udi_cdc_multi_write_buf
                0x00000000       0x94 src/asf/common/services/usb/class/cdc/device/udi_cdc.o
 .text.udi_cdc_write_buf
                0x00000000       0x14 src/asf/common/services/usb/class/cdc/device/udi_cdc.o
 .bss.udi_cdc_serial_state_msg_ongoing
                0x00000000        0x1 src/asf/common/services/usb/class/cdc/device/udi_cdc.o
 .text          0x00000000        0x0 src/asf/common/services/usb/class/cdc/device/udi_cdc_desc.o
 .data          0x00000000        0x0 src/asf/common/services/usb/class/cdc/device/udi_cdc_desc.o
 .bss           0x00000000        0x0 src/asf/common/services/usb/class/cdc/device/udi_cdc_desc.o
 .text          0x00000000        0x0 src/asf/common/services/usb/udc/udc.o
 .data          0x00000000        0x0 src/asf/common/services/usb/udc/udc.o
 .bss           0x00000000        0x0 src/asf/common/services/usb/udc/udc.o
 .text.udc_get_interface_desc
                0x00000000        0xc src/asf/common/services/usb/udc/udc.o
 .text.udc_stop
                0x00000000       0x14 src/asf/common/services/usb/udc/udc.o
 .text          0x00000000        0x0 src/asf/common/utils/interrupt/interrupt_sam_nvic.o
 .data          0x00000000        0x0 src/asf/common/utils/interrupt/interrupt_sam_nvic.o
 .bss           0x00000000        0x0 src/asf/common/utils/interrupt/interrupt_sam_nvic.o
 .text          0x00000000        0x0 src/asf/common/utils/stdio/read.o
 .data          0x00000000        0x0 src/asf/common/utils/stdio/read.o
 .bss           0x00000000        0x0 src/asf/common/utils/stdio/read.o
 .text          0x00000000        0x0 src/asf/common/utils/stdio/stdio_usb/stdio_usb.o
 .data          0x00000000        0x0 src/asf/common/utils/stdio/stdio_usb/stdio_usb.o
 .bss           0x00000000        0x0 src/asf/common/utils/stdio/stdio_usb/stdio_usb.o
 .text.stdio_usb_vbus_event
                0x00000000       0x18 src/asf/common/utils/stdio/stdio_usb/stdio_usb.o
 .text          0x00000000        0x0 src/asf/common/utils/stdio/write.o
 .data          0x00000000        0x0 src/asf/common/utils/stdio/write.o
 .bss           0x00000000        0x0 src/asf/common/utils/stdio/write.o
 .text          0x00000000        0x0 src/asf/sam/boards/sam3s_ek/init.o
 .data          0x00000000        0x0 src/asf/sam/boards/sam3s_ek/init.o
 .bss           0x00000000        0x0 src/asf/sam/boards/sam3s_ek/init.o
 .text          0x00000000        0x0 src/asf/sam/drivers/efc/efc.o
 .data          0x00000000        0x0 src/asf/sam/drivers/efc/efc.o
 .bss           0x00000000        0x0 src/asf/sam/drivers/efc/efc.o
 .text.efc_init
                0x00000000        0xe src/asf/sam/drivers/efc/efc.o
 .text.efc_enable_frdy_interrupt
                0x00000000        0xa src/asf/sam/drivers/efc/efc.o
 .text.efc_disable_frdy_interrupt
                0x00000000        0xa src/asf/sam/drivers/efc/efc.o
 .text.efc_set_flash_access_mode
                0x00000000        0xc src/asf/sam/drivers/efc/efc.o
 .text.efc_get_flash_access_mode
                0x00000000        0x8 src/asf/sam/drivers/efc/efc.o
 .text.efc_set_wait_state
                0x00000000       0x12 src/asf/sam/drivers/efc/efc.o
 .text.efc_get_wait_state
                0x00000000        0x8 src/asf/sam/drivers/efc/efc.o
 .text.efc_perform_command
                0x00000000       0x3c src/asf/sam/drivers/efc/efc.o
 .text.efc_get_status
                0x00000000        0x4 src/asf/sam/drivers/efc/efc.o
 .text.efc_get_result
                0x00000000        0x4 src/asf/sam/drivers/efc/efc.o
 .ramfunc       0x00000000       0x80 src/asf/sam/drivers/efc/efc.o
 .bss.iap_perform_command.6732
                0x00000000        0x4 src/asf/sam/drivers/efc/efc.o
 .comment       0x00000000       0x34 src/asf/sam/drivers/efc/efc.o
 .ARM.attributes
                0x00000000       0x33 src/asf/sam/drivers/efc/efc.o
 .text          0x00000000        0x0 src/asf/sam/drivers/hsmci/hsmci.o
 .data          0x00000000        0x0 src/asf/sam/drivers/hsmci/hsmci.o
 .bss           0x00000000        0x0 src/asf/sam/drivers/hsmci/hsmci.o
 .text.hsmci_adtc_stop
                0x00000000       0x18 src/asf/sam/drivers/hsmci/hsmci.o
 .text.hsmci_write_word
                0x00000000       0x60 src/asf/sam/drivers/hsmci/hsmci.o
 .text          0x00000000        0x0 src/asf/sam/drivers/pdc/pdc.o
 .data          0x00000000        0x0 src/asf/sam/drivers/pdc/pdc.o
 .bss           0x00000000        0x0 src/asf/sam/drivers/pdc/pdc.o
 .text.pdc_tx_init
                0x00000000       0x16 src/asf/sam/drivers/pdc/pdc.o
 .text.pdc_rx_init
                0x00000000       0x16 src/asf/sam/drivers/pdc/pdc.o
 .text.pdc_rx_clear_cnt
                0x00000000        0x8 src/asf/sam/drivers/pdc/pdc.o
 .text.pdc_enable_transfer
                0x00000000        0xa src/asf/sam/drivers/pdc/pdc.o
 .text.pdc_disable_transfer
                0x00000000        0xa src/asf/sam/drivers/pdc/pdc.o
 .text.pdc_read_status
                0x00000000        0x4 src/asf/sam/drivers/pdc/pdc.o
 .text.pdc_read_rx_ptr
                0x00000000        0x4 src/asf/sam/drivers/pdc/pdc.o
 .text.pdc_read_rx_counter
                0x00000000        0x4 src/asf/sam/drivers/pdc/pdc.o
 .text.pdc_read_tx_ptr
                0x00000000        0x4 src/asf/sam/drivers/pdc/pdc.o
 .text.pdc_read_tx_counter
                0x00000000        0x4 src/asf/sam/drivers/pdc/pdc.o
 .text.pdc_read_rx_next_ptr
                0x00000000        0x4 src/asf/sam/drivers/pdc/pdc.o
 .text.pdc_read_rx_next_counter
                0x00000000        0x4 src/asf/sam/drivers/pdc/pdc.o
 .text.pdc_read_tx_next_ptr
                0x00000000        0x4 src/asf/sam/drivers/pdc/pdc.o
 .text.pdc_read_tx_next_counter
                0x00000000        0x4 src/asf/sam/drivers/pdc/pdc.o
 .comment       0x00000000       0x34 src/asf/sam/drivers/pdc/pdc.o
 .ARM.attributes
                0x00000000       0x33 src/asf/sam/drivers/pdc/pdc.o
 .text          0x00000000        0x0 src/asf/sam/drivers/pio/pio.o
 .data          0x00000000        0x0 src/asf/sam/drivers/pio/pio.o
 .bss           0x00000000        0x0 src/asf/sam/drivers/pio/pio.o
 .text.pio_pull_up
                0x00000000        0xa src/asf/sam/drivers/pio/pio.o
 .text.pio_set_debounce_filter
                0x00000000       0x1a src/asf/sam/drivers/pio/pio.o
 .text.pio_set  0x00000000        0x4 src/asf/sam/drivers/pio/pio.o
 .text.pio_clear
                0x00000000        0x4 src/asf/sam/drivers/pio/pio.o
 .text.pio_get  0x00000000       0x1c src/asf/sam/drivers/pio/pio.o
 .text.pio_configure
                0x00000000       0x88 src/asf/sam/drivers/pio/pio.o
 .text.pio_get_output_data_status
                0x00000000        0xc src/asf/sam/drivers/pio/pio.o
 .text.pio_set_multi_driver
                0x00000000        0xa src/asf/sam/drivers/pio/pio.o
 .text.pio_get_multi_driver_status
                0x00000000        0x4 src/asf/sam/drivers/pio/pio.o
 .text.pio_pull_down
                0x00000000        0xe src/asf/sam/drivers/pio/pio.o
 .text.pio_enable_output_write
                0x00000000        0x6 src/asf/sam/drivers/pio/pio.o
 .text.pio_disable_output_write
                0x00000000        0x6 src/asf/sam/drivers/pio/pio.o
 .text.pio_get_output_write_status
                0x00000000        0x6 src/asf/sam/drivers/pio/pio.o
 .text.pio_sync_output_write
                0x00000000        0x4 src/asf/sam/drivers/pio/pio.o
 .text.pio_set_schmitt_trigger
                0x00000000        0x6 src/asf/sam/drivers/pio/pio.o
 .text.pio_get_schmitt_trigger
                0x00000000        0x6 src/asf/sam/drivers/pio/pio.o
 .text.pio_configure_interrupt
                0x00000000       0x28 src/asf/sam/drivers/pio/pio.o
 .text.pio_enable_interrupt
                0x00000000        0x6 src/asf/sam/drivers/pio/pio.o
 .text.pio_disable_interrupt
                0x00000000        0x4 src/asf/sam/drivers/pio/pio.o
 .text.pio_set_additional_interrupt_mode
                0x00000000       0x28 src/asf/sam/drivers/pio/pio.o
 .text.pio_set_writeprotect
                0x00000000       0x10 src/asf/sam/drivers/pio/pio.o
 .text.pio_get_writeprotect_status
                0x00000000        0x6 src/asf/sam/drivers/pio/pio.o
 .text.pio_get_pin_value
                0x00000000       0x1c src/asf/sam/drivers/pio/pio.o
 .text.pio_set_pin_low
                0x00000000       0x1a src/asf/sam/drivers/pio/pio.o
 .text.pio_toggle_pin
                0x00000000       0x22 src/asf/sam/drivers/pio/pio.o
 .text.pio_set_pin_group_high
                0x00000000        0x4 src/asf/sam/drivers/pio/pio.o
 .text.pio_set_pin_group_low
                0x00000000        0x4 src/asf/sam/drivers/pio/pio.o
 .text.pio_toggle_pin_group
                0x00000000        0xc src/asf/sam/drivers/pio/pio.o
 .text.pio_configure_pin_group
                0x00000000       0x88 src/asf/sam/drivers/pio/pio.o
 .text.pio_enable_pin_interrupt
                0x00000000       0x1a src/asf/sam/drivers/pio/pio.o
 .text.pio_disable_pin_interrupt
                0x00000000       0x1a src/asf/sam/drivers/pio/pio.o
 .text.pio_get_pin_group
                0x00000000        0xe src/asf/sam/drivers/pio/pio.o
 .text.pio_get_pin_group_id
                0x00000000        0x6 src/asf/sam/drivers/pio/pio.o
 .text.pio_get_pin_group_mask
                0x00000000        0xc src/asf/sam/drivers/pio/pio.o
 .text.pio_capture_set_mode
                0x00000000        0xa src/asf/sam/drivers/pio/pio.o
 .text.pio_capture_enable
                0x00000000        0xe src/asf/sam/drivers/pio/pio.o
 .text.pio_capture_disable
                0x00000000        0xe src/asf/sam/drivers/pio/pio.o
 .text.pio_capture_read
                0x00000000       0x16 src/asf/sam/drivers/pio/pio.o
 .text.pio_capture_enable_interrupt
                0x00000000        0xa src/asf/sam/drivers/pio/pio.o
 .text.pio_capture_disable_interrupt
                0x00000000        0x6 src/asf/sam/drivers/pio/pio.o
 .text.pio_capture_get_interrupt_status
                0x00000000        0x6 src/asf/sam/drivers/pio/pio.o
 .text.pio_capture_get_interrupt_mask
                0x00000000        0x6 src/asf/sam/drivers/pio/pio.o
 .text.pio_capture_get_pdc_base
                0x00000000        0x8 src/asf/sam/drivers/pio/pio.o
 .text          0x00000000        0x0 src/asf/sam/drivers/pio/pio_handler.o
 .data          0x00000000        0x0 src/asf/sam/drivers/pio/pio_handler.o
 .bss           0x00000000        0x0 src/asf/sam/drivers/pio/pio_handler.o
 .text.pio_handler_set
                0x00000000       0x40 src/asf/sam/drivers/pio/pio_handler.o
 .text.pio_handler_set_pin
                0x00000000       0x28 src/asf/sam/drivers/pio/pio_handler.o
 .text.pio_handler_set_priority
                0x00000000       0x70 src/asf/sam/drivers/pio/pio_handler.o
 .bss.gs_ul_nb_sources
                0x00000000        0x4 src/asf/sam/drivers/pio/pio_handler.o
 .text          0x00000000        0x0 src/asf/sam/drivers/pmc/pmc.o
 .data          0x00000000        0x0 src/asf/sam/drivers/pmc/pmc.o
 .bss           0x00000000        0x0 src/asf/sam/drivers/pmc/pmc.o
 .text.pmc_mck_set_prescaler
                0x00000000       0x18 src/asf/sam/drivers/pmc/pmc.o
 .text.pmc_mck_set_source
                0x00000000       0x18 src/asf/sam/drivers/pmc/pmc.o
 .text.pmc_switch_mck_to_sclk
                0x00000000       0x48 src/asf/sam/drivers/pmc/pmc.o
 .text.pmc_switch_mck_to_mainck
                0x00000000       0x4c src/asf/sam/drivers/pmc/pmc.o
 .text.pmc_switch_mck_to_pllbck
                0x00000000       0x44 src/asf/sam/drivers/pmc/pmc.o
 .text.pmc_osc_is_ready_32kxtal
                0x00000000       0x1c src/asf/sam/drivers/pmc/pmc.o
 .text.pmc_osc_enable_fastrc
                0x00000000       0x18 src/asf/sam/drivers/pmc/pmc.o
 .text.pmc_osc_disable_fastrc
                0x00000000       0x18 src/asf/sam/drivers/pmc/pmc.o
 .text.pmc_osc_disable_xtal
                0x00000000       0x20 src/asf/sam/drivers/pmc/pmc.o
 .text.pmc_enable_pllack
                0x00000000       0x34 src/asf/sam/drivers/pmc/pmc.o
 .text.pmc_enable_pllbck
                0x00000000       0x2c src/asf/sam/drivers/pmc/pmc.o
 .text.pmc_enable_all_periph_clk
                0x00000000       0x2c src/asf/sam/drivers/pmc/pmc.o
 .text.pmc_disable_all_periph_clk
                0x00000000       0x28 src/asf/sam/drivers/pmc/pmc.o
 .text.pmc_is_periph_clk_enabled
                0x00000000       0x34 src/asf/sam/drivers/pmc/pmc.o
 .text.pmc_pck_set_prescaler
                0x00000000       0x30 src/asf/sam/drivers/pmc/pmc.o
 .text.pmc_pck_set_source
                0x00000000       0x30 src/asf/sam/drivers/pmc/pmc.o
 .text.pmc_switch_pck_to_sclk
                0x00000000       0x30 src/asf/sam/drivers/pmc/pmc.o
 .text.pmc_switch_pck_to_mainck
                0x00000000       0x34 src/asf/sam/drivers/pmc/pmc.o
 .text.pmc_switch_pck_to_pllack
                0x00000000       0x34 src/asf/sam/drivers/pmc/pmc.o
 .text.pmc_switch_pck_to_pllbck
                0x00000000       0x34 src/asf/sam/drivers/pmc/pmc.o
 .text.pmc_enable_pck
                0x00000000       0x14 src/asf/sam/drivers/pmc/pmc.o
 .text.pmc_disable_pck
                0x00000000       0x14 src/asf/sam/drivers/pmc/pmc.o
 .text.pmc_enable_all_pck
                0x00000000       0x10 src/asf/sam/drivers/pmc/pmc.o
 .text.pmc_disable_all_pck
                0x00000000       0x10 src/asf/sam/drivers/pmc/pmc.o
 .text.pmc_is_pck_enabled
                0x00000000       0x1c src/asf/sam/drivers/pmc/pmc.o
 .text.pmc_switch_udpck_to_pllack
                0x00000000       0x10 src/asf/sam/drivers/pmc/pmc.o
 .text.pmc_disable_udpck
                0x00000000        0xc src/asf/sam/drivers/pmc/pmc.o
 .text.pmc_enable_interrupt
                0x00000000        0xc src/asf/sam/drivers/pmc/pmc.o
 .text.pmc_disable_interrupt
                0x00000000        0xc src/asf/sam/drivers/pmc/pmc.o
 .text.pmc_get_interrupt_mask
                0x00000000        0xc src/asf/sam/drivers/pmc/pmc.o
 .text.pmc_get_status
                0x00000000        0xc src/asf/sam/drivers/pmc/pmc.o
 .text.pmc_clr_fast_startup_input
                0x00000000       0x18 src/asf/sam/drivers/pmc/pmc.o
 .text.pmc_enable_sleepmode
                0x00000000       0x18 src/asf/sam/drivers/pmc/pmc.o
 .text.pmc_enable_waitmode
                0x00000000       0x30 src/asf/sam/drivers/pmc/pmc.o
 .text.pmc_enable_backupmode
                0x00000000       0x14 src/asf/sam/drivers/pmc/pmc.o
 .text.pmc_enable_clock_failure_detector
                0x00000000       0x14 src/asf/sam/drivers/pmc/pmc.o
 .text.pmc_disable_clock_failure_detector
                0x00000000       0x14 src/asf/sam/drivers/pmc/pmc.o
 .text.pmc_set_writeprotect
                0x00000000       0x1c src/asf/sam/drivers/pmc/pmc.o
 .text.pmc_get_writeprotect_status
                0x00000000       0x10 src/asf/sam/drivers/pmc/pmc.o
 .text          0x00000000        0x0 src/asf/sam/drivers/rtc/rtc.o
 .data          0x00000000        0x0 src/asf/sam/drivers/rtc/rtc.o
 .bss           0x00000000        0x0 src/asf/sam/drivers/rtc/rtc.o
 .text.rtc_get_hour_mode
                0x00000000        0x8 src/asf/sam/drivers/rtc/rtc.o
 .text.rtc_get_interrupt_mask
                0x00000000        0x4 src/asf/sam/drivers/rtc/rtc.o
 .text.rtc_set_time
                0x00000000       0x72 src/asf/sam/drivers/rtc/rtc.o
 .text.rtc_set_time_alarm
                0x00000000       0x6e src/asf/sam/drivers/rtc/rtc.o
 .text.rtc_set_date
                0x00000000       0x88 src/asf/sam/drivers/rtc/rtc.o
 .text.rtc_set_date_alarm
                0x00000000       0x3c src/asf/sam/drivers/rtc/rtc.o
 .text.rtc_clear_time_alarm
                0x00000000        0x6 src/asf/sam/drivers/rtc/rtc.o
 .text.rtc_clear_data_alarm
                0x00000000        0xc src/asf/sam/drivers/rtc/rtc.o
 .text.rtc_set_calendar_mode
                0x00000000       0x12 src/asf/sam/drivers/rtc/rtc.o
 .text.rtc_set_calibration
                0x00000000       0x28 src/asf/sam/drivers/rtc/rtc.o
 .text.rtc_set_waveform
                0x00000000      0x11c src/asf/sam/drivers/rtc/rtc.o
 .text.rtc_set_pulse_parameter
                0x00000000       0x16 src/asf/sam/drivers/rtc/rtc.o
 .text          0x00000000        0x0 src/asf/sam/drivers/udp/udp_device.o
 .data          0x00000000        0x0 src/asf/sam/drivers/udp/udp_device.o
 .bss           0x00000000        0x0 src/asf/sam/drivers/udp/udp_device.o
 .text.udd_detach
                0x00000000       0x24 src/asf/sam/drivers/udp/udp_device.o
 .text.udd_disable
                0x00000000       0x44 src/asf/sam/drivers/udp/udp_device.o
 .text.udd_send_remotewakeup
                0x00000000       0x38 src/asf/sam/drivers/udp/udp_device.o
 .text.udd_ep_wait_stall_clear
                0x00000000       0x60 src/asf/sam/drivers/udp/udp_device.o
 .text          0x00000000        0x0 src/asf/sam/services/flash_efc/flash_efc.o
 .data          0x00000000        0x0 src/asf/sam/services/flash_efc/flash_efc.o
 .bss           0x00000000        0x0 src/asf/sam/services/flash_efc/flash_efc.o
 .text.translate_address
                0x00000000       0x58 src/asf/sam/services/flash_efc/flash_efc.o
 .text.flash_init
                0x00000000       0x1c src/asf/sam/services/flash_efc/flash_efc.o
 .text.flash_set_wait_state
                0x00000000       0x28 src/asf/sam/services/flash_efc/flash_efc.o
 .text.flash_set_wait_state_adaptively
                0x00000000       0x24 src/asf/sam/services/flash_efc/flash_efc.o
 .text.flash_get_wait_state
                0x00000000       0x20 src/asf/sam/services/flash_efc/flash_efc.o
 .text.flash_get_descriptor
                0x00000000       0x48 src/asf/sam/services/flash_efc/flash_efc.o
 .text.flash_get_page_count
                0x00000000        0xa src/asf/sam/services/flash_efc/flash_efc.o
 .text.flash_get_page_count_per_region
                0x00000000        0xa src/asf/sam/services/flash_efc/flash_efc.o
 .text.flash_get_region_count
                0x00000000        0x4 src/asf/sam/services/flash_efc/flash_efc.o
 .text.flash_erase_all
                0x00000000       0x2c src/asf/sam/services/flash_efc/flash_efc.o
 .text.flash_write
                0x00000000       0xe4 src/asf/sam/services/flash_efc/flash_efc.o
 .text.flash_lock
                0x00000000       0x60 src/asf/sam/services/flash_efc/flash_efc.o
 .text.flash_unlock
                0x00000000       0x60 src/asf/sam/services/flash_efc/flash_efc.o
 .text.flash_is_locked
                0x00000000       0xe4 src/asf/sam/services/flash_efc/flash_efc.o
 .text.flash_is_gpnvm_set
                0x00000000       0x40 src/asf/sam/services/flash_efc/flash_efc.o
 .text.flash_clear_gpnvm
                0x00000000       0x38 src/asf/sam/services/flash_efc/flash_efc.o
 .text.flash_set_gpnvm
                0x00000000       0x34 src/asf/sam/services/flash_efc/flash_efc.o
 .text.flash_enable_security_bit
                0x00000000       0x10 src/asf/sam/services/flash_efc/flash_efc.o
 .text.flash_is_security_bit_enabled
                0x00000000       0x10 src/asf/sam/services/flash_efc/flash_efc.o
 .text.flash_read_unique_id
                0x00000000       0x44 src/asf/sam/services/flash_efc/flash_efc.o
 .rodata.__func__.7210
                0x00000000       0x12 src/asf/sam/services/flash_efc/flash_efc.o
 .rodata.__func__.7337
                0x00000000       0x10 src/asf/sam/services/flash_efc/flash_efc.o
 .rodata.str1.1
                0x00000000       0xcc src/asf/sam/services/flash_efc/flash_efc.o
 .bss.gs_ul_page_buffer
                0x00000000      0x100 src/asf/sam/services/flash_efc/flash_efc.o
 .comment       0x00000000       0x34 src/asf/sam/services/flash_efc/flash_efc.o
 .ARM.attributes
                0x00000000       0x33 src/asf/sam/services/flash_efc/flash_efc.o
 .text          0x00000000        0x0 src/asf/sam/utils/syscalls/gcc/syscalls.o
 .data          0x00000000        0x0 src/asf/sam/utils/syscalls/gcc/syscalls.o
 .bss           0x00000000        0x0 src/asf/sam/utils/syscalls/gcc/syscalls.o
 .text.link     0x00000000        0x6 src/asf/sam/utils/syscalls/gcc/syscalls.o
 .text          0x00000000        0x0 src/asf/thirdparty/fatfs/fatfs-port-r0.09/diskio.o
 .data          0x00000000        0x0 src/asf/thirdparty/fatfs/fatfs-port-r0.09/diskio.o
 .bss           0x00000000        0x0 src/asf/thirdparty/fatfs/fatfs-port-r0.09/diskio.o
 .text          0x00000000        0x0 src/asf/thirdparty/fatfs/fatfs-port-r0.09/sam/fattime.o
 .data          0x00000000        0x0 src/asf/thirdparty/fatfs/fatfs-port-r0.09/sam/fattime.o
 .bss           0x00000000        0x0 src/asf/thirdparty/fatfs/fatfs-port-r0.09/sam/fattime.o
 .text          0x00000000        0x0 src/asf/thirdparty/fatfs/fatfs-r0.09/src/ff.o
 .data          0x00000000        0x0 src/asf/thirdparty/fatfs/fatfs-r0.09/src/ff.o
 .bss           0x00000000        0x0 src/asf/thirdparty/fatfs/fatfs-r0.09/src/ff.o
 .text.get_fileinfo
                0x00000000      0x100 src/asf/thirdparty/fatfs/fatfs-r0.09/src/ff.o
 .text.dir_remove
                0x00000000       0x64 src/asf/thirdparty/fatfs/fatfs-r0.09/src/ff.o
 .text.dir_read
                0x00000000      0x118 src/asf/thirdparty/fatfs/fatfs-r0.09/src/ff.o
 .text.f_read   0x00000000      0x18c src/asf/thirdparty/fatfs/fatfs-r0.09/src/ff.o
 .text.f_close  0x00000000       0x14 src/asf/thirdparty/fatfs/fatfs-r0.09/src/ff.o
 .text.f_lseek  0x00000000      0x170 src/asf/thirdparty/fatfs/fatfs-r0.09/src/ff.o
 .text.f_readdir
                0x00000000       0x74 src/asf/thirdparty/fatfs/fatfs-r0.09/src/ff.o
 .text.f_stat   0x00000000       0x50 src/asf/thirdparty/fatfs/fatfs-r0.09/src/ff.o
 .text.f_getfree
                0x00000000       0xf8 src/asf/thirdparty/fatfs/fatfs-r0.09/src/ff.o
 .text.f_truncate
                0x00000000       0xa8 src/asf/thirdparty/fatfs/fatfs-r0.09/src/ff.o
 .text.f_unlink
                0x00000000       0xd8 src/asf/thirdparty/fatfs/fatfs-r0.09/src/ff.o
 .text.f_chmod  0x00000000       0x60 src/asf/thirdparty/fatfs/fatfs-r0.09/src/ff.o
 .text.f_utime  0x00000000       0x60 src/asf/thirdparty/fatfs/fatfs-r0.09/src/ff.o
 .text.f_rename
                0x00000000      0x13c src/asf/thirdparty/fatfs/fatfs-r0.09/src/ff.o
 .text.f_gets   0x00000000       0x50 src/asf/thirdparty/fatfs/fatfs-r0.09/src/ff.o
 .text.f_printf
                0x00000000      0x27c src/asf/thirdparty/fatfs/fatfs-r0.09/src/ff.o
 .text          0x00000000        0x0 src/asf/thirdparty/fatfs/fatfs-r0.09/src/option/ccsbcs.o
 .data          0x00000000        0x0 src/asf/thirdparty/fatfs/fatfs-r0.09/src/option/ccsbcs.o
 .bss           0x00000000        0x0 src/asf/thirdparty/fatfs/fatfs-r0.09/src/option/ccsbcs.o
 .text          0x00000000        0x0 src/sd_mmc_mem.o
 .data          0x00000000        0x0 src/sd_mmc_mem.o
 .bss           0x00000000        0x0 src/sd_mmc_mem.o
 .text.sd_mmc_test_unit_ready_1
                0x00000000       0x10 src/sd_mmc_mem.o
 .text.sd_mmc_read_capacity_1
                0x00000000       0x10 src/sd_mmc_mem.o
 .text.sd_mmc_wr_protect
                0x00000000        0xc src/sd_mmc_mem.o
 .text.sd_mmc_wr_protect_1
                0x00000000       0x10 src/sd_mmc_mem.o
 .text.sd_mmc_removal
                0x00000000        0x4 src/sd_mmc_mem.o
 .text.sd_mmc_removal_0
                0x00000000        0x4 src/sd_mmc_mem.o
 .text.sd_mmc_removal_1
                0x00000000        0x4 src/sd_mmc_mem.o
 .text.sd_mmc_mem_2_ram_1
                0x00000000       0x14 src/sd_mmc_mem.o
 .text.sd_mmc_ram_2_mem_1
                0x00000000       0x14 src/sd_mmc_mem.o
 .text          0x00000000        0x0 src/stdio_usb_example.o
 .data          0x00000000        0x0 src/stdio_usb_example.o
 .bss           0x00000000        0x0 src/stdio_usb_example.o
 .text          0x00000000       0x44 c:/program files (x86)/atmel/atmel studio 6.0/extensions/atmel/armgcc/3.3.1.128/armgcctoolchain/bin/../lib/gcc/arm-none-eabi/4.7.0/../../../../arm-none-eabi/lib/thumb\libc.a(lib_a-assert.o)
 .data          0x00000000        0x0 c:/program files (x86)/atmel/atmel studio 6.0/extensions/atmel/armgcc/3.3.1.128/armgcctoolchain/bin/../lib/gcc/arm-none-eabi/4.7.0/../../../../arm-none-eabi/lib/thumb\libc.a(lib_a-assert.o)
 .bss           0x00000000        0x0 c:/program files (x86)/atmel/atmel studio 6.0/extensions/atmel/armgcc/3.3.1.128/armgcctoolchain/bin/../lib/gcc/arm-none-eabi/4.7.0/../../../../arm-none-eabi/lib/thumb\libc.a(lib_a-assert.o)
 .rodata.str1.1
                0x00000000       0x3d c:/program files (x86)/atmel/atmel studio 6.0/extensions/atmel/armgcc/3.3.1.128/armgcctoolchain/bin/../lib/gcc/arm-none-eabi/4.7.0/../../../../arm-none-eabi/lib/thumb\libc.a(lib_a-assert.o)
 .debug_info    0x00000000      0xa77 c:/program files (x86)/atmel/atmel studio 6.0/extensions/atmel/armgcc/3.3.1.128/armgcctoolchain/bin/../lib/gcc/arm-none-eabi/4.7.0/../../../../arm-none-eabi/lib/thumb\libc.a(lib_a-assert.o)
 .debug_abbrev  0x00000000      0x1da c:/program files (x86)/atmel/atmel studio 6.0/extensions/atmel/armgcc/3.3.1.128/armgcctoolchain/bin/../lib/gcc/arm-none-eabi/4.7.0/../../../../arm-none-eabi/lib/thumb\libc.a(lib_a-assert.o)
 .debug_loc     0x00000000      0x146 c:/program files (x86)/atmel/atmel studio 6.0/extensions/atmel/armgcc/3.3.1.128/armgcctoolchain/bin/../lib/gcc/arm-none-eabi/4.7.0/../../../../arm-none-eabi/lib/thumb\libc.a(lib_a-assert.o)
 .debug_aranges
                0x00000000       0x20 c:/program files (x86)/atmel/atmel studio 6.0/extensions/atmel/armgcc/3.3.1.128/armgcctoolchain/bin/../lib/gcc/arm-none-eabi/4.7.0/../../../../arm-none-eabi/lib/thumb\libc.a(lib_a-assert.o)
 .debug_line    0x00000000      0x251 c:/program files (x86)/atmel/atmel studio 6.0/extensions/atmel/armgcc/3.3.1.128/armgcctoolchain/bin/../lib/gcc/arm-none-eabi/4.7.0/../../../../arm-none-eabi/lib/thumb\libc.a(lib_a-assert.o)
 .debug_str     0x00000000      0x59a c:/program files (x86)/atmel/atmel studio 6.0/extensions/atmel/armgcc/3.3.1.128/armgcctoolchain/bin/../lib/gcc/arm-none-eabi/4.7.0/../../../../arm-none-eabi/lib/thumb\libc.a(lib_a-assert.o)
 .comment       0x00000000       0x34 c:/program files (x86)/atmel/atmel studio 6.0/extensions/atmel/armgcc/3.3.1.128/armgcctoolchain/bin/../lib/gcc/arm-none-eabi/4.7.0/../../../../arm-none-eabi/lib/thumb\libc.a(lib_a-assert.o)
 .ARM.attributes
                0x00000000       0x2d c:/program files (x86)/atmel/atmel studio 6.0/extensions/atmel/armgcc/3.3.1.128/armgcctoolchain/bin/../lib/gcc/arm-none-eabi/4.7.0/../../../../arm-none-eabi/lib/thumb\libc.a(lib_a-assert.o)
 .debug_frame   0x00000000       0x48 c:/program files (x86)/atmel/atmel studio 6.0/extensions/atmel/armgcc/3.3.1.128/armgcctoolchain/bin/../lib/gcc/arm-none-eabi/4.7.0/../../../../arm-none-eabi/lib/thumb\libc.a(lib_a-assert.o)
 .data          0x00000000        0x0 c:/program files (x86)/atmel/atmel studio 6.0/extensions/atmel/armgcc/3.3.1.128/armgcctoolchain/bin/../lib/gcc/arm-none-eabi/4.7.0/../../../../arm-none-eabi/lib/thumb\libc.a(lib_a-atexit.o)
 .bss           0x00000000        0x0 c:/program files (x86)/atmel/atmel studio 6.0/extensions/atmel/armgcc/3.3.1.128/armgcctoolchain/bin/../lib/gcc/arm-none-eabi/4.7.0/../../../../arm-none-eabi/lib/thumb\libc.a(lib_a-atexit.o)
 .text          0x00000000       0x20 c:/program files (x86)/atmel/atmel studio 6.0/extensions/atmel/armgcc/3.3.1.128/armgcctoolchain/bin/../lib/gcc/arm-none-eabi/4.7.0/../../../../arm-none-eabi/lib/thumb\libc.a(lib_a-exit.o)
 .data          0x00000000        0x0 c:/program files (x86)/atmel/atmel studio 6.0/extensions/atmel/armgcc/3.3.1.128/armgcctoolchain/bin/../lib/gcc/arm-none-eabi/4.7.0/../../../../arm-none-eabi/lib/thumb\libc.a(lib_a-exit.o)
 .bss           0x00000000        0x0 c:/program files (x86)/atmel/atmel studio 6.0/extensions/atmel/armgcc/3.3.1.128/armgcctoolchain/bin/../lib/gcc/arm-none-eabi/4.7.0/../../../../arm-none-eabi/lib/thumb\libc.a(lib_a-exit.o)
 .debug_info    0x00000000      0x9bc c:/program files (x86)/atmel/atmel studio 6.0/extensions/atmel/armgcc/3.3.1.128/armgcctoolchain/bin/../lib/gcc/arm-none-eabi/4.7.0/../../../../arm-none-eabi/lib/thumb\libc.a(lib_a-exit.o)
 .debug_abbrev  0x00000000      0x1c6 c:/program files (x86)/atmel/atmel studio 6.0/extensions/atmel/armgcc/3.3.1.128/armgcctoolchain/bin/../lib/gcc/arm-none-eabi/4.7.0/../../../../arm-none-eabi/lib/thumb\libc.a(lib_a-exit.o)
 .debug_loc     0x00000000       0x3e c:/program files (x86)/atmel/atmel studio 6.0/extensions/atmel/armgcc/3.3.1.128/armgcctoolchain/bin/../lib/gcc/arm-none-eabi/4.7.0/../../../../arm-none-eabi/lib/thumb\libc.a(lib_a-exit.o)
 .debug_aranges
                0x00000000       0x20 c:/program files (x86)/atmel/atmel studio 6.0/extensions/atmel/armgcc/3.3.1.128/armgcctoolchain/bin/../lib/gcc/arm-none-eabi/4.7.0/../../../../arm-none-eabi/lib/thumb\libc.a(lib_a-exit.o)
 .debug_line    0x00000000      0x243 c:/program files (x86)/atmel/atmel studio 6.0/extensions/atmel/armgcc/3.3.1.128/armgcctoolchain/bin/../lib/gcc/arm-none-eabi/4.7.0/../../../../arm-none-eabi/lib/thumb\libc.a(lib_a-exit.o)
 .debug_str     0x00000000      0x4ee c:/program files (x86)/atmel/atmel studio 6.0/extensions/atmel/armgcc/3.3.1.128/armgcctoolchain/bin/../lib/gcc/arm-none-eabi/4.7.0/../../../../arm-none-eabi/lib/thumb\libc.a(lib_a-exit.o)
 .comment       0x00000000       0x34 c:/program files (x86)/atmel/atmel studio 6.0/extensions/atmel/armgcc/3.3.1.128/armgcctoolchain/bin/../lib/gcc/arm-none-eabi/4.7.0/../../../../arm-none-eabi/lib/thumb\libc.a(lib_a-exit.o)
 .ARM.attributes
                0x00000000       0x2d c:/program files (x86)/atmel/atmel studio 6.0/extensions/atmel/armgcc/3.3.1.128/armgcctoolchain/bin/../lib/gcc/arm-none-eabi/4.7.0/../../../../arm-none-eabi/lib/thumb\libc.a(lib_a-exit.o)
 .debug_frame   0x00000000       0x28 c:/program files (x86)/atmel/atmel studio 6.0/extensions/atmel/armgcc/3.3.1.128/armgcctoolchain/bin/../lib/gcc/arm-none-eabi/4.7.0/../../../../arm-none-eabi/lib/thumb\libc.a(lib_a-exit.o)
 .data          0x00000000        0x0 c:/program files (x86)/atmel/atmel studio 6.0/extensions/atmel/armgcc/3.3.1.128/armgcctoolchain/bin/../lib/gcc/arm-none-eabi/4.7.0/../../../../arm-none-eabi/lib/thumb\libc.a(lib_a-fini.o)
 .bss           0x00000000        0x0 c:/program files (x86)/atmel/atmel studio 6.0/extensions/atmel/armgcc/3.3.1.128/armgcctoolchain/bin/../lib/gcc/arm-none-eabi/4.7.0/../../../../arm-none-eabi/lib/thumb\libc.a(lib_a-fini.o)
 .text          0x00000000       0x3c c:/program files (x86)/atmel/atmel studio 6.0/extensions/atmel/armgcc/3.3.1.128/armgcctoolchain/bin/../lib/gcc/arm-none-eabi/4.7.0/../../../../arm-none-eabi/lib/thumb\libc.a(lib_a-fiprintf.o)
 .data          0x00000000        0x0 c:/program files (x86)/atmel/atmel studio 6.0/extensions/atmel/armgcc/3.3.1.128/armgcctoolchain/bin/../lib/gcc/arm-none-eabi/4.7.0/../../../../arm-none-eabi/lib/thumb\libc.a(lib_a-fiprintf.o)
 .bss           0x00000000        0x0 c:/program files (x86)/atmel/atmel studio 6.0/extensions/atmel/armgcc/3.3.1.128/armgcctoolchain/bin/../lib/gcc/arm-none-eabi/4.7.0/../../../../arm-none-eabi/lib/thumb\libc.a(lib_a-fiprintf.o)
 .debug_info    0x00000000      0xaa3 c:/program files (x86)/atmel/atmel studio 6.0/extensions/atmel/armgcc/3.3.1.128/armgcctoolchain/bin/../lib/gcc/arm-none-eabi/4.7.0/../../../../arm-none-eabi/lib/thumb\libc.a(lib_a-fiprintf.o)
 .debug_abbrev  0x00000000      0x1f8 c:/program files (x86)/atmel/atmel studio 6.0/extensions/atmel/armgcc/3.3.1.128/armgcctoolchain/bin/../lib/gcc/arm-none-eabi/4.7.0/../../../../arm-none-eabi/lib/thumb\libc.a(lib_a-fiprintf.o)
 .debug_loc     0x00000000       0xc6 c:/program files (x86)/atmel/atmel studio 6.0/extensions/atmel/armgcc/3.3.1.128/armgcctoolchain/bin/../lib/gcc/arm-none-eabi/4.7.0/../../../../arm-none-eabi/lib/thumb\libc.a(lib_a-fiprintf.o)
 .debug_aranges
                0x00000000       0x20 c:/program files (x86)/atmel/atmel studio 6.0/extensions/atmel/armgcc/3.3.1.128/armgcctoolchain/bin/../lib/gcc/arm-none-eabi/4.7.0/../../../../arm-none-eabi/lib/thumb\libc.a(lib_a-fiprintf.o)
 .debug_line    0x00000000      0x24d c:/program files (x86)/atmel/atmel studio 6.0/extensions/atmel/armgcc/3.3.1.128/armgcctoolchain/bin/../lib/gcc/arm-none-eabi/4.7.0/../../../../arm-none-eabi/lib/thumb\libc.a(lib_a-fiprintf.o)
 .debug_str     0x00000000      0x5a2 c:/program files (x86)/atmel/atmel studio 6.0/extensions/atmel/armgcc/3.3.1.128/armgcctoolchain/bin/../lib/gcc/arm-none-eabi/4.7.0/../../../../arm-none-eabi/lib/thumb\libc.a(lib_a-fiprintf.o)
 .comment       0x00000000       0x34 c:/program files (x86)/atmel/atmel studio 6.0/extensions/atmel/armgcc/3.3.1.128/armgcctoolchain/bin/../lib/gcc/arm-none-eabi/4.7.0/../../../../arm-none-eabi/lib/thumb\libc.a(lib_a-fiprintf.o)
 .ARM.attributes
                0x00000000       0x2d c:/program files (x86)/atmel/atmel studio 6.0/extensions/atmel/armgcc/3.3.1.128/armgcctoolchain/bin/../lib/gcc/arm-none-eabi/4.7.0/../../../../arm-none-eabi/lib/thumb\libc.a(lib_a-fiprintf.o)
 .debug_frame   0x00000000       0x58 c:/program files (x86)/atmel/atmel studio 6.0/extensions/atmel/armgcc/3.3.1.128/armgcctoolchain/bin/../lib/gcc/arm-none-eabi/4.7.0/../../../../arm-none-eabi/lib/thumb\libc.a(lib_a-fiprintf.o)
 .text          0x00000000        0x0 c:/program files (x86)/atmel/atmel studio 6.0/extensions/atmel/armgcc/3.3.1.128/armgcctoolchain/bin/../lib/gcc/arm-none-eabi/4.7.0/../../../../arm-none-eabi/lib/thumb\libc.a(lib_a-impure.o)
 .bss           0x00000000        0x0 c:/program files (x86)/atmel/atmel studio 6.0/extensions/atmel/armgcc/3.3.1.128/armgcctoolchain/bin/../lib/gcc/arm-none-eabi/4.7.0/../../../../arm-none-eabi/lib/thumb\libc.a(lib_a-impure.o)
 .data          0x00000000        0x0 c:/program files (x86)/atmel/atmel studio 6.0/extensions/atmel/armgcc/3.3.1.128/armgcctoolchain/bin/../lib/gcc/arm-none-eabi/4.7.0/../../../../arm-none-eabi/lib/thumb\libc.a(lib_a-init.o)
 .bss           0x00000000        0x0 c:/program files (x86)/atmel/atmel studio 6.0/extensions/atmel/armgcc/3.3.1.128/armgcctoolchain/bin/../lib/gcc/arm-none-eabi/4.7.0/../../../../arm-none-eabi/lib/thumb\libc.a(lib_a-init.o)
 .data          0x00000000        0x0 c:/program files (x86)/atmel/atmel studio 6.0/extensions/atmel/armgcc/3.3.1.128/armgcctoolchain/bin/../lib/gcc/arm-none-eabi/4.7.0/../../../../arm-none-eabi/lib/thumb\libc.a(lib_a-memcpy.o)
 .bss           0x00000000        0x0 c:/program files (x86)/atmel/atmel studio 6.0/extensions/atmel/armgcc/3.3.1.128/armgcctoolchain/bin/../lib/gcc/arm-none-eabi/4.7.0/../../../../arm-none-eabi/lib/thumb\libc.a(lib_a-memcpy.o)
 .data          0x00000000        0x0 c:/program files (x86)/atmel/atmel studio 6.0/extensions/atmel/armgcc/3.3.1.128/armgcctoolchain/bin/../lib/gcc/arm-none-eabi/4.7.0/../../../../arm-none-eabi/lib/thumb\libc.a(lib_a-memset.o)
 .bss           0x00000000        0x0 c:/program files (x86)/atmel/atmel studio 6.0/extensions/atmel/armgcc/3.3.1.128/armgcctoolchain/bin/../lib/gcc/arm-none-eabi/4.7.0/../../../../arm-none-eabi/lib/thumb\libc.a(lib_a-memset.o)
 .data          0x00000000        0x0 c:/program files (x86)/atmel/atmel studio 6.0/extensions/atmel/armgcc/3.3.1.128/armgcctoolchain/bin/../lib/gcc/arm-none-eabi/4.7.0/../../../../arm-none-eabi/lib/thumb\libc.a(lib_a-printf.o)
 .bss           0x00000000        0x0 c:/program files (x86)/atmel/atmel studio 6.0/extensions/atmel/armgcc/3.3.1.128/armgcctoolchain/bin/../lib/gcc/arm-none-eabi/4.7.0/../../../../arm-none-eabi/lib/thumb\libc.a(lib_a-printf.o)
 .data          0x00000000        0x0 c:/program files (x86)/atmel/atmel studio 6.0/extensions/atmel/armgcc/3.3.1.128/armgcctoolchain/bin/../lib/gcc/arm-none-eabi/4.7.0/../../../../arm-none-eabi/lib/thumb\libc.a(lib_a-puts.o)
 .bss           0x00000000        0x0 c:/program files (x86)/atmel/atmel studio 6.0/extensions/atmel/armgcc/3.3.1.128/armgcctoolchain/bin/../lib/gcc/arm-none-eabi/4.7.0/../../../../arm-none-eabi/lib/thumb\libc.a(lib_a-puts.o)
 .data          0x00000000        0x0 c:/program files (x86)/atmel/atmel studio 6.0/extensions/atmel/armgcc/3.3.1.128/armgcctoolchain/bin/../lib/gcc/arm-none-eabi/4.7.0/../../../../arm-none-eabi/lib/thumb\libc.a(lib_a-setbuf.o)
 .bss           0x00000000        0x0 c:/program files (x86)/atmel/atmel studio 6.0/extensions/atmel/armgcc/3.3.1.128/armgcctoolchain/bin/../lib/gcc/arm-none-eabi/4.7.0/../../../../arm-none-eabi/lib/thumb\libc.a(lib_a-setbuf.o)
 .data          0x00000000        0x0 c:/program files (x86)/atmel/atmel studio 6.0/extensions/atmel/armgcc/3.3.1.128/armgcctoolchain/bin/../lib/gcc/arm-none-eabi/4.7.0/../../../../arm-none-eabi/lib/thumb\libc.a(lib_a-setvbuf.o)
 .bss           0x00000000        0x0 c:/program files (x86)/atmel/atmel studio 6.0/extensions/atmel/armgcc/3.3.1.128/armgcctoolchain/bin/../lib/gcc/arm-none-eabi/4.7.0/../../../../arm-none-eabi/lib/thumb\libc.a(lib_a-setvbuf.o)
 .data          0x00000000        0x0 c:/program files (x86)/atmel/atmel studio 6.0/extensions/atmel/armgcc/3.3.1.128/armgcctoolchain/bin/../lib/gcc/arm-none-eabi/4.7.0/../../../../arm-none-eabi/lib/thumb\libc.a(lib_a-sprintf.o)
 .bss           0x00000000        0x0 c:/program files (x86)/atmel/atmel studio 6.0/extensions/atmel/armgcc/3.3.1.128/armgcctoolchain/bin/../lib/gcc/arm-none-eabi/4.7.0/../../../../arm-none-eabi/lib/thumb\libc.a(lib_a-sprintf.o)
 .data          0x00000000        0x0 c:/program files (x86)/atmel/atmel studio 6.0/extensions/atmel/armgcc/3.3.1.128/armgcctoolchain/bin/../lib/gcc/arm-none-eabi/4.7.0/../../../../arm-none-eabi/lib/thumb\libc.a(lib_a-strlen.o)
 .bss           0x00000000        0x0 c:/program files (x86)/atmel/atmel studio 6.0/extensions/atmel/armgcc/3.3.1.128/armgcctoolchain/bin/../lib/gcc/arm-none-eabi/4.7.0/../../../../arm-none-eabi/lib/thumb\libc.a(lib_a-strlen.o)
 .data          0x00000000        0x0 c:/program files (x86)/atmel/atmel studio 6.0/extensions/atmel/armgcc/3.3.1.128/armgcctoolchain/bin/../lib/gcc/arm-none-eabi/4.7.0/../../../../arm-none-eabi/lib/thumb\libc.a(lib_a-svfprintf.o)
 .bss           0x00000000        0x0 c:/program files (x86)/atmel/atmel studio 6.0/extensions/atmel/armgcc/3.3.1.128/armgcctoolchain/bin/../lib/gcc/arm-none-eabi/4.7.0/../../../../arm-none-eabi/lib/thumb\libc.a(lib_a-svfprintf.o)
 .data          0x00000000        0x0 c:/program files (x86)/atmel/atmel studio 6.0/extensions/atmel/armgcc/3.3.1.128/armgcctoolchain/bin/../lib/gcc/arm-none-eabi/4.7.0/../../../../arm-none-eabi/lib/thumb\libc.a(lib_a-vfiprintf.o)
 .bss           0x00000000        0x0 c:/program files (x86)/atmel/atmel studio 6.0/extensions/atmel/armgcc/3.3.1.128/armgcctoolchain/bin/../lib/gcc/arm-none-eabi/4.7.0/../../../../arm-none-eabi/lib/thumb\libc.a(lib_a-vfiprintf.o)
 .data          0x00000000        0x0 c:/program files (x86)/atmel/atmel studio 6.0/extensions/atmel/armgcc/3.3.1.128/armgcctoolchain/bin/../lib/gcc/arm-none-eabi/4.7.0/../../../../arm-none-eabi/lib/thumb\libc.a(lib_a-vfprintf.o)
 .bss           0x00000000        0x0 c:/program files (x86)/atmel/atmel studio 6.0/extensions/atmel/armgcc/3.3.1.128/armgcctoolchain/bin/../lib/gcc/arm-none-eabi/4.7.0/../../../../arm-none-eabi/lib/thumb\libc.a(lib_a-vfprintf.o)
 .data          0x00000000        0x0 c:/program files (x86)/atmel/atmel studio 6.0/extensions/atmel/armgcc/3.3.1.128/armgcctoolchain/bin/../lib/gcc/arm-none-eabi/4.7.0/../../../../arm-none-eabi/lib/thumb\libc.a(lib_a-wsetup.o)
 .bss           0x00000000        0x0 c:/program files (x86)/atmel/atmel studio 6.0/extensions/atmel/armgcc/3.3.1.128/armgcctoolchain/bin/../lib/gcc/arm-none-eabi/4.7.0/../../../../arm-none-eabi/lib/thumb\libc.a(lib_a-wsetup.o)
 .data          0x00000000        0x0 c:/program files (x86)/atmel/atmel studio 6.0/extensions/atmel/armgcc/3.3.1.128/armgcctoolchain/bin/../lib/gcc/arm-none-eabi/4.7.0/../../../../arm-none-eabi/lib/thumb\libc.a(lib_a-__atexit.o)
 .bss           0x00000000        0x0 c:/program files (x86)/atmel/atmel studio 6.0/extensions/atmel/armgcc/3.3.1.128/armgcctoolchain/bin/../lib/gcc/arm-none-eabi/4.7.0/../../../../arm-none-eabi/lib/thumb\libc.a(lib_a-__atexit.o)
 .text          0x00000000       0xcc c:/program files (x86)/atmel/atmel studio 6.0/extensions/atmel/armgcc/3.3.1.128/armgcctoolchain/bin/../lib/gcc/arm-none-eabi/4.7.0/../../../../arm-none-eabi/lib/thumb\libc.a(lib_a-__call_atexit.o)
 .data          0x00000000        0x0 c:/program files (x86)/atmel/atmel studio 6.0/extensions/atmel/armgcc/3.3.1.128/armgcctoolchain/bin/../lib/gcc/arm-none-eabi/4.7.0/../../../../arm-none-eabi/lib/thumb\libc.a(lib_a-__call_atexit.o)
 .bss           0x00000000        0x0 c:/program files (x86)/atmel/atmel studio 6.0/extensions/atmel/armgcc/3.3.1.128/armgcctoolchain/bin/../lib/gcc/arm-none-eabi/4.7.0/../../../../arm-none-eabi/lib/thumb\libc.a(lib_a-__call_atexit.o)
 .data          0x00000000        0x0 c:/program files (x86)/atmel/atmel studio 6.0/extensions/atmel/armgcc/3.3.1.128/armgcctoolchain/bin/../lib/gcc/arm-none-eabi/4.7.0/../../../../arm-none-eabi/lib/thumb\libc.a(lib_a-abort.o)
 .bss           0x00000000        0x0 c:/program files (x86)/atmel/atmel studio 6.0/extensions/atmel/armgcc/3.3.1.128/armgcctoolchain/bin/../lib/gcc/arm-none-eabi/4.7.0/../../../../arm-none-eabi/lib/thumb\libc.a(lib_a-abort.o)
 .debug_info    0x00000000       0xdb c:/program files (x86)/atmel/atmel studio 6.0/extensions/atmel/armgcc/3.3.1.128/armgcctoolchain/bin/../lib/gcc/arm-none-eabi/4.7.0/../../../../arm-none-eabi/lib/thumb\libc.a(lib_a-abort.o)
 .debug_abbrev  0x00000000       0x93 c:/program files (x86)/atmel/atmel studio 6.0/extensions/atmel/armgcc/3.3.1.128/armgcctoolchain/bin/../lib/gcc/arm-none-eabi/4.7.0/../../../../arm-none-eabi/lib/thumb\libc.a(lib_a-abort.o)
 .debug_loc     0x00000000       0x20 c:/program files (x86)/atmel/atmel studio 6.0/extensions/atmel/armgcc/3.3.1.128/armgcctoolchain/bin/../lib/gcc/arm-none-eabi/4.7.0/../../../../arm-none-eabi/lib/thumb\libc.a(lib_a-abort.o)
 .debug_aranges
                0x00000000       0x20 c:/program files (x86)/atmel/atmel studio 6.0/extensions/atmel/armgcc/3.3.1.128/armgcctoolchain/bin/../lib/gcc/arm-none-eabi/4.7.0/../../../../arm-none-eabi/lib/thumb\libc.a(lib_a-abort.o)
 .debug_line    0x00000000      0x195 c:/program files (x86)/atmel/atmel studio 6.0/extensions/atmel/armgcc/3.3.1.128/armgcctoolchain/bin/../lib/gcc/arm-none-eabi/4.7.0/../../../../arm-none-eabi/lib/thumb\libc.a(lib_a-abort.o)
 .debug_str     0x00000000      0x11e c:/program files (x86)/atmel/atmel studio 6.0/extensions/atmel/armgcc/3.3.1.128/armgcctoolchain/bin/../lib/gcc/arm-none-eabi/4.7.0/../../../../arm-none-eabi/lib/thumb\libc.a(lib_a-abort.o)
 .comment       0x00000000       0x34 c:/program files (x86)/atmel/atmel studio 6.0/extensions/atmel/armgcc/3.3.1.128/armgcctoolchain/bin/../lib/gcc/arm-none-eabi/4.7.0/../../../../arm-none-eabi/lib/thumb\libc.a(lib_a-abort.o)
 .ARM.attributes
                0x00000000       0x2d c:/program files (x86)/atmel/atmel studio 6.0/extensions/atmel/armgcc/3.3.1.128/armgcctoolchain/bin/../lib/gcc/arm-none-eabi/4.7.0/../../../../arm-none-eabi/lib/thumb\libc.a(lib_a-abort.o)
 .debug_frame   0x00000000       0x28 c:/program files (x86)/atmel/atmel studio 6.0/extensions/atmel/armgcc/3.3.1.128/armgcctoolchain/bin/../lib/gcc/arm-none-eabi/4.7.0/../../../../arm-none-eabi/lib/thumb\libc.a(lib_a-abort.o)
 .data          0x00000000        0x0 c:/program files (x86)/atmel/atmel studio 6.0/extensions/atmel/armgcc/3.3.1.128/armgcctoolchain/bin/../lib/gcc/arm-none-eabi/4.7.0/../../../../arm-none-eabi/lib/thumb\libc.a(lib_a-fflush.o)
 .bss           0x00000000        0x0 c:/program files (x86)/atmel/atmel studio 6.0/extensions/atmel/armgcc/3.3.1.128/armgcctoolchain/bin/../lib/gcc/arm-none-eabi/4.7.0/../../../../arm-none-eabi/lib/thumb\libc.a(lib_a-fflush.o)
 .data          0x00000000        0x0 c:/program files (x86)/atmel/atmel studio 6.0/extensions/atmel/armgcc/3.3.1.128/armgcctoolchain/bin/../lib/gcc/arm-none-eabi/4.7.0/../../../../arm-none-eabi/lib/thumb\libc.a(lib_a-findfp.o)
 .bss           0x00000000        0x0 c:/program files (x86)/atmel/atmel studio 6.0/extensions/atmel/armgcc/3.3.1.128/armgcctoolchain/bin/../lib/gcc/arm-none-eabi/4.7.0/../../../../arm-none-eabi/lib/thumb\libc.a(lib_a-findfp.o)
 .data          0x00000000        0x0 c:/program files (x86)/atmel/atmel studio 6.0/extensions/atmel/armgcc/3.3.1.128/armgcctoolchain/bin/../lib/gcc/arm-none-eabi/4.7.0/../../../../arm-none-eabi/lib/thumb\libc.a(lib_a-fputwc.o)
 .bss           0x00000000        0x0 c:/program files (x86)/atmel/atmel studio 6.0/extensions/atmel/armgcc/3.3.1.128/armgcctoolchain/bin/../lib/gcc/arm-none-eabi/4.7.0/../../../../arm-none-eabi/lib/thumb\libc.a(lib_a-fputwc.o)
 .data          0x00000000        0x0 c:/program files (x86)/atmel/atmel studio 6.0/extensions/atmel/armgcc/3.3.1.128/armgcctoolchain/bin/../lib/gcc/arm-none-eabi/4.7.0/../../../../arm-none-eabi/lib/thumb\libc.a(lib_a-freer.o)
 .bss           0x00000000        0x0 c:/program files (x86)/atmel/atmel studio 6.0/extensions/atmel/armgcc/3.3.1.128/armgcctoolchain/bin/../lib/gcc/arm-none-eabi/4.7.0/../../../../arm-none-eabi/lib/thumb\libc.a(lib_a-freer.o)
 .data          0x00000000        0x0 c:/program files (x86)/atmel/atmel studio 6.0/extensions/atmel/armgcc/3.3.1.128/armgcctoolchain/bin/../lib/gcc/arm-none-eabi/4.7.0/../../../../arm-none-eabi/lib/thumb\libc.a(lib_a-fvwrite.o)
 .bss           0x00000000        0x0 c:/program files (x86)/atmel/atmel studio 6.0/extensions/atmel/armgcc/3.3.1.128/armgcctoolchain/bin/../lib/gcc/arm-none-eabi/4.7.0/../../../../arm-none-eabi/lib/thumb\libc.a(lib_a-fvwrite.o)
 .data          0x00000000        0x0 c:/program files (x86)/atmel/atmel studio 6.0/extensions/atmel/armgcc/3.3.1.128/armgcctoolchain/bin/../lib/gcc/arm-none-eabi/4.7.0/../../../../arm-none-eabi/lib/thumb\libc.a(lib_a-fwalk.o)
 .bss           0x00000000        0x0 c:/program files (x86)/atmel/atmel studio 6.0/extensions/atmel/armgcc/3.3.1.128/armgcctoolchain/bin/../lib/gcc/arm-none-eabi/4.7.0/../../../../arm-none-eabi/lib/thumb\libc.a(lib_a-fwalk.o)
 .bss           0x00000000        0xc c:/program files (x86)/atmel/atmel studio 6.0/extensions/atmel/armgcc/3.3.1.128/armgcctoolchain/bin/../lib/gcc/arm-none-eabi/4.7.0/../../../../arm-none-eabi/lib/thumb\libc.a(lib_a-locale.o)
 .data          0x00000000        0x0 c:/program files (x86)/atmel/atmel studio 6.0/extensions/atmel/armgcc/3.3.1.128/armgcctoolchain/bin/../lib/gcc/arm-none-eabi/4.7.0/../../../../arm-none-eabi/lib/thumb\libc.a(lib_a-makebuf.o)
 .bss           0x00000000        0x0 c:/program files (x86)/atmel/atmel studio 6.0/extensions/atmel/armgcc/3.3.1.128/armgcctoolchain/bin/../lib/gcc/arm-none-eabi/4.7.0/../../../../arm-none-eabi/lib/thumb\libc.a(lib_a-makebuf.o)
 .data          0x00000000        0x0 c:/program files (x86)/atmel/atmel studio 6.0/extensions/atmel/armgcc/3.3.1.128/armgcctoolchain/bin/../lib/gcc/arm-none-eabi/4.7.0/../../../../arm-none-eabi/lib/thumb\libc.a(lib_a-malloc.o)
 .bss           0x00000000        0x0 c:/program files (x86)/atmel/atmel studio 6.0/extensions/atmel/armgcc/3.3.1.128/armgcctoolchain/bin/../lib/gcc/arm-none-eabi/4.7.0/../../../../arm-none-eabi/lib/thumb\libc.a(lib_a-malloc.o)
 .data          0x00000000        0x0 c:/program files (x86)/atmel/atmel studio 6.0/extensions/atmel/armgcc/3.3.1.128/armgcctoolchain/bin/../lib/gcc/arm-none-eabi/4.7.0/../../../../arm-none-eabi/lib/thumb\libc.a(lib_a-memchr.o)
 .bss           0x00000000        0x0 c:/program files (x86)/atmel/atmel studio 6.0/extensions/atmel/armgcc/3.3.1.128/armgcctoolchain/bin/../lib/gcc/arm-none-eabi/4.7.0/../../../../arm-none-eabi/lib/thumb\libc.a(lib_a-memchr.o)
 .data          0x00000000        0x0 c:/program files (x86)/atmel/atmel studio 6.0/extensions/atmel/armgcc/3.3.1.128/armgcctoolchain/bin/../lib/gcc/arm-none-eabi/4.7.0/../../../../arm-none-eabi/lib/thumb\libc.a(lib_a-memmove.o)
 .bss           0x00000000        0x0 c:/program files (x86)/atmel/atmel studio 6.0/extensions/atmel/armgcc/3.3.1.128/armgcctoolchain/bin/../lib/gcc/arm-none-eabi/4.7.0/../../../../arm-none-eabi/lib/thumb\libc.a(lib_a-memmove.o)
 .data          0x00000000        0x0 c:/program files (x86)/atmel/atmel studio 6.0/extensions/atmel/armgcc/3.3.1.128/armgcctoolchain/bin/../lib/gcc/arm-none-eabi/4.7.0/../../../../arm-none-eabi/lib/thumb\libc.a(lib_a-mlock.o)
 .bss           0x00000000        0x0 c:/program files (x86)/atmel/atmel studio 6.0/extensions/atmel/armgcc/3.3.1.128/armgcctoolchain/bin/../lib/gcc/arm-none-eabi/4.7.0/../../../../arm-none-eabi/lib/thumb\libc.a(lib_a-mlock.o)
 .data          0x00000000        0x0 c:/program files (x86)/atmel/atmel studio 6.0/extensions/atmel/armgcc/3.3.1.128/armgcctoolchain/bin/../lib/gcc/arm-none-eabi/4.7.0/../../../../arm-none-eabi/lib/thumb\libc.a(lib_a-reallocr.o)
 .bss           0x00000000        0x0 c:/program files (x86)/atmel/atmel studio 6.0/extensions/atmel/armgcc/3.3.1.128/armgcctoolchain/bin/../lib/gcc/arm-none-eabi/4.7.0/../../../../arm-none-eabi/lib/thumb\libc.a(lib_a-reallocr.o)
 .data          0x00000000        0x0 c:/program files (x86)/atmel/atmel studio 6.0/extensions/atmel/armgcc/3.3.1.128/armgcctoolchain/bin/../lib/gcc/arm-none-eabi/4.7.0/../../../../arm-none-eabi/lib/thumb\libc.a(lib_a-sbrkr.o)
 .bss           0x00000000        0x0 c:/program files (x86)/atmel/atmel studio 6.0/extensions/atmel/armgcc/3.3.1.128/armgcctoolchain/bin/../lib/gcc/arm-none-eabi/4.7.0/../../../../arm-none-eabi/lib/thumb\libc.a(lib_a-sbrkr.o)
 .data          0x00000000        0x0 c:/program files (x86)/atmel/atmel studio 6.0/extensions/atmel/armgcc/3.3.1.128/armgcctoolchain/bin/../lib/gcc/arm-none-eabi/4.7.0/../../../../arm-none-eabi/lib/thumb\libc.a(lib_a-signal.o)
 .bss           0x00000000        0x0 c:/program files (x86)/atmel/atmel studio 6.0/extensions/atmel/armgcc/3.3.1.128/armgcctoolchain/bin/../lib/gcc/arm-none-eabi/4.7.0/../../../../arm-none-eabi/lib/thumb\libc.a(lib_a-signal.o)
 .debug_info    0x00000000      0xc6f c:/program files (x86)/atmel/atmel studio 6.0/extensions/atmel/armgcc/3.3.1.128/armgcctoolchain/bin/../lib/gcc/arm-none-eabi/4.7.0/../../../../arm-none-eabi/lib/thumb\libc.a(lib_a-signal.o)
 .debug_abbrev  0x00000000      0x2b8 c:/program files (x86)/atmel/atmel studio 6.0/extensions/atmel/armgcc/3.3.1.128/armgcctoolchain/bin/../lib/gcc/arm-none-eabi/4.7.0/../../../../arm-none-eabi/lib/thumb\libc.a(lib_a-signal.o)
 .debug_loc     0x00000000      0x3ba c:/program files (x86)/atmel/atmel studio 6.0/extensions/atmel/armgcc/3.3.1.128/armgcctoolchain/bin/../lib/gcc/arm-none-eabi/4.7.0/../../../../arm-none-eabi/lib/thumb\libc.a(lib_a-signal.o)
 .debug_aranges
                0x00000000       0x20 c:/program files (x86)/atmel/atmel studio 6.0/extensions/atmel/armgcc/3.3.1.128/armgcctoolchain/bin/../lib/gcc/arm-none-eabi/4.7.0/../../../../arm-none-eabi/lib/thumb\libc.a(lib_a-signal.o)
 .debug_line    0x00000000      0x2bb c:/program files (x86)/atmel/atmel studio 6.0/extensions/atmel/armgcc/3.3.1.128/armgcctoolchain/bin/../lib/gcc/arm-none-eabi/4.7.0/../../../../arm-none-eabi/lib/thumb\libc.a(lib_a-signal.o)
 .debug_str     0x00000000      0x55b c:/program files (x86)/atmel/atmel studio 6.0/extensions/atmel/armgcc/3.3.1.128/armgcctoolchain/bin/../lib/gcc/arm-none-eabi/4.7.0/../../../../arm-none-eabi/lib/thumb\libc.a(lib_a-signal.o)
 .comment       0x00000000       0x34 c:/program files (x86)/atmel/atmel studio 6.0/extensions/atmel/armgcc/3.3.1.128/armgcctoolchain/bin/../lib/gcc/arm-none-eabi/4.7.0/../../../../arm-none-eabi/lib/thumb\libc.a(lib_a-signal.o)
 .ARM.attributes
                0x00000000       0x2d c:/program files (x86)/atmel/atmel studio 6.0/extensions/atmel/armgcc/3.3.1.128/armgcctoolchain/bin/../lib/gcc/arm-none-eabi/4.7.0/../../../../arm-none-eabi/lib/thumb\libc.a(lib_a-signal.o)
 .debug_frame   0x00000000       0xc0 c:/program files (x86)/atmel/atmel studio 6.0/extensions/atmel/armgcc/3.3.1.128/armgcctoolchain/bin/../lib/gcc/arm-none-eabi/4.7.0/../../../../arm-none-eabi/lib/thumb\libc.a(lib_a-signal.o)
 .data          0x00000000        0x0 c:/program files (x86)/atmel/atmel studio 6.0/extensions/atmel/armgcc/3.3.1.128/armgcctoolchain/bin/../lib/gcc/arm-none-eabi/4.7.0/../../../../arm-none-eabi/lib/thumb\libc.a(lib_a-signalr.o)
 .bss           0x00000000        0x0 c:/program files (x86)/atmel/atmel studio 6.0/extensions/atmel/armgcc/3.3.1.128/armgcctoolchain/bin/../lib/gcc/arm-none-eabi/4.7.0/../../../../arm-none-eabi/lib/thumb\libc.a(lib_a-signalr.o)
 .debug_info    0x00000000      0xa35 c:/program files (x86)/atmel/atmel studio 6.0/extensions/atmel/armgcc/3.3.1.128/armgcctoolchain/bin/../lib/gcc/arm-none-eabi/4.7.0/../../../../arm-none-eabi/lib/thumb\libc.a(lib_a-signalr.o)
 .debug_abbrev  0x00000000      0x206 c:/program files (x86)/atmel/atmel studio 6.0/extensions/atmel/armgcc/3.3.1.128/armgcctoolchain/bin/../lib/gcc/arm-none-eabi/4.7.0/../../../../arm-none-eabi/lib/thumb\libc.a(lib_a-signalr.o)
 .debug_loc     0x00000000       0xac c:/program files (x86)/atmel/atmel studio 6.0/extensions/atmel/armgcc/3.3.1.128/armgcctoolchain/bin/../lib/gcc/arm-none-eabi/4.7.0/../../../../arm-none-eabi/lib/thumb\libc.a(lib_a-signalr.o)
 .debug_aranges
                0x00000000       0x20 c:/program files (x86)/atmel/atmel studio 6.0/extensions/atmel/armgcc/3.3.1.128/armgcctoolchain/bin/../lib/gcc/arm-none-eabi/4.7.0/../../../../arm-none-eabi/lib/thumb\libc.a(lib_a-signalr.o)
 .debug_line    0x00000000      0x239 c:/program files (x86)/atmel/atmel studio 6.0/extensions/atmel/armgcc/3.3.1.128/armgcctoolchain/bin/../lib/gcc/arm-none-eabi/4.7.0/../../../../arm-none-eabi/lib/thumb\libc.a(lib_a-signalr.o)
 .debug_str     0x00000000      0x4e2 c:/program files (x86)/atmel/atmel studio 6.0/extensions/atmel/armgcc/3.3.1.128/armgcctoolchain/bin/../lib/gcc/arm-none-eabi/4.7.0/../../../../arm-none-eabi/lib/thumb\libc.a(lib_a-signalr.o)
 .comment       0x00000000       0x34 c:/program files (x86)/atmel/atmel studio 6.0/extensions/atmel/armgcc/3.3.1.128/armgcctoolchain/bin/../lib/gcc/arm-none-eabi/4.7.0/../../../../arm-none-eabi/lib/thumb\libc.a(lib_a-signalr.o)
 .ARM.attributes
                0x00000000       0x2d c:/program files (x86)/atmel/atmel studio 6.0/extensions/atmel/armgcc/3.3.1.128/armgcctoolchain/bin/../lib/gcc/arm-none-eabi/4.7.0/../../../../arm-none-eabi/lib/thumb\libc.a(lib_a-signalr.o)
 .debug_frame   0x00000000       0x3c c:/program files (x86)/atmel/atmel studio 6.0/extensions/atmel/armgcc/3.3.1.128/armgcctoolchain/bin/../lib/gcc/arm-none-eabi/4.7.0/../../../../arm-none-eabi/lib/thumb\libc.a(lib_a-signalr.o)
 .data          0x00000000        0x0 c:/program files (x86)/atmel/atmel studio 6.0/extensions/atmel/armgcc/3.3.1.128/armgcctoolchain/bin/../lib/gcc/arm-none-eabi/4.7.0/../../../../arm-none-eabi/lib/thumb\libc.a(lib_a-stdio.o)
 .bss           0x00000000        0x0 c:/program files (x86)/atmel/atmel studio 6.0/extensions/atmel/armgcc/3.3.1.128/armgcctoolchain/bin/../lib/gcc/arm-none-eabi/4.7.0/../../../../arm-none-eabi/lib/thumb\libc.a(lib_a-stdio.o)
 .data          0x00000000        0x0 c:/program files (x86)/atmel/atmel studio 6.0/extensions/atmel/armgcc/3.3.1.128/armgcctoolchain/bin/../lib/gcc/arm-none-eabi/4.7.0/../../../../arm-none-eabi/lib/thumb\libc.a(lib_a-strcmp.o)
 .bss           0x00000000        0x0 c:/program files (x86)/atmel/atmel studio 6.0/extensions/atmel/armgcc/3.3.1.128/armgcctoolchain/bin/../lib/gcc/arm-none-eabi/4.7.0/../../../../arm-none-eabi/lib/thumb\libc.a(lib_a-strcmp.o)
 .data          0x00000000        0x0 c:/program files (x86)/atmel/atmel studio 6.0/extensions/atmel/armgcc/3.3.1.128/armgcctoolchain/bin/../lib/gcc/arm-none-eabi/4.7.0/../../../../arm-none-eabi/lib/thumb\libc.a(lib_a-svfiprintf.o)
 .bss           0x00000000        0x0 c:/program files (x86)/atmel/atmel studio 6.0/extensions/atmel/armgcc/3.3.1.128/armgcctoolchain/bin/../lib/gcc/arm-none-eabi/4.7.0/../../../../arm-none-eabi/lib/thumb\libc.a(lib_a-svfiprintf.o)
 .data          0x00000000        0x0 c:/program files (x86)/atmel/atmel studio 6.0/extensions/atmel/armgcc/3.3.1.128/armgcctoolchain/bin/../lib/gcc/arm-none-eabi/4.7.0/../../../../arm-none-eabi/lib/thumb\libc.a(lib_a-wbuf.o)
 .bss           0x00000000        0x0 c:/program files (x86)/atmel/atmel studio 6.0/extensions/atmel/armgcc/3.3.1.128/armgcctoolchain/bin/../lib/gcc/arm-none-eabi/4.7.0/../../../../arm-none-eabi/lib/thumb\libc.a(lib_a-wbuf.o)
 .data          0x00000000        0x0 c:/program files (x86)/atmel/atmel studio 6.0/extensions/atmel/armgcc/3.3.1.128/armgcctoolchain/bin/../lib/gcc/arm-none-eabi/4.7.0/../../../../arm-none-eabi/lib/thumb\libc.a(lib_a-wcrtomb.o)
 .bss           0x00000000        0x0 c:/program files (x86)/atmel/atmel studio 6.0/extensions/atmel/armgcc/3.3.1.128/armgcctoolchain/bin/../lib/gcc/arm-none-eabi/4.7.0/../../../../arm-none-eabi/lib/thumb\libc.a(lib_a-wcrtomb.o)
 .bss           0x00000000        0x0 c:/program files (x86)/atmel/atmel studio 6.0/extensions/atmel/armgcc/3.3.1.128/armgcctoolchain/bin/../lib/gcc/arm-none-eabi/4.7.0/../../../../arm-none-eabi/lib/thumb\libc.a(lib_a-wctomb_r.o)
 .data          0x00000000        0x0 c:/program files (x86)/atmel/atmel studio 6.0/extensions/atmel/armgcc/3.3.1.128/armgcctoolchain/bin/../lib/gcc/arm-none-eabi/4.7.0/../../../../arm-none-eabi/lib/thumb\libc.a(lib_a-writer.o)
 .bss           0x00000000        0x0 c:/program files (x86)/atmel/atmel studio 6.0/extensions/atmel/armgcc/3.3.1.128/armgcctoolchain/bin/../lib/gcc/arm-none-eabi/4.7.0/../../../../arm-none-eabi/lib/thumb\libc.a(lib_a-writer.o)
 .data          0x00000000        0x0 c:/program files (x86)/atmel/atmel studio 6.0/extensions/atmel/armgcc/3.3.1.128/armgcctoolchain/bin/../lib/gcc/arm-none-eabi/4.7.0/../../../../arm-none-eabi/lib/thumb\libc.a(lib_a-closer.o)
 .bss           0x00000000        0x0 c:/program files (x86)/atmel/atmel studio 6.0/extensions/atmel/armgcc/3.3.1.128/armgcctoolchain/bin/../lib/gcc/arm-none-eabi/4.7.0/../../../../arm-none-eabi/lib/thumb\libc.a(lib_a-closer.o)
 .data          0x00000000        0x0 c:/program files (x86)/atmel/atmel studio 6.0/extensions/atmel/armgcc/3.3.1.128/armgcctoolchain/bin/../lib/gcc/arm-none-eabi/4.7.0/../../../../arm-none-eabi/lib/thumb\libc.a(lib_a-fclose.o)
 .bss           0x00000000        0x0 c:/program files (x86)/atmel/atmel studio 6.0/extensions/atmel/armgcc/3.3.1.128/armgcctoolchain/bin/../lib/gcc/arm-none-eabi/4.7.0/../../../../arm-none-eabi/lib/thumb\libc.a(lib_a-fclose.o)
 .data          0x00000000        0x0 c:/program files (x86)/atmel/atmel studio 6.0/extensions/atmel/armgcc/3.3.1.128/armgcctoolchain/bin/../lib/gcc/arm-none-eabi/4.7.0/../../../../arm-none-eabi/lib/thumb\libc.a(lib_a-fstatr.o)
 .bss           0x00000000        0x0 c:/program files (x86)/atmel/atmel studio 6.0/extensions/atmel/armgcc/3.3.1.128/armgcctoolchain/bin/../lib/gcc/arm-none-eabi/4.7.0/../../../../arm-none-eabi/lib/thumb\libc.a(lib_a-fstatr.o)
 .data          0x00000000        0x0 c:/program files (x86)/atmel/atmel studio 6.0/extensions/atmel/armgcc/3.3.1.128/armgcctoolchain/bin/../lib/gcc/arm-none-eabi/4.7.0/../../../../arm-none-eabi/lib/thumb\libc.a(lib_a-isattyr.o)
 .bss           0x00000000        0x0 c:/program files (x86)/atmel/atmel studio 6.0/extensions/atmel/armgcc/3.3.1.128/armgcctoolchain/bin/../lib/gcc/arm-none-eabi/4.7.0/../../../../arm-none-eabi/lib/thumb\libc.a(lib_a-isattyr.o)
 .data          0x00000000        0x0 c:/program files (x86)/atmel/atmel studio 6.0/extensions/atmel/armgcc/3.3.1.128/armgcctoolchain/bin/../lib/gcc/arm-none-eabi/4.7.0/../../../../arm-none-eabi/lib/thumb\libc.a(lib_a-lseekr.o)
 .bss           0x00000000        0x0 c:/program files (x86)/atmel/atmel studio 6.0/extensions/atmel/armgcc/3.3.1.128/armgcctoolchain/bin/../lib/gcc/arm-none-eabi/4.7.0/../../../../arm-none-eabi/lib/thumb\libc.a(lib_a-lseekr.o)
 .data          0x00000000        0x0 c:/program files (x86)/atmel/atmel studio 6.0/extensions/atmel/armgcc/3.3.1.128/armgcctoolchain/bin/../lib/gcc/arm-none-eabi/4.7.0/../../../../arm-none-eabi/lib/thumb\libc.a(lib_a-readr.o)
 .bss           0x00000000        0x0 c:/program files (x86)/atmel/atmel studio 6.0/extensions/atmel/armgcc/3.3.1.128/armgcctoolchain/bin/../lib/gcc/arm-none-eabi/4.7.0/../../../../arm-none-eabi/lib/thumb\libc.a(lib_a-readr.o)
 .text          0x00000000       0xd4 c:/program files (x86)/atmel/atmel studio 6.0/extensions/atmel/armgcc/3.3.1.128/armgcctoolchain/bin/../lib/gcc/arm-none-eabi/4.7.0/../../../../arm-none-eabi/lib/thumb\libc.a(lib_a-reent.o)
 .data          0x00000000        0x0 c:/program files (x86)/atmel/atmel studio 6.0/extensions/atmel/armgcc/3.3.1.128/armgcctoolchain/bin/../lib/gcc/arm-none-eabi/4.7.0/../../../../arm-none-eabi/lib/thumb\libc.a(lib_a-reent.o)
 .bss           0x00000000        0x0 c:/program files (x86)/atmel/atmel studio 6.0/extensions/atmel/armgcc/3.3.1.128/armgcctoolchain/bin/../lib/gcc/arm-none-eabi/4.7.0/../../../../arm-none-eabi/lib/thumb\libc.a(lib_a-reent.o)
 .data          0x00000000        0x0 c:/program files (x86)/atmel/atmel studio 6.0/extensions/atmel/armgcc/3.3.1.128/armgcctoolchain/bin/../lib/gcc/arm-none-eabi/4.7.0/thumb\libgcc.a(_aeabi_uldivmod.o)
 .bss           0x00000000        0x0 c:/program files (x86)/atmel/atmel studio 6.0/extensions/atmel/armgcc/3.3.1.128/armgcctoolchain/bin/../lib/gcc/arm-none-eabi/4.7.0/thumb\libgcc.a(_aeabi_uldivmod.o)
 .data          0x00000000        0x0 c:/program files (x86)/atmel/atmel studio 6.0/extensions/atmel/armgcc/3.3.1.128/armgcctoolchain/bin/../lib/gcc/arm-none-eabi/4.7.0/thumb\libgcc.a(bpabi.o)
 .bss           0x00000000        0x0 c:/program files (x86)/atmel/atmel studio 6.0/extensions/atmel/armgcc/3.3.1.128/armgcctoolchain/bin/../lib/gcc/arm-none-eabi/4.7.0/thumb\libgcc.a(bpabi.o)
 .data          0x00000000        0x0 c:/program files (x86)/atmel/atmel studio 6.0/extensions/atmel/armgcc/3.3.1.128/armgcctoolchain/bin/../lib/gcc/arm-none-eabi/4.7.0/thumb\libgcc.a(_dvmd_tls.o)
 .bss           0x00000000        0x0 c:/program files (x86)/atmel/atmel studio 6.0/extensions/atmel/armgcc/3.3.1.128/armgcctoolchain/bin/../lib/gcc/arm-none-eabi/4.7.0/thumb\libgcc.a(_dvmd_tls.o)
 .data          0x00000000        0x0 c:/program files (x86)/atmel/atmel studio 6.0/extensions/atmel/armgcc/3.3.1.128/armgcctoolchain/bin/../lib/gcc/arm-none-eabi/4.7.0/thumb\libgcc.a(_divdi3.o)
 .bss           0x00000000        0x0 c:/program files (x86)/atmel/atmel studio 6.0/extensions/atmel/armgcc/3.3.1.128/armgcctoolchain/bin/../lib/gcc/arm-none-eabi/4.7.0/thumb\libgcc.a(_divdi3.o)
 .ARM.extab     0x00000000        0x0 c:/program files (x86)/atmel/atmel studio 6.0/extensions/atmel/armgcc/3.3.1.128/armgcctoolchain/bin/../lib/gcc/arm-none-eabi/4.7.0/thumb\libgcc.a(_divdi3.o)
 .data          0x00000000        0x0 c:/program files (x86)/atmel/atmel studio 6.0/extensions/atmel/armgcc/3.3.1.128/armgcctoolchain/bin/../lib/gcc/arm-none-eabi/4.7.0/thumb\libgcc.a(_udivdi3.o)
 .bss           0x00000000        0x0 c:/program files (x86)/atmel/atmel studio 6.0/extensions/atmel/armgcc/3.3.1.128/armgcctoolchain/bin/../lib/gcc/arm-none-eabi/4.7.0/thumb\libgcc.a(_udivdi3.o)
 .ARM.extab     0x00000000        0x0 c:/program files (x86)/atmel/atmel studio 6.0/extensions/atmel/armgcc/3.3.1.128/armgcctoolchain/bin/../lib/gcc/arm-none-eabi/4.7.0/thumb\libgcc.a(_udivdi3.o)
 .data          0x00000000        0x0 c:/program files (x86)/atmel/atmel studio 6.0/extensions/atmel/armgcc/3.3.1.128/armgcctoolchain/bin/../lib/gcc/arm-none-eabi/4.7.0/thumb\libgcc.a(unwind-arm.o)
 .bss           0x00000000        0x0 c:/program files (x86)/atmel/atmel studio 6.0/extensions/atmel/armgcc/3.3.1.128/armgcctoolchain/bin/../lib/gcc/arm-none-eabi/4.7.0/thumb\libgcc.a(unwind-arm.o)
 .debug_info    0x00000000     0x1d1f c:/program files (x86)/atmel/atmel studio 6.0/extensions/atmel/armgcc/3.3.1.128/armgcctoolchain/bin/../lib/gcc/arm-none-eabi/4.7.0/thumb\libgcc.a(unwind-arm.o)
 .debug_abbrev  0x00000000      0x48f c:/program files (x86)/atmel/atmel studio 6.0/extensions/atmel/armgcc/3.3.1.128/armgcctoolchain/bin/../lib/gcc/arm-none-eabi/4.7.0/thumb\libgcc.a(unwind-arm.o)
 .debug_loc     0x00000000     0x17f9 c:/program files (x86)/atmel/atmel studio 6.0/extensions/atmel/armgcc/3.3.1.128/armgcctoolchain/bin/../lib/gcc/arm-none-eabi/4.7.0/thumb\libgcc.a(unwind-arm.o)
 .debug_aranges
                0x00000000       0x20 c:/program files (x86)/atmel/atmel studio 6.0/extensions/atmel/armgcc/3.3.1.128/armgcctoolchain/bin/../lib/gcc/arm-none-eabi/4.7.0/thumb\libgcc.a(unwind-arm.o)
 .debug_ranges  0x00000000      0x158 c:/program files (x86)/atmel/atmel studio 6.0/extensions/atmel/armgcc/3.3.1.128/armgcctoolchain/bin/../lib/gcc/arm-none-eabi/4.7.0/thumb\libgcc.a(unwind-arm.o)
 .debug_line    0x00000000      0x5dd c:/program files (x86)/atmel/atmel studio 6.0/extensions/atmel/armgcc/3.3.1.128/armgcctoolchain/bin/../lib/gcc/arm-none-eabi/4.7.0/thumb\libgcc.a(unwind-arm.o)
 .debug_str     0x00000000      0xbd6 c:/program files (x86)/atmel/atmel studio 6.0/extensions/atmel/armgcc/3.3.1.128/armgcctoolchain/bin/../lib/gcc/arm-none-eabi/4.7.0/thumb\libgcc.a(unwind-arm.o)
 .comment       0x00000000       0x34 c:/program files (x86)/atmel/atmel studio 6.0/extensions/atmel/armgcc/3.3.1.128/armgcctoolchain/bin/../lib/gcc/arm-none-eabi/4.7.0/thumb\libgcc.a(unwind-arm.o)
 .ARM.attributes
                0x00000000       0x2d c:/program files (x86)/atmel/atmel studio 6.0/extensions/atmel/armgcc/3.3.1.128/armgcctoolchain/bin/../lib/gcc/arm-none-eabi/4.7.0/thumb\libgcc.a(unwind-arm.o)
 .debug_frame   0x00000000      0x29c c:/program files (x86)/atmel/atmel studio 6.0/extensions/atmel/armgcc/3.3.1.128/armgcctoolchain/bin/../lib/gcc/arm-none-eabi/4.7.0/thumb\libgcc.a(unwind-arm.o)
 .data          0x00000000        0x0 c:/program files (x86)/atmel/atmel studio 6.0/extensions/atmel/armgcc/3.3.1.128/armgcctoolchain/bin/../lib/gcc/arm-none-eabi/4.7.0/thumb\libgcc.a(libunwind.o)
 .bss           0x00000000        0x0 c:/program files (x86)/atmel/atmel studio 6.0/extensions/atmel/armgcc/3.3.1.128/armgcctoolchain/bin/../lib/gcc/arm-none-eabi/4.7.0/thumb\libgcc.a(libunwind.o)
 .ARM.attributes
                0x00000000       0x1d c:/program files (x86)/atmel/atmel studio 6.0/extensions/atmel/armgcc/3.3.1.128/armgcctoolchain/bin/../lib/gcc/arm-none-eabi/4.7.0/thumb\libgcc.a(libunwind.o)
 .debug_line    0x00000000       0xec c:/program files (x86)/atmel/atmel studio 6.0/extensions/atmel/armgcc/3.3.1.128/armgcctoolchain/bin/../lib/gcc/arm-none-eabi/4.7.0/thumb\libgcc.a(libunwind.o)
 .debug_info    0x00000000      0x112 c:/program files (x86)/atmel/atmel studio 6.0/extensions/atmel/armgcc/3.3.1.128/armgcctoolchain/bin/../lib/gcc/arm-none-eabi/4.7.0/thumb\libgcc.a(libunwind.o)
 .debug_abbrev  0x00000000       0x14 c:/program files (x86)/atmel/atmel studio 6.0/extensions/atmel/armgcc/3.3.1.128/armgcctoolchain/bin/../lib/gcc/arm-none-eabi/4.7.0/thumb\libgcc.a(libunwind.o)
 .debug_aranges
                0x00000000       0x20 c:/program files (x86)/atmel/atmel studio 6.0/extensions/atmel/armgcc/3.3.1.128/armgcctoolchain/bin/../lib/gcc/arm-none-eabi/4.7.0/thumb\libgcc.a(libunwind.o)
 .data          0x00000000        0x0 c:/program files (x86)/atmel/atmel studio 6.0/extensions/atmel/armgcc/3.3.1.128/armgcctoolchain/bin/../lib/gcc/arm-none-eabi/4.7.0/thumb\libgcc.a(pr-support.o)
 .bss           0x00000000        0x0 c:/program files (x86)/atmel/atmel studio 6.0/extensions/atmel/armgcc/3.3.1.128/armgcctoolchain/bin/../lib/gcc/arm-none-eabi/4.7.0/thumb\libgcc.a(pr-support.o)
 .debug_info    0x00000000      0xa56 c:/program files (x86)/atmel/atmel studio 6.0/extensions/atmel/armgcc/3.3.1.128/armgcctoolchain/bin/../lib/gcc/arm-none-eabi/4.7.0/thumb\libgcc.a(pr-support.o)
 .debug_abbrev  0x00000000      0x25b c:/program files (x86)/atmel/atmel studio 6.0/extensions/atmel/armgcc/3.3.1.128/armgcctoolchain/bin/../lib/gcc/arm-none-eabi/4.7.0/thumb\libgcc.a(pr-support.o)
 .debug_loc     0x00000000      0x67f c:/program files (x86)/atmel/atmel studio 6.0/extensions/atmel/armgcc/3.3.1.128/armgcctoolchain/bin/../lib/gcc/arm-none-eabi/4.7.0/thumb\libgcc.a(pr-support.o)
 .debug_aranges
                0x00000000       0x20 c:/program files (x86)/atmel/atmel studio 6.0/extensions/atmel/armgcc/3.3.1.128/armgcctoolchain/bin/../lib/gcc/arm-none-eabi/4.7.0/thumb\libgcc.a(pr-support.o)
 .debug_ranges  0x00000000       0x50 c:/program files (x86)/atmel/atmel studio 6.0/extensions/atmel/armgcc/3.3.1.128/armgcctoolchain/bin/../lib/gcc/arm-none-eabi/4.7.0/thumb\libgcc.a(pr-support.o)
 .debug_line    0x00000000      0x23e c:/program files (x86)/atmel/atmel studio 6.0/extensions/atmel/armgcc/3.3.1.128/armgcctoolchain/bin/../lib/gcc/arm-none-eabi/4.7.0/thumb\libgcc.a(pr-support.o)
 .debug_str     0x00000000      0x4da c:/program files (x86)/atmel/atmel studio 6.0/extensions/atmel/armgcc/3.3.1.128/armgcctoolchain/bin/../lib/gcc/arm-none-eabi/4.7.0/thumb\libgcc.a(pr-support.o)
 .comment       0x00000000       0x34 c:/program files (x86)/atmel/atmel studio 6.0/extensions/atmel/armgcc/3.3.1.128/armgcctoolchain/bin/../lib/gcc/arm-none-eabi/4.7.0/thumb\libgcc.a(pr-support.o)
 .ARM.attributes
                0x00000000       0x2d c:/program files (x86)/atmel/atmel studio 6.0/extensions/atmel/armgcc/3.3.1.128/armgcctoolchain/bin/../lib/gcc/arm-none-eabi/4.7.0/thumb\libgcc.a(pr-support.o)
 .debug_frame   0x00000000       0xe8 c:/program files (x86)/atmel/atmel studio 6.0/extensions/atmel/armgcc/3.3.1.128/armgcctoolchain/bin/../lib/gcc/arm-none-eabi/4.7.0/thumb\libgcc.a(pr-support.o)
 .text          0x00000000        0x0 c:/program files (x86)/atmel/atmel studio 6.0/extensions/atmel/armgcc/3.3.1.128/armgcctoolchain/bin/../lib/gcc/arm-none-eabi/4.7.0/thumb/crtend.o
 .data          0x00000000        0x0 c:/program files (x86)/atmel/atmel studio 6.0/extensions/atmel/armgcc/3.3.1.128/armgcctoolchain/bin/../lib/gcc/arm-none-eabi/4.7.0/thumb/crtend.o
 .bss           0x00000000        0x0 c:/program files (x86)/atmel/atmel studio 6.0/extensions/atmel/armgcc/3.3.1.128/armgcctoolchain/bin/../lib/gcc/arm-none-eabi/4.7.0/thumb/crtend.o
 .eh_frame      0x00000000        0x4 c:/program files (x86)/atmel/atmel studio 6.0/extensions/atmel/armgcc/3.3.1.128/armgcctoolchain/bin/../lib/gcc/arm-none-eabi/4.7.0/thumb/crtend.o
 .jcr           0x00000000        0x4 c:/program files (x86)/atmel/atmel studio 6.0/extensions/atmel/armgcc/3.3.1.128/armgcctoolchain/bin/../lib/gcc/arm-none-eabi/4.7.0/thumb/crtend.o
 .text          0x00000000        0x0 c:/program files (x86)/atmel/atmel studio 6.0/extensions/atmel/armgcc/3.3.1.128/armgcctoolchain/bin/../lib/gcc/arm-none-eabi/4.7.0/thumb/crtn.o
 .data          0x00000000        0x0 c:/program files (x86)/atmel/atmel studio 6.0/extensions/atmel/armgcc/3.3.1.128/armgcctoolchain/bin/../lib/gcc/arm-none-eabi/4.7.0/thumb/crtn.o
 .bss           0x00000000        0x0 c:/program files (x86)/atmel/atmel studio 6.0/extensions/atmel/armgcc/3.3.1.128/armgcctoolchain/bin/../lib/gcc/arm-none-eabi/4.7.0/thumb/crtn.o

Memory Configuration

Name             Origin             Length             Attributes
rom              0x00400000         0x00080000         xr
ram              0x20000000         0x00010000         xrw
*default*        0x00000000         0xffffffff

Linker script and memory map

LOAD c:/program files (x86)/atmel/atmel studio 6.0/extensions/atmel/armgcc/3.3.1.128/armgcctoolchain/bin/../lib/gcc/arm-none-eabi/4.7.0/thumb/crti.o
LOAD c:/program files (x86)/atmel/atmel studio 6.0/extensions/atmel/armgcc/3.3.1.128/armgcctoolchain/bin/../lib/gcc/arm-none-eabi/4.7.0/thumb/crtbegin.o
LOAD c:/program files (x86)/atmel/atmel studio 6.0/extensions/atmel/armgcc/3.3.1.128/armgcctoolchain/bin/../lib/gcc/arm-none-eabi/4.7.0/../../../../arm-none-eabi/lib/thumb/crt0.o
LOAD src/asf/sam/drivers/chipid/chipid.o
LOAD src/asf/sam/drivers/pwm/pwm.o
LOAD src/asf/sam/drivers/twi/twi.o
LOAD src/asf/sam/utils/cmsis/sam3s8/source/templates/exceptions.o
LOAD src/asf/sam/utils/cmsis/sam3s8/source/templates/gcc/startup_sam3sd8.o
LOAD src/asf/sam/utils/cmsis/sam3s8/source/templates/system_sam3sd8.o
LOAD src/I2CdevWrapper.o
LOAD src/MPU9150.o
LOAD src/pwmb.o
LOAD src/rtc.o
LOAD src/zeppelin_fc.o
LOAD src/asf/common/components/memory/sd_mmc/sd_mmc.o
LOAD src/asf/common/services/clock/sam3s/sysclk.o
LOAD src/asf/common/services/delay/sam/cycle_counter.o
LOAD src/asf/common/services/sleepmgr/sam/sleepmgr.o
LOAD src/asf/common/services/storage/ctrl_access/ctrl_access.o
LOAD src/asf/common/services/usb/class/cdc/device/udi_cdc.o
LOAD src/asf/common/services/usb/class/cdc/device/udi_cdc_desc.o
LOAD src/asf/common/services/usb/udc/udc.o
LOAD src/asf/common/utils/interrupt/interrupt_sam_nvic.o
LOAD src/asf/common/utils/stdio/read.o
LOAD src/asf/common/utils/stdio/stdio_usb/stdio_usb.o
LOAD src/asf/common/utils/stdio/write.o
LOAD src/asf/sam/boards/sam3s_ek/init.o
LOAD src/asf/sam/drivers/efc/efc.o
LOAD src/asf/sam/drivers/hsmci/hsmci.o
LOAD src/asf/sam/drivers/pdc/pdc.o
LOAD src/asf/sam/drivers/pio/pio.o
LOAD src/asf/sam/drivers/pio/pio_handler.o
LOAD src/asf/sam/drivers/pmc/pmc.o
LOAD src/asf/sam/drivers/rtc/rtc.o
LOAD src/asf/sam/drivers/udp/udp_device.o
LOAD src/asf/sam/services/flash_efc/flash_efc.o
LOAD src/asf/sam/utils/syscalls/gcc/syscalls.o
LOAD src/asf/thirdparty/fatfs/fatfs-port-r0.09/diskio.o
LOAD src/asf/thirdparty/fatfs/fatfs-port-r0.09/sam/fattime.o
LOAD src/asf/thirdparty/fatfs/fatfs-r0.09/src/ff.o
LOAD src/asf/thirdparty/fatfs/fatfs-r0.09/src/option/ccsbcs.o
LOAD src/sd_mmc_mem.o
LOAD src/stdio_usb_example.o
START GROUP
LOAD c:/program files (x86)/atmel/atmel studio 6.0/extensions/atmel/armgcc/3.3.1.128/armgcctoolchain/bin/../lib/gcc/arm-none-eabi/4.7.0/../../../../arm-none-eabi/lib/thumb\libm.a
END GROUP
START GROUP
LOAD c:/program files (x86)/atmel/atmel studio 6.0/extensions/atmel/armgcc/3.3.1.128/armgcctoolchain/bin/../lib/gcc/arm-none-eabi/4.7.0/thumb\libgcc.a
LOAD c:/program files (x86)/atmel/atmel studio 6.0/extensions/atmel/armgcc/3.3.1.128/armgcctoolchain/bin/../lib/gcc/arm-none-eabi/4.7.0/../../../../arm-none-eabi/lib/thumb\libc.a
END GROUP
LOAD c:/program files (x86)/atmel/atmel studio 6.0/extensions/atmel/armgcc/3.3.1.128/armgcctoolchain/bin/../lib/gcc/arm-none-eabi/4.7.0/thumb/crtend.o
LOAD c:/program files (x86)/atmel/atmel studio 6.0/extensions/atmel/armgcc/3.3.1.128/armgcctoolchain/bin/../lib/gcc/arm-none-eabi/4.7.0/thumb/crtn.o
                [0x00002000]                __stack_size__ = DEFINED (__stack_size__)?__stack_size__:0x2000

.text           0x00400000     0xbc44
                0x00400000                . = ALIGN (0x4)
                0x00400000                _sfixed = .
 *(.vectors .vectors.*)
 .vectors       0x00400000       0xd0 src/asf/sam/utils/cmsis/sam3s8/source/templates/gcc/startup_sam3sd8.o
                0x00400000                exception_table
 *(.text .text.* .gnu.linkonce.t.*)
 .text          0x004000d0       0xb0 c:/program files (x86)/atmel/atmel studio 6.0/extensions/atmel/armgcc/3.3.1.128/armgcctoolchain/bin/../lib/gcc/arm-none-eabi/4.7.0/thumb/crtbegin.o
 .text.pwm_clocks_generate
                0x00400180       0x5c src/asf/sam/drivers/pwm/pwm.o
 .text.pwm_init
                0x004001dc       0x3c src/asf/sam/drivers/pwm/pwm.o
                0x004001dc                pwm_init
 .text.pwm_channel_init
                0x00400218       0xca src/asf/sam/drivers/pwm/pwm.o
                0x00400218                pwm_channel_init
 .text.pwm_channel_update_duty
                0x004002e2       0x1e src/asf/sam/drivers/pwm/pwm.o
                0x004002e2                pwm_channel_update_duty
 .text.pwm_channel_enable
                0x00400300        0xa src/asf/sam/drivers/pwm/pwm.o
                0x00400300                pwm_channel_enable
 .text.pwm_channel_disable
                0x0040030a        0xa src/asf/sam/drivers/pwm/pwm.o
                0x0040030a                pwm_channel_disable
 .text.pwm_channel_get_interrupt_status
                0x00400314        0x4 src/asf/sam/drivers/pwm/pwm.o
                0x00400314                pwm_channel_get_interrupt_status
 .text.pwm_channel_enable_interrupt
                0x00400318       0x12 src/asf/sam/drivers/pwm/pwm.o
                0x00400318                pwm_channel_enable_interrupt
 .text.Dummy_Handler
                0x0040032a        0x2 src/asf/sam/utils/cmsis/sam3s8/source/templates/exceptions.o
                0x0040032a                DACC_Handler
                0x0040032a                DebugMon_Handler
                0x0040032a                HardFault_Handler
                0x0040032a                TC2_Handler
                0x0040032a                SPI_Handler
                0x0040032a                TWI1_Handler
                0x0040032a                PendSV_Handler
                0x0040032a                NMI_Handler
                0x0040032a                ADC_Handler
                0x0040032a                CRCCU_Handler
                0x0040032a                USART0_Handler
                0x0040032a                RTT_Handler
                0x0040032a                UsageFault_Handler
                0x0040032a                WDT_Handler
                0x0040032a                TC1_Handler
                0x0040032a                HSMCI_Handler
                0x0040032a                UART1_Handler
                0x0040032a                Dummy_Handler
                0x0040032a                TWI0_Handler
                0x0040032a                USART1_Handler
                0x0040032a                SSC_Handler
                0x0040032a                ACC_Handler
                0x0040032a                PMC_Handler
                0x0040032a                MemManage_Handler
                0x0040032a                SUPC_Handler
                0x0040032a                SVC_Handler
                0x0040032a                EFC_Handler
                0x0040032a                UART0_Handler
                0x0040032a                BusFault_Handler
                0x0040032a                RSTC_Handler
                0x0040032a                TC0_Handler
 .text.Reset_Handler
                0x0040032c       0x7c src/asf/sam/utils/cmsis/sam3s8/source/templates/gcc/startup_sam3sd8.o
                0x0040032c                Reset_Handler
 .text.SystemCoreClockUpdate
                0x004003a8       0xd8 src/asf/sam/utils/cmsis/sam3s8/source/templates/system_sam3sd8.o
                0x004003a8                SystemCoreClockUpdate
 .text.system_init_flash
                0x00400480       0x3c src/asf/sam/utils/cmsis/sam3s8/source/templates/system_sam3sd8.o
                0x00400480                system_init_flash
 .text.PWM_init
                0x004004bc       0x90 src/pwmb.o
                0x004004bc                PWM_init
 .text.PWM_Handler
                0x0040054c       0x80 src/pwmb.o
                0x0040054c                PWM_Handler
 .text.Beep     0x004005cc       0x48 src/pwmb.o
                0x004005cc                Beep
 .text.RTC_Handler
                0x00400614       0x60 src/rtc.o
                0x00400614                RTC_Handler
 .text.SysTick_Handler
                0x00400674       0x10 src/zeppelin_fc.o
                0x00400674                SysTick_Handler
 .text.ZP_Init  0x00400684      0x170 src/zeppelin_fc.o
                0x00400684                ZP_Init
 .text.ZP_Button
                0x004007f4       0x54 src/zeppelin_fc.o
                0x004007f4                ZP_Button
 .text.ZP_CreateLogFile
                0x00400848      0x110 src/zeppelin_fc.o
                0x00400848                ZP_CreateLogFile
 .text.ZP_ButtonHandler
                0x00400958       0x90 src/zeppelin_fc.o
                0x00400958                ZP_ButtonHandler
 .text.ZP_Loop  0x004009e8        0xc src/zeppelin_fc.o
                0x004009e8                ZP_Loop
 .text.SDMMC_UNSTUFF_BITS
                0x004009f4       0x4e src/asf/common/components/memory/sd_mmc/sd_mmc.o
 *fill*         0x00400a42        0x2 00
 .text.sd_mmc_deselect_slot
                0x00400a44       0x18 src/asf/common/components/memory/sd_mmc/sd_mmc.o
 .text.sd_mmc_configure_slot
                0x00400a5c       0x2c src/asf/common/components/memory/sd_mmc/sd_mmc.o
 .text.sd_mmc_select_slot
                0x00400a88       0xe0 src/asf/common/components/memory/sd_mmc/sd_mmc.o
 .text.sd_mmc_cmd9_mci
                0x00400b68       0x2c src/asf/common/components/memory/sd_mmc/sd_mmc.o
 .text.sd_mmc_init
                0x00400b94       0x2c src/asf/common/components/memory/sd_mmc/sd_mmc.o
                0x00400b94                sd_mmc_init
 .text.sd_mmc_check
                0x00400bc0      0x6e8 src/asf/common/components/memory/sd_mmc/sd_mmc.o
                0x00400bc0                sd_mmc_check
 .text.sd_mmc_get_type
                0x004012a8       0x24 src/asf/common/components/memory/sd_mmc/sd_mmc.o
                0x004012a8                sd_mmc_get_type
 .text.sd_mmc_get_capacity
                0x004012cc       0x24 src/asf/common/components/memory/sd_mmc/sd_mmc.o
                0x004012cc                sd_mmc_get_capacity
 .text.sd_mmc_is_write_protected
                0x004012f0        0x4 src/asf/common/components/memory/sd_mmc/sd_mmc.o
                0x004012f0                sd_mmc_is_write_protected
 .text.sd_mmc_init_read_blocks
                0x004012f4       0xf0 src/asf/common/components/memory/sd_mmc/sd_mmc.o
                0x004012f4                sd_mmc_init_read_blocks
 .text.sd_mmc_start_read_blocks
                0x004013e4       0x24 src/asf/common/components/memory/sd_mmc/sd_mmc.o
                0x004013e4                sd_mmc_start_read_blocks
 .text.sd_mmc_wait_end_of_read_blocks
                0x00401408       0x50 src/asf/common/components/memory/sd_mmc/sd_mmc.o
                0x00401408                sd_mmc_wait_end_of_read_blocks
 .text.sd_mmc_init_write_blocks
                0x00401458       0xa4 src/asf/common/components/memory/sd_mmc/sd_mmc.o
                0x00401458                sd_mmc_init_write_blocks
 .text.sd_mmc_start_write_blocks
                0x004014fc       0x24 src/asf/common/components/memory/sd_mmc/sd_mmc.o
                0x004014fc                sd_mmc_start_write_blocks
 .text.sd_mmc_wait_end_of_write_blocks
                0x00401520       0x48 src/asf/common/components/memory/sd_mmc/sd_mmc.o
                0x00401520                sd_mmc_wait_end_of_write_blocks
 .text.osc_enable
                0x00401568       0x48 src/asf/common/services/clock/sam3s/sysclk.o
 .text.osc_wait_ready.constprop.5
                0x004015b0       0x10 src/asf/common/services/clock/sam3s/sysclk.o
 .text.sysclk_enable_usb
                0x004015c0       0x4c src/asf/common/services/clock/sam3s/sysclk.o
                0x004015c0                sysclk_enable_usb
 .text.sysclk_init
                0x0040160c       0x58 src/asf/common/services/clock/sam3s/sysclk.o
                0x0040160c                sysclk_init
 .text.mem_test_unit_ready
                0x00401664       0x14 src/asf/common/services/storage/ctrl_access/ctrl_access.o
                0x00401664                mem_test_unit_ready
 .text.mem_read_capacity
                0x00401678       0x14 src/asf/common/services/storage/ctrl_access/ctrl_access.o
                0x00401678                mem_read_capacity
 .text.mem_sector_size
                0x0040168c        0xa src/asf/common/services/storage/ctrl_access/ctrl_access.o
                0x0040168c                mem_sector_size
 *fill*         0x00401696        0x2 00
 .text.mem_wr_protect
                0x00401698       0x14 src/asf/common/services/storage/ctrl_access/ctrl_access.o
                0x00401698                mem_wr_protect
 .text.memory_2_ram
                0x004016ac       0x18 src/asf/common/services/storage/ctrl_access/ctrl_access.o
                0x004016ac                memory_2_ram
 .text.ram_2_memory
                0x004016c4       0x18 src/asf/common/services/storage/ctrl_access/ctrl_access.o
                0x004016c4                ram_2_memory
 .text.cpu_irq_save
                0x004016dc       0x14 src/asf/common/services/usb/class/cdc/device/udi_cdc.o
 .text.udi_cdc_comm_disable
                0x004016f0       0x10 src/asf/common/services/usb/class/cdc/device/udi_cdc.o
                0x004016f0                udi_cdc_comm_disable
 .text.udi_cdc_data_setup
                0x00401700        0x4 src/asf/common/services/usb/class/cdc/device/udi_cdc.o
                0x00401700                udi_cdc_data_setup
 .text.udi_cdc_getsetting
                0x00401704        0x4 src/asf/common/services/usb/class/cdc/device/udi_cdc.o
                0x00401704                udi_cdc_getsetting
 .text.udi_cdc_line_coding_received
                0x00401708        0x2 src/asf/common/services/usb/class/cdc/device/udi_cdc.o
 *fill*         0x0040170a        0x2 00
 .text.udi_cdc_data_disable
                0x0040170c       0x28 src/asf/common/services/usb/class/cdc/device/udi_cdc.o
                0x0040170c                udi_cdc_data_disable
 .text.cpu_irq_restore
                0x00401734       0x14 src/asf/common/services/usb/class/cdc/device/udi_cdc.o
 .text.udi_cdc_comm_setup
                0x00401748       0x58 src/asf/common/services/usb/class/cdc/device/udi_cdc.o
                0x00401748                udi_cdc_comm_setup
 .text.udi_cdc_tx_send.isra.5
                0x004017a0       0xc8 src/asf/common/services/usb/class/cdc/device/udi_cdc.o
 .text.udi_cdc_data_sof_notify
                0x00401868        0xc src/asf/common/services/usb/class/cdc/device/udi_cdc.o
                0x00401868                udi_cdc_data_sof_notify
 .text.udi_cdc_data_sent
                0x00401874       0x38 src/asf/common/services/usb/class/cdc/device/udi_cdc.o
 .text.udi_cdc_comm_enable
                0x004018ac       0x60 src/asf/common/services/usb/class/cdc/device/udi_cdc.o
                0x004018ac                udi_cdc_comm_enable
 .text.udi_cdc_multi_is_rx_ready
                0x0040190c       0x3c src/asf/common/services/usb/class/cdc/device/udi_cdc.o
                0x0040190c                udi_cdc_multi_is_rx_ready
 .text.udi_cdc_rx_start.isra.9
                0x00401948       0x88 src/asf/common/services/usb/class/cdc/device/udi_cdc.o
 .text.udi_cdc_data_received
                0x004019d0       0x58 src/asf/common/services/usb/class/cdc/device/udi_cdc.o
 .text.udi_cdc_data_enable
                0x00401a28       0x88 src/asf/common/services/usb/class/cdc/device/udi_cdc.o
                0x00401a28                udi_cdc_data_enable
 .text.udi_cdc_multi_getc
                0x00401ab0       0x90 src/asf/common/services/usb/class/cdc/device/udi_cdc.o
                0x00401ab0                udi_cdc_multi_getc
 .text.udi_cdc_getc
                0x00401b40       0x10 src/asf/common/services/usb/class/cdc/device/udi_cdc.o
                0x00401b40                udi_cdc_getc
 .text.udi_cdc_multi_is_tx_ready
                0x00401b50       0x68 src/asf/common/services/usb/class/cdc/device/udi_cdc.o
                0x00401b50                udi_cdc_multi_is_tx_ready
 .text.udi_cdc_multi_putc
                0x00401bb8       0x80 src/asf/common/services/usb/class/cdc/device/udi_cdc.o
                0x00401bb8                udi_cdc_multi_putc
 .text.udi_cdc_putc
                0x00401c38       0x10 src/asf/common/services/usb/class/cdc/device/udi_cdc.o
                0x00401c38                udi_cdc_putc
 .text.udc_valid_address
                0x00401c48       0x18 src/asf/common/services/usb/udc/udc.o
 .text.udc_update_iface_desc
                0x00401c60       0x58 src/asf/common/services/usb/udc/udc.o
 .text.udc_next_desc_in_iface.constprop.3
                0x00401cb8       0x28 src/asf/common/services/usb/udc/udc.o
 .text.udc_iface_disable
                0x00401ce0       0x54 src/asf/common/services/usb/udc/udc.o
 .text.udc_iface_enable
                0x00401d34       0x50 src/asf/common/services/usb/udc/udc.o
 .text.udc_start
                0x00401d84        0xc src/asf/common/services/usb/udc/udc.o
                0x00401d84                udc_start
 .text.udc_reset
                0x00401d90       0x44 src/asf/common/services/usb/udc/udc.o
                0x00401d90                udc_reset
 .text.udc_sof_notify
                0x00401dd4       0x34 src/asf/common/services/usb/udc/udc.o
                0x00401dd4                udc_sof_notify
 .text.udc_process_setup
                0x00401e08      0x32c src/asf/common/services/usb/udc/udc.o
                0x00401e08                udc_process_setup
 .text._read    0x00402134       0x40 src/asf/common/utils/stdio/read.o
                0x00402134                _read
 .text.stdio_usb_getchar
                0x00402174       0x20 src/asf/common/utils/stdio/stdio_usb/stdio_usb.o
                0x00402174                stdio_usb_getchar
 .text.stdio_usb_putchar
                0x00402194       0x28 src/asf/common/utils/stdio/stdio_usb/stdio_usb.o
                0x00402194                stdio_usb_putchar
 .text.stdio_usb_enable
                0x004021bc        0xc src/asf/common/utils/stdio/stdio_usb/stdio_usb.o
                0x004021bc                stdio_usb_enable
 .text.stdio_usb_disable
                0x004021c8        0xc src/asf/common/utils/stdio/stdio_usb/stdio_usb.o
                0x004021c8                stdio_usb_disable
 .text.stdio_usb_init
                0x004021d4       0x60 src/asf/common/utils/stdio/stdio_usb/stdio_usb.o
                0x004021d4                stdio_usb_init
 .text._write   0x00402234       0x40 src/asf/common/utils/stdio/write.o
                0x00402234                _write
 .text.board_init
                0x00402274       0x68 src/asf/sam/boards/sam3s_ek/init.o
                0x00402274                board_init
 .text.hsmci_reset
                0x004022dc       0x24 src/asf/sam/drivers/hsmci/hsmci.o
 .text.hsmci_send_cmd_execute
                0x00402300       0x7c src/asf/sam/drivers/hsmci/hsmci.o
 .text.hsmci_init
                0x0040237c       0x28 src/asf/sam/drivers/hsmci/hsmci.o
                0x0040237c                hsmci_init
 .text.hsmci_get_bus_width
                0x004023a4        0xa src/asf/sam/drivers/hsmci/hsmci.o
                0x004023a4                hsmci_get_bus_width
 .text.hsmci_is_high_speed_capable
                0x004023ae        0x4 src/asf/sam/drivers/hsmci/hsmci.o
                0x004023ae                hsmci_is_high_speed_capable
 *fill*         0x004023b2        0x2 00
 .text.hsmci_select_device
                0x004023b4       0x64 src/asf/sam/drivers/hsmci/hsmci.o
                0x004023b4                hsmci_select_device
 .text.hsmci_deselect_device
                0x00402418        0x2 src/asf/sam/drivers/hsmci/hsmci.o
                0x00402418                hsmci_deselect_device
 .text.hsmci_send_clock
                0x0040241a       0x1e src/asf/sam/drivers/hsmci/hsmci.o
                0x0040241a                hsmci_send_clock
 .text.hsmci_send_cmd
                0x00402438       0x2c src/asf/sam/drivers/hsmci/hsmci.o
                0x00402438                hsmci_send_cmd
 .text.hsmci_get_response
                0x00402464        0x8 src/asf/sam/drivers/hsmci/hsmci.o
                0x00402464                hsmci_get_response
 .text.hsmci_get_response_128
                0x0040246c       0x22 src/asf/sam/drivers/hsmci/hsmci.o
                0x0040246c                hsmci_get_response_128
 *fill*         0x0040248e        0x2 00
 .text.hsmci_adtc_start
                0x00402490       0xac src/asf/sam/drivers/hsmci/hsmci.o
                0x00402490                hsmci_adtc_start
 .text.hsmci_read_word
                0x0040253c       0x60 src/asf/sam/drivers/hsmci/hsmci.o
                0x0040253c                hsmci_read_word
 .text.hsmci_start_read_blocks
                0x0040259c       0x3c src/asf/sam/drivers/hsmci/hsmci.o
                0x0040259c                hsmci_start_read_blocks
 .text.hsmci_wait_end_of_read_blocks
                0x004025d8       0x60 src/asf/sam/drivers/hsmci/hsmci.o
                0x004025d8                hsmci_wait_end_of_read_blocks
 .text.hsmci_start_write_blocks
                0x00402638       0x40 src/asf/sam/drivers/hsmci/hsmci.o
                0x00402638                hsmci_start_write_blocks
 .text.hsmci_wait_end_of_write_blocks
                0x00402678       0x64 src/asf/sam/drivers/hsmci/hsmci.o
                0x00402678                hsmci_wait_end_of_write_blocks
 .text.pio_set_peripheral
                0x004026dc       0x80 src/asf/sam/drivers/pio/pio.o
                0x004026dc                pio_set_peripheral
 .text.pio_set_input
                0x0040275c       0x2c src/asf/sam/drivers/pio/pio.o
                0x0040275c                pio_set_input
 .text.pio_set_output
                0x00402788       0x24 src/asf/sam/drivers/pio/pio.o
                0x00402788                pio_set_output
 .text.pio_get_interrupt_status
                0x004027ac        0x4 src/asf/sam/drivers/pio/pio.o
                0x004027ac                pio_get_interrupt_status
 .text.pio_get_interrupt_mask
                0x004027b0        0x4 src/asf/sam/drivers/pio/pio.o
                0x004027b0                pio_get_interrupt_mask
 .text.pio_set_pin_high
                0x004027b4       0x1a src/asf/sam/drivers/pio/pio.o
                0x004027b4                pio_set_pin_high
 *fill*         0x004027ce        0x2 00
 .text.pio_configure_pin
                0x004027d0       0xb0 src/asf/sam/drivers/pio/pio.o
                0x004027d0                pio_configure_pin
 .text.pio_handler_process
                0x00402880       0x4c src/asf/sam/drivers/pio/pio_handler.o
                0x00402880                pio_handler_process
 .text.PIOA_Handler
                0x004028cc       0x14 src/asf/sam/drivers/pio/pio_handler.o
                0x004028cc                PIOA_Handler
 .text.PIOB_Handler
                0x004028e0       0x14 src/asf/sam/drivers/pio/pio_handler.o
                0x004028e0                PIOB_Handler
 .text.pmc_switch_mck_to_pllack
                0x004028f4       0x48 src/asf/sam/drivers/pmc/pmc.o
                0x004028f4                pmc_switch_mck_to_pllack
 .text.pmc_switch_sclk_to_32kxtal
                0x0040293c       0x24 src/asf/sam/drivers/pmc/pmc.o
                0x0040293c                pmc_switch_sclk_to_32kxtal
 .text.pmc_switch_mainck_to_fastrc
                0x00402960       0x6c src/asf/sam/drivers/pmc/pmc.o
                0x00402960                pmc_switch_mainck_to_fastrc
 .text.pmc_switch_mainck_to_xtal
                0x004029cc       0x4c src/asf/sam/drivers/pmc/pmc.o
                0x004029cc                pmc_switch_mainck_to_xtal
 .text.pmc_osc_is_ready_mainck
                0x00402a18       0x10 src/asf/sam/drivers/pmc/pmc.o
                0x00402a18                pmc_osc_is_ready_mainck
 .text.pmc_disable_pllack
                0x00402a28       0x10 src/asf/sam/drivers/pmc/pmc.o
                0x00402a28                pmc_disable_pllack
 .text.pmc_is_locked_pllack
                0x00402a38       0x10 src/asf/sam/drivers/pmc/pmc.o
                0x00402a38                pmc_is_locked_pllack
 .text.pmc_disable_pllbck
                0x00402a48        0xc src/asf/sam/drivers/pmc/pmc.o
                0x00402a48                pmc_disable_pllbck
 .text.pmc_is_locked_pllbck
                0x00402a54       0x10 src/asf/sam/drivers/pmc/pmc.o
                0x00402a54                pmc_is_locked_pllbck
 .text.pmc_enable_periph_clk
                0x00402a64       0x44 src/asf/sam/drivers/pmc/pmc.o
                0x00402a64                pmc_enable_periph_clk
 .text.pmc_disable_periph_clk
                0x00402aa8       0x40 src/asf/sam/drivers/pmc/pmc.o
                0x00402aa8                pmc_disable_periph_clk
 .text.pmc_switch_udpck_to_pllbck
                0x00402ae8       0x14 src/asf/sam/drivers/pmc/pmc.o
                0x00402ae8                pmc_switch_udpck_to_pllbck
 .text.pmc_enable_udpck
                0x00402afc        0xc src/asf/sam/drivers/pmc/pmc.o
                0x00402afc                pmc_enable_udpck
 .text.pmc_set_fast_startup_input
                0x00402b08       0x18 src/asf/sam/drivers/pmc/pmc.o
                0x00402b08                pmc_set_fast_startup_input
 .text.rtc_set_hour_mode
                0x00402b20       0x12 src/asf/sam/drivers/rtc/rtc.o
                0x00402b20                rtc_set_hour_mode
 .text.rtc_enable_interrupt
                0x00402b32        0x4 src/asf/sam/drivers/rtc/rtc.o
                0x00402b32                rtc_enable_interrupt
 .text.rtc_disable_interrupt
                0x00402b36        0x4 src/asf/sam/drivers/rtc/rtc.o
                0x00402b36                rtc_disable_interrupt
 .text.rtc_get_time
                0x00402b3a       0x50 src/asf/sam/drivers/rtc/rtc.o
                0x00402b3a                rtc_get_time
 .text.rtc_get_date
                0x00402b8a       0x64 src/asf/sam/drivers/rtc/rtc.o
                0x00402b8a                rtc_get_date
 .text.rtc_get_status
                0x00402bee        0x4 src/asf/sam/drivers/rtc/rtc.o
                0x00402bee                rtc_get_status
 .text.rtc_clear_status
                0x00402bf2        0x4 src/asf/sam/drivers/rtc/rtc.o
                0x00402bf2                rtc_clear_status
 *fill*         0x00402bf6        0x2 00
 .text.cpu_irq_save
                0x00402bf8       0x14 src/asf/sam/drivers/udp/udp_device.o
 .text.udd_ctrl_init
                0x00402c0c       0x1c src/asf/sam/drivers/udp/udp_device.o
 .text.udd_ctrl_stall_data
                0x00402c28       0x40 src/asf/sam/drivers/udp/udp_device.o
 .text.udd_ctrl_send_zlp_in
                0x00402c68       0x40 src/asf/sam/drivers/udp/udp_device.o
 .text.udd_ctrl_endofrequest
                0x00402ca8       0x10 src/asf/sam/drivers/udp/udp_device.o
 .text.udd_ep_ack_out_received
                0x00402cb8       0x80 src/asf/sam/drivers/udp/udp_device.o
 .text.udd_ep_in_sent
                0x00402d38      0x168 src/asf/sam/drivers/udp/udp_device.o
 .text.cpu_irq_restore
                0x00402ea0       0x14 src/asf/sam/drivers/udp/udp_device.o
 .text.udd_sleep_mode
                0x00402eb4       0x44 src/asf/sam/drivers/udp/udp_device.o
 .text.udd_ctrl_in_sent
                0x00402ef8      0x1ac src/asf/sam/drivers/udp/udp_device.o
 .text.udd_ep_finish_job
                0x004030a4       0x3c src/asf/sam/drivers/udp/udp_device.o
 .text.UDP_Handler
                0x004030e0      0x7b8 src/asf/sam/drivers/udp/udp_device.o
                0x004030e0                UDP_Handler
 .text.udd_include_vbus_monitoring
                0x00403898        0x4 src/asf/sam/drivers/udp/udp_device.o
                0x00403898                udd_include_vbus_monitoring
 .text.udd_enable
                0x0040389c       0x84 src/asf/sam/drivers/udp/udp_device.o
                0x0040389c                udd_enable
 .text.udd_attach
                0x00403920       0x60 src/asf/sam/drivers/udp/udp_device.o
                0x00403920                udd_attach
 .text.udd_is_high_speed
                0x00403980        0x4 src/asf/sam/drivers/udp/udp_device.o
                0x00403980                udd_is_high_speed
 .text.udd_set_address
                0x00403984       0x38 src/asf/sam/drivers/udp/udp_device.o
                0x00403984                udd_set_address
 .text.udd_getaddress
                0x004039bc       0x18 src/asf/sam/drivers/udp/udp_device.o
                0x004039bc                udd_getaddress
 .text.udd_get_frame_number
                0x004039d4       0x10 src/asf/sam/drivers/udp/udp_device.o
                0x004039d4                udd_get_frame_number
 .text.udd_get_micro_frame_number
                0x004039e4        0x4 src/asf/sam/drivers/udp/udp_device.o
                0x004039e4                udd_get_micro_frame_number
 .text.udd_set_setup_payload
                0x004039e8        0xc src/asf/sam/drivers/udp/udp_device.o
                0x004039e8                udd_set_setup_payload
 .text.udd_ep_alloc
                0x004039f4       0xd0 src/asf/sam/drivers/udp/udp_device.o
                0x004039f4                udd_ep_alloc
 .text.udd_ep_free
                0x00403ac4       0x3c src/asf/sam/drivers/udp/udp_device.o
                0x00403ac4                udd_ep_free
 .text.udd_ep_is_halted
                0x00403b00       0x40 src/asf/sam/drivers/udp/udp_device.o
                0x00403b00                udd_ep_is_halted
 .text.udd_ep_set_halt
                0x00403b40       0xa0 src/asf/sam/drivers/udp/udp_device.o
                0x00403b40                udd_ep_set_halt
 .text.udd_ep_clear_halt
                0x00403be0       0xc8 src/asf/sam/drivers/udp/udp_device.o
                0x00403be0                udd_ep_clear_halt
 .text.udd_ep_run
                0x00403ca8       0xf4 src/asf/sam/drivers/udp/udp_device.o
                0x00403ca8                udd_ep_run
 .text.udd_ep_abort
                0x00403d9c      0x148 src/asf/sam/drivers/udp/udp_device.o
                0x00403d9c                udd_ep_abort
 .text._sbrk    0x00403ee4       0x1c src/asf/sam/utils/syscalls/gcc/syscalls.o
                0x00403ee4                _sbrk
 .text._close   0x00403f00        0x6 src/asf/sam/utils/syscalls/gcc/syscalls.o
                0x00403f00                _close
 .text._fstat   0x00403f06        0xa src/asf/sam/utils/syscalls/gcc/syscalls.o
                0x00403f06                _fstat
 .text._isatty  0x00403f10        0x4 src/asf/sam/utils/syscalls/gcc/syscalls.o
                0x00403f10                _isatty
 .text._lseek   0x00403f14        0x4 src/asf/sam/utils/syscalls/gcc/syscalls.o
                0x00403f14                _lseek
 .text._exit    0x00403f18       0x14 src/asf/sam/utils/syscalls/gcc/syscalls.o
                0x00403f18                _exit
 .text._kill    0x00403f2c        0x2 src/asf/sam/utils/syscalls/gcc/syscalls.o
                0x00403f2c                _kill
 .text._getpid  0x00403f2e        0x6 src/asf/sam/utils/syscalls/gcc/syscalls.o
                0x00403f2e                _getpid
 .text.disk_initialize
                0x00403f34       0x34 src/asf/thirdparty/fatfs/fatfs-port-r0.09/diskio.o
                0x00403f34                disk_initialize
 .text.disk_status
                0x00403f68       0x1c src/asf/thirdparty/fatfs/fatfs-port-r0.09/diskio.o
                0x00403f68                disk_status
 .text.disk_read
                0x00403f84       0x68 src/asf/thirdparty/fatfs/fatfs-port-r0.09/diskio.o
                0x00403f84                disk_read
 .text.disk_write
                0x00403fec       0x68 src/asf/thirdparty/fatfs/fatfs-port-r0.09/diskio.o
                0x00403fec                disk_write
 .text.disk_ioctl
                0x00404054       0x60 src/asf/thirdparty/fatfs/fatfs-port-r0.09/diskio.o
                0x00404054                disk_ioctl
 .text.get_fattime
                0x004040b4       0x58 src/asf/thirdparty/fatfs/fatfs-port-r0.09/sam/fattime.o
                0x004040b4                get_fattime
 .text.mem_cpy  0x0040410c       0x12 src/asf/thirdparty/fatfs/fatfs-r0.09/src/ff.o
 .text.clust2sect
                0x0040411e       0x18 src/asf/thirdparty/fatfs/fatfs-r0.09/src/ff.o
 .text.sum_sfn  0x00404136       0x1e src/asf/thirdparty/fatfs/fatfs-r0.09/src/ff.o
 .text.move_window
                0x00404154       0x80 src/asf/thirdparty/fatfs/fatfs-r0.09/src/ff.o
 .text.sync     0x004041d4       0xc4 src/asf/thirdparty/fatfs/fatfs-r0.09/src/ff.o
 .text.validate
                0x00404298       0x28 src/asf/thirdparty/fatfs/fatfs-r0.09/src/ff.o
 .text.check_fs
                0x004042c0       0x8c src/asf/thirdparty/fatfs/fatfs-r0.09/src/ff.o
 .text.chk_mounted
                0x0040434c      0x318 src/asf/thirdparty/fatfs/fatfs-r0.09/src/ff.o
 .text.get_fat  0x00404664       0xd8 src/asf/thirdparty/fatfs/fatfs-r0.09/src/ff.o
 .text.dir_sdi  0x0040473c       0x8c src/asf/thirdparty/fatfs/fatfs-r0.09/src/ff.o
 .text.put_fat  0x004047c8       0xf8 src/asf/thirdparty/fatfs/fatfs-r0.09/src/ff.o
 .text.create_chain
                0x004048c0       0xb0 src/asf/thirdparty/fatfs/fatfs-r0.09/src/ff.o
 .text.remove_chain
                0x00404970       0x70 src/asf/thirdparty/fatfs/fatfs-r0.09/src/ff.o
 .text.dir_next
                0x004049e0      0x10c src/asf/thirdparty/fatfs/fatfs-r0.09/src/ff.o
 .text.dir_find.part.4
                0x00404aec      0x140 src/asf/thirdparty/fatfs/fatfs-r0.09/src/ff.o
 .text.follow_path
                0x00404c2c      0x290 src/asf/thirdparty/fatfs/fatfs-r0.09/src/ff.o
 .text.dir_register
                0x00404ebc      0x278 src/asf/thirdparty/fatfs/fatfs-r0.09/src/ff.o
 .text.f_mount  0x00405134       0x20 src/asf/thirdparty/fatfs/fatfs-r0.09/src/ff.o
                0x00405134                f_mount
 .text.f_open   0x00405154      0x170 src/asf/thirdparty/fatfs/fatfs-r0.09/src/ff.o
                0x00405154                f_open
 .text.f_write  0x004052c4      0x1c8 src/asf/thirdparty/fatfs/fatfs-r0.09/src/ff.o
                0x004052c4                f_write
 .text.f_sync   0x0040548c       0xc0 src/asf/thirdparty/fatfs/fatfs-r0.09/src/ff.o
                0x0040548c                f_sync
 .text.f_opendir
                0x0040554c       0x80 src/asf/thirdparty/fatfs/fatfs-r0.09/src/ff.o
                0x0040554c                f_opendir
 .text.f_mkdir  0x004055cc      0x204 src/asf/thirdparty/fatfs/fatfs-r0.09/src/ff.o
                0x004055cc                f_mkdir
 .text.f_putc   0x004057d0       0x34 src/asf/thirdparty/fatfs/fatfs-r0.09/src/ff.o
                0x004057d0                f_putc
 .text.f_puts   0x00405804       0x28 src/asf/thirdparty/fatfs/fatfs-r0.09/src/ff.o
                0x00405804                f_puts
 .text.ff_convert
                0x0040582c       0x3c src/asf/thirdparty/fatfs/fatfs-r0.09/src/option/ccsbcs.o
                0x0040582c                ff_convert
 .text.ff_wtoupper
                0x00405868       0x24 src/asf/thirdparty/fatfs/fatfs-r0.09/src/option/ccsbcs.o
                0x00405868                ff_wtoupper
 .text.sd_mmc_test_unit_ready
                0x0040588c       0x38 src/sd_mmc_mem.o
                0x0040588c                sd_mmc_test_unit_ready
 .text.sd_mmc_test_unit_ready_0
                0x004058c4       0x10 src/sd_mmc_mem.o
                0x004058c4                sd_mmc_test_unit_ready_0
 .text.sd_mmc_read_capacity
                0x004058d4       0x20 src/sd_mmc_mem.o
                0x004058d4                sd_mmc_read_capacity
 .text.sd_mmc_read_capacity_0
                0x004058f4       0x10 src/sd_mmc_mem.o
                0x004058f4                sd_mmc_read_capacity_0
 .text.sd_mmc_wr_protect_0
                0x00405904       0x10 src/sd_mmc_mem.o
                0x00405904                sd_mmc_wr_protect_0
 .text.sd_mmc_mem_2_ram
                0x00405914       0x3c src/sd_mmc_mem.o
                0x00405914                sd_mmc_mem_2_ram
 .text.sd_mmc_mem_2_ram_0
                0x00405950       0x14 src/sd_mmc_mem.o
                0x00405950                sd_mmc_mem_2_ram_0
 .text.sd_mmc_ram_2_mem
                0x00405964       0x3c src/sd_mmc_mem.o
                0x00405964                sd_mmc_ram_2_mem
 .text.sd_mmc_ram_2_mem_0
                0x004059a0       0x14 src/sd_mmc_mem.o
                0x004059a0                sd_mmc_ram_2_mem_0
 .text.startup.main
                0x004059b4       0xd8 src/stdio_usb_example.o
                0x004059b4                main
 .text          0x00405a8c        0xc c:/program files (x86)/atmel/atmel studio 6.0/extensions/atmel/armgcc/3.3.1.128/armgcctoolchain/bin/../lib/gcc/arm-none-eabi/4.7.0/../../../../arm-none-eabi/lib/thumb\libc.a(lib_a-atexit.o)
                0x00405a8c                atexit
 .text          0x00405a98       0x30 c:/program files (x86)/atmel/atmel studio 6.0/extensions/atmel/armgcc/3.3.1.128/armgcctoolchain/bin/../lib/gcc/arm-none-eabi/4.7.0/../../../../arm-none-eabi/lib/thumb\libc.a(lib_a-fini.o)
                0x00405a98                __libc_fini_array
 .text          0x00405ac8       0x4c c:/program files (x86)/atmel/atmel studio 6.0/extensions/atmel/armgcc/3.3.1.128/armgcctoolchain/bin/../lib/gcc/arm-none-eabi/4.7.0/../../../../arm-none-eabi/lib/thumb\libc.a(lib_a-init.o)
                0x00405ac8                __libc_init_array
 .text          0x00405b14       0x12 c:/program files (x86)/atmel/atmel studio 6.0/extensions/atmel/armgcc/3.3.1.128/armgcctoolchain/bin/../lib/gcc/arm-none-eabi/4.7.0/../../../../arm-none-eabi/lib/thumb\libc.a(lib_a-memcpy.o)
                0x00405b14                memcpy
 .text          0x00405b26       0x10 c:/program files (x86)/atmel/atmel studio 6.0/extensions/atmel/armgcc/3.3.1.128/armgcctoolchain/bin/../lib/gcc/arm-none-eabi/4.7.0/../../../../arm-none-eabi/lib/thumb\libc.a(lib_a-memset.o)
                0x00405b26                memset
 *fill*         0x00405b36        0x2 00
 .text          0x00405b38       0x3c c:/program files (x86)/atmel/atmel studio 6.0/extensions/atmel/armgcc/3.3.1.128/armgcctoolchain/bin/../lib/gcc/arm-none-eabi/4.7.0/../../../../arm-none-eabi/lib/thumb\libc.a(lib_a-printf.o)
                0x00405b38                _printf_r
                0x00405b52                printf
 .text          0x00405b74       0x74 c:/program files (x86)/atmel/atmel studio 6.0/extensions/atmel/armgcc/3.3.1.128/armgcctoolchain/bin/../lib/gcc/arm-none-eabi/4.7.0/../../../../arm-none-eabi/lib/thumb\libc.a(lib_a-puts.o)
                0x00405b74                _puts_r
                0x00405bd8                puts
 .text          0x00405be8       0x10 c:/program files (x86)/atmel/atmel studio 6.0/extensions/atmel/armgcc/3.3.1.128/armgcctoolchain/bin/../lib/gcc/arm-none-eabi/4.7.0/../../../../arm-none-eabi/lib/thumb\libc.a(lib_a-setbuf.o)
                0x00405be8                setbuf
 .text          0x00405bf8       0xec c:/program files (x86)/atmel/atmel studio 6.0/extensions/atmel/armgcc/3.3.1.128/armgcctoolchain/bin/../lib/gcc/arm-none-eabi/4.7.0/../../../../arm-none-eabi/lib/thumb\libc.a(lib_a-setvbuf.o)
                0x00405bf8                setvbuf
 .text          0x00405ce4       0x88 c:/program files (x86)/atmel/atmel studio 6.0/extensions/atmel/armgcc/3.3.1.128/armgcctoolchain/bin/../lib/gcc/arm-none-eabi/4.7.0/../../../../arm-none-eabi/lib/thumb\libc.a(lib_a-sprintf.o)
                0x00405ce4                _sprintf_r
                0x00405d24                sprintf
 .text          0x00405d6c       0x10 c:/program files (x86)/atmel/atmel studio 6.0/extensions/atmel/armgcc/3.3.1.128/armgcctoolchain/bin/../lib/gcc/arm-none-eabi/4.7.0/../../../../arm-none-eabi/lib/thumb\libc.a(lib_a-strlen.o)
                0x00405d6c                strlen
 .text          0x00405d7c      0x8a8 c:/program files (x86)/atmel/atmel studio 6.0/extensions/atmel/armgcc/3.3.1.128/armgcctoolchain/bin/../lib/gcc/arm-none-eabi/4.7.0/../../../../arm-none-eabi/lib/thumb\libc.a(lib_a-svfprintf.o)
                0x00405d7c                _svfprintf_r
 .text          0x00406624      0x9c4 c:/program files (x86)/atmel/atmel studio 6.0/extensions/atmel/armgcc/3.3.1.128/armgcctoolchain/bin/../lib/gcc/arm-none-eabi/4.7.0/../../../../arm-none-eabi/lib/thumb\libc.a(lib_a-vfiprintf.o)
                0x00406624                __sprint_r
                0x00406690                _vfiprintf_r
                0x00406fcc                vfiprintf
 .text          0x00406fe8      0x958 c:/program files (x86)/atmel/atmel studio 6.0/extensions/atmel/armgcc/3.3.1.128/armgcctoolchain/bin/../lib/gcc/arm-none-eabi/4.7.0/../../../../arm-none-eabi/lib/thumb\libc.a(lib_a-vfprintf.o)
                0x00406fe8                _vfprintf_r
                0x00407924                vfprintf
 .text          0x00407940       0xb8 c:/program files (x86)/atmel/atmel studio 6.0/extensions/atmel/armgcc/3.3.1.128/armgcctoolchain/bin/../lib/gcc/arm-none-eabi/4.7.0/../../../../arm-none-eabi/lib/thumb\libc.a(lib_a-wsetup.o)
                0x00407940                __swsetup_r
 .text          0x004079f8       0x9c c:/program files (x86)/atmel/atmel studio 6.0/extensions/atmel/armgcc/3.3.1.128/armgcctoolchain/bin/../lib/gcc/arm-none-eabi/4.7.0/../../../../arm-none-eabi/lib/thumb\libc.a(lib_a-__atexit.o)
                0x004079f8                __register_exitproc
 .text.startup  0x00407a94       0x14 c:/program files (x86)/atmel/atmel studio 6.0/extensions/atmel/armgcc/3.3.1.128/armgcctoolchain/bin/../lib/gcc/arm-none-eabi/4.7.0/../../../../arm-none-eabi/lib/thumb\libc.a(lib_a-__call_atexit.o)
 .text          0x00407aa8        0xe c:/program files (x86)/atmel/atmel studio 6.0/extensions/atmel/armgcc/3.3.1.128/armgcctoolchain/bin/../lib/gcc/arm-none-eabi/4.7.0/../../../../arm-none-eabi/lib/thumb\libc.a(lib_a-abort.o)
                0x00407aa8                abort
 *fill*         0x00407ab6        0x2 00
 .text          0x00407ab8      0x154 c:/program files (x86)/atmel/atmel studio 6.0/extensions/atmel/armgcc/3.3.1.128/armgcctoolchain/bin/../lib/gcc/arm-none-eabi/4.7.0/../../../../arm-none-eabi/lib/thumb\libc.a(lib_a-fflush.o)
                0x00407ab8                _fflush_r
                0x00407be8                fflush
 .text          0x00407c0c      0x18c c:/program files (x86)/atmel/atmel studio 6.0/extensions/atmel/armgcc/3.3.1.128/armgcctoolchain/bin/../lib/gcc/arm-none-eabi/4.7.0/../../../../arm-none-eabi/lib/thumb\libc.a(lib_a-findfp.o)
                0x00407c14                _cleanup_r
                0x00407c68                __sfmoreglue
                0x00407c92                _cleanup
                0x00407ca0                __sinit
                0x00407cec                __sfp
                0x00407d68                __sfp_lock_acquire
                0x00407d6a                __sfp_lock_release
                0x00407d6c                __sinit_lock_acquire
                0x00407d6e                __sinit_lock_release
                0x00407d70                __fp_lock_all
                0x00407d84                __fp_unlock_all
 .text          0x00407d98       0xe4 c:/program files (x86)/atmel/atmel studio 6.0/extensions/atmel/armgcc/3.3.1.128/armgcctoolchain/bin/../lib/gcc/arm-none-eabi/4.7.0/../../../../arm-none-eabi/lib/thumb\libc.a(lib_a-fputwc.o)
                0x00407d98                _fputwc_r
                0x00407e54                fputwc
 .text          0x00407e7c      0x204 c:/program files (x86)/atmel/atmel studio 6.0/extensions/atmel/armgcc/3.3.1.128/armgcctoolchain/bin/../lib/gcc/arm-none-eabi/4.7.0/../../../../arm-none-eabi/lib/thumb\libc.a(lib_a-freer.o)
                0x00407e7c                _malloc_trim_r
                0x00407f18                _free_r
 .text          0x00408080      0x2b0 c:/program files (x86)/atmel/atmel studio 6.0/extensions/atmel/armgcc/3.3.1.128/armgcctoolchain/bin/../lib/gcc/arm-none-eabi/4.7.0/../../../../arm-none-eabi/lib/thumb\libc.a(lib_a-fvwrite.o)
                0x00408080                __sfvwrite_r
 .text          0x00408330       0x8a c:/program files (x86)/atmel/atmel studio 6.0/extensions/atmel/armgcc/3.3.1.128/armgcctoolchain/bin/../lib/gcc/arm-none-eabi/4.7.0/../../../../arm-none-eabi/lib/thumb\libc.a(lib_a-fwalk.o)
                0x00408330                _fwalk
                0x00408374                _fwalk_reent
 *fill*         0x004083ba        0x2 00
 .text          0x004083bc       0x88 c:/program files (x86)/atmel/atmel studio 6.0/extensions/atmel/armgcc/3.3.1.128/armgcctoolchain/bin/../lib/gcc/arm-none-eabi/4.7.0/../../../../arm-none-eabi/lib/thumb\libc.a(lib_a-locale.o)
                0x004083bc                _setlocale_r
                0x00408400                __locale_charset
                0x00408408                __locale_mb_cur_max
                0x00408414                __locale_msgcharset
                0x0040841c                __locale_cjk_lang
                0x00408420                _localeconv_r
                0x00408428                setlocale
                0x0040843c                localeconv
 .text          0x00408444       0xd8 c:/program files (x86)/atmel/atmel studio 6.0/extensions/atmel/armgcc/3.3.1.128/armgcctoolchain/bin/../lib/gcc/arm-none-eabi/4.7.0/../../../../arm-none-eabi/lib/thumb\libc.a(lib_a-makebuf.o)
                0x00408444                __smakebuf_r
 .text          0x0040851c       0x20 c:/program files (x86)/atmel/atmel studio 6.0/extensions/atmel/armgcc/3.3.1.128/armgcctoolchain/bin/../lib/gcc/arm-none-eabi/4.7.0/../../../../arm-none-eabi/lib/thumb\libc.a(lib_a-malloc.o)
                0x0040851c                malloc
                0x0040852c                free
 .text          0x0040853c      0x3f8 c:/program files (x86)/atmel/atmel studio 6.0/extensions/atmel/armgcc/3.3.1.128/armgcctoolchain/bin/../lib/gcc/arm-none-eabi/4.7.0/../../../../arm-none-eabi/lib/thumb\libc.a(lib_a-mallocr.o)
                0x0040853c                _malloc_r
 .text          0x00408934       0x1c c:/program files (x86)/atmel/atmel studio 6.0/extensions/atmel/armgcc/3.3.1.128/armgcctoolchain/bin/../lib/gcc/arm-none-eabi/4.7.0/../../../../arm-none-eabi/lib/thumb\libc.a(lib_a-memchr.o)
                0x00408934                memchr
 .text          0x00408950       0x32 c:/program files (x86)/atmel/atmel studio 6.0/extensions/atmel/armgcc/3.3.1.128/armgcctoolchain/bin/../lib/gcc/arm-none-eabi/4.7.0/../../../../arm-none-eabi/lib/thumb\libc.a(lib_a-memmove.o)
                0x00408950                memmove
 .text          0x00408982        0x4 c:/program files (x86)/atmel/atmel studio 6.0/extensions/atmel/armgcc/3.3.1.128/armgcctoolchain/bin/../lib/gcc/arm-none-eabi/4.7.0/../../../../arm-none-eabi/lib/thumb\libc.a(lib_a-mlock.o)
                0x00408982                __malloc_lock
                0x00408984                __malloc_unlock
 *fill*         0x00408986        0x2 00
 .text          0x00408988      0x2dc c:/program files (x86)/atmel/atmel studio 6.0/extensions/atmel/armgcc/3.3.1.128/armgcctoolchain/bin/../lib/gcc/arm-none-eabi/4.7.0/../../../../arm-none-eabi/lib/thumb\libc.a(lib_a-reallocr.o)
                0x00408988                _realloc_r
 .text          0x00408c64       0x20 c:/program files (x86)/atmel/atmel studio 6.0/extensions/atmel/armgcc/3.3.1.128/armgcctoolchain/bin/../lib/gcc/arm-none-eabi/4.7.0/../../../../arm-none-eabi/lib/thumb\libc.a(lib_a-sbrkr.o)
                0x00408c64                _sbrk_r
 .text          0x00408c84      0x144 c:/program files (x86)/atmel/atmel studio 6.0/extensions/atmel/armgcc/3.3.1.128/armgcctoolchain/bin/../lib/gcc/arm-none-eabi/4.7.0/../../../../arm-none-eabi/lib/thumb\libc.a(lib_a-signal.o)
                0x00408c84                _init_signal_r
                0x00408cb6                _signal_r
                0x00408cea                _raise_r
                0x00408d3c                __sigtramp_r
                0x00408d8a                raise
                0x00408d98                signal
                0x00408dac                _init_signal
                0x00408db8                __sigtramp
 .text          0x00408dc8       0x28 c:/program files (x86)/atmel/atmel studio 6.0/extensions/atmel/armgcc/3.3.1.128/armgcctoolchain/bin/../lib/gcc/arm-none-eabi/4.7.0/../../../../arm-none-eabi/lib/thumb\libc.a(lib_a-signalr.o)
                0x00408dc8                _kill_r
                0x00408dec                _getpid_r
 .text          0x00408df0       0x8e c:/program files (x86)/atmel/atmel studio 6.0/extensions/atmel/armgcc/3.3.1.128/armgcctoolchain/bin/../lib/gcc/arm-none-eabi/4.7.0/../../../../arm-none-eabi/lib/thumb\libc.a(lib_a-stdio.o)
                0x00408df0                __sread
                0x00408e12                __seofread
                0x00408e16                __swrite
                0x00408e52                __sseek
                0x00408e76                __sclose
 .text          0x00408e7e       0x16 c:/program files (x86)/atmel/atmel studio 6.0/extensions/atmel/armgcc/3.3.1.128/armgcctoolchain/bin/../lib/gcc/arm-none-eabi/4.7.0/../../../../arm-none-eabi/lib/thumb\libc.a(lib_a-strcmp.o)
                0x00408e7e                strcmp
 .text          0x00408e94      0x9a4 c:/program files (x86)/atmel/atmel studio 6.0/extensions/atmel/armgcc/3.3.1.128/armgcctoolchain/bin/../lib/gcc/arm-none-eabi/4.7.0/../../../../arm-none-eabi/lib/thumb\libc.a(lib_a-svfiprintf.o)
                0x00408e94                __ssprint_r
                0x00408f8e                _svfiprintf_r
 .text          0x00409838       0xb4 c:/program files (x86)/atmel/atmel studio 6.0/extensions/atmel/armgcc/3.3.1.128/armgcctoolchain/bin/../lib/gcc/arm-none-eabi/4.7.0/../../../../arm-none-eabi/lib/thumb\libc.a(lib_a-wbuf.o)
                0x00409838                __swbuf_r
                0x004098da                __swbuf
 .text          0x004098ec       0x68 c:/program files (x86)/atmel/atmel studio 6.0/extensions/atmel/armgcc/3.3.1.128/armgcctoolchain/bin/../lib/gcc/arm-none-eabi/4.7.0/../../../../arm-none-eabi/lib/thumb\libc.a(lib_a-wcrtomb.o)
                0x004098ec                _wcrtomb_r
                0x00409938                wcrtomb
 .text          0x00409954       0x44 c:/program files (x86)/atmel/atmel studio 6.0/extensions/atmel/armgcc/3.3.1.128/armgcctoolchain/bin/../lib/gcc/arm-none-eabi/4.7.0/../../../../arm-none-eabi/lib/thumb\libc.a(lib_a-wctomb_r.o)
                0x00409954                __ascii_wctomb
                0x0040996e                _wctomb_r
 .text          0x00409998       0x24 c:/program files (x86)/atmel/atmel studio 6.0/extensions/atmel/armgcc/3.3.1.128/armgcctoolchain/bin/../lib/gcc/arm-none-eabi/4.7.0/../../../../arm-none-eabi/lib/thumb\libc.a(lib_a-writer.o)
                0x00409998                _write_r
 .text          0x004099bc       0x20 c:/program files (x86)/atmel/atmel studio 6.0/extensions/atmel/armgcc/3.3.1.128/armgcctoolchain/bin/../lib/gcc/arm-none-eabi/4.7.0/../../../../arm-none-eabi/lib/thumb\libc.a(lib_a-closer.o)
                0x004099bc                _close_r
 .text          0x004099dc       0x94 c:/program files (x86)/atmel/atmel studio 6.0/extensions/atmel/armgcc/3.3.1.128/armgcctoolchain/bin/../lib/gcc/arm-none-eabi/4.7.0/../../../../arm-none-eabi/lib/thumb\libc.a(lib_a-fclose.o)
                0x004099dc                _fclose_r
                0x00409a62                fclose
 .text          0x00409a70       0x24 c:/program files (x86)/atmel/atmel studio 6.0/extensions/atmel/armgcc/3.3.1.128/armgcctoolchain/bin/../lib/gcc/arm-none-eabi/4.7.0/../../../../arm-none-eabi/lib/thumb\libc.a(lib_a-fstatr.o)
                0x00409a70                _fstat_r
 .text          0x00409a94       0x20 c:/program files (x86)/atmel/atmel studio 6.0/extensions/atmel/armgcc/3.3.1.128/armgcctoolchain/bin/../lib/gcc/arm-none-eabi/4.7.0/../../../../arm-none-eabi/lib/thumb\libc.a(lib_a-isattyr.o)
                0x00409a94                _isatty_r
 .text          0x00409ab4       0x24 c:/program files (x86)/atmel/atmel studio 6.0/extensions/atmel/armgcc/3.3.1.128/armgcctoolchain/bin/../lib/gcc/arm-none-eabi/4.7.0/../../../../arm-none-eabi/lib/thumb\libc.a(lib_a-lseekr.o)
                0x00409ab4                _lseek_r
 .text          0x00409ad8       0x24 c:/program files (x86)/atmel/atmel studio 6.0/extensions/atmel/armgcc/3.3.1.128/armgcctoolchain/bin/../lib/gcc/arm-none-eabi/4.7.0/../../../../arm-none-eabi/lib/thumb\libc.a(lib_a-readr.o)
                0x00409ad8                _read_r
 .text          0x00409afc       0x2c c:/program files (x86)/atmel/atmel studio 6.0/extensions/atmel/armgcc/3.3.1.128/armgcctoolchain/bin/../lib/gcc/arm-none-eabi/4.7.0/thumb\libgcc.a(_aeabi_uldivmod.o)
                0x00409afc                __aeabi_uldivmod
 .text          0x00409b28       0x60 c:/program files (x86)/atmel/atmel studio 6.0/extensions/atmel/armgcc/3.3.1.128/armgcctoolchain/bin/../lib/gcc/arm-none-eabi/4.7.0/thumb\libgcc.a(bpabi.o)
                0x00409b28                __gnu_ldivmod_helper
                0x00409b58                __gnu_uldivmod_helper
 .text          0x00409b88        0x4 c:/program files (x86)/atmel/atmel studio 6.0/extensions/atmel/armgcc/3.3.1.128/armgcctoolchain/bin/../lib/gcc/arm-none-eabi/4.7.0/thumb\libgcc.a(_dvmd_tls.o)
                0x00409b88                __aeabi_idiv0
                0x00409b88                __aeabi_ldiv0
 .text          0x00409b8c      0x2c8 c:/program files (x86)/atmel/atmel studio 6.0/extensions/atmel/armgcc/3.3.1.128/armgcctoolchain/bin/../lib/gcc/arm-none-eabi/4.7.0/thumb\libgcc.a(_divdi3.o)
                0x00409b8c                __divdi3
 .text          0x00409e54      0x29c c:/program files (x86)/atmel/atmel studio 6.0/extensions/atmel/armgcc/3.3.1.128/armgcctoolchain/bin/../lib/gcc/arm-none-eabi/4.7.0/thumb\libgcc.a(_udivdi3.o)
                0x00409e54                __udivdi3
 .text          0x0040a0f0      0x9fc c:/program files (x86)/atmel/atmel studio 6.0/extensions/atmel/armgcc/3.3.1.128/armgcctoolchain/bin/../lib/gcc/arm-none-eabi/4.7.0/thumb\libgcc.a(unwind-arm.o)
                0x0040a3b8                _Unwind_GetCFA
                0x0040a3bc                __gnu_Unwind_RaiseException
                0x0040a41c                __gnu_Unwind_ForcedUnwind
                0x0040a434                __gnu_Unwind_Resume
                0x0040a478                __gnu_Unwind_Resume_or_Rethrow
                0x0040a490                _Unwind_Complete
                0x0040a494                _Unwind_DeleteException
                0x0040a4a4                _Unwind_VRS_Get
                0x0040a4e8                _Unwind_VRS_Set
                0x0040a7fc                __aeabi_unwind_cpp_pr2
                0x0040a804                __aeabi_unwind_cpp_pr1
                0x0040a80c                __aeabi_unwind_cpp_pr0
                0x0040a814                __gnu_Unwind_Backtrace
                0x0040a884                _Unwind_VRS_Pop
 .text          0x0040aaec      0x1ac c:/program files (x86)/atmel/atmel studio 6.0/extensions/atmel/armgcc/3.3.1.128/armgcctoolchain/bin/../lib/gcc/arm-none-eabi/4.7.0/thumb\libgcc.a(libunwind.o)
                0x0040aaec                __restore_core_regs
                0x0040aaec                restore_core_regs
                0x0040ab04                __gnu_Unwind_Restore_VFP
                0x0040ab0c                __gnu_Unwind_Save_VFP
                0x0040ab14                __gnu_Unwind_Restore_VFP_D
                0x0040ab1c                __gnu_Unwind_Save_VFP_D
                0x0040ab24                __gnu_Unwind_Restore_VFP_D_16_to_31
                0x0040ab2c                __gnu_Unwind_Save_VFP_D_16_to_31
                0x0040ab34                __gnu_Unwind_Restore_WMMXD
                0x0040ab78                __gnu_Unwind_Save_WMMXD
                0x0040abbc                __gnu_Unwind_Restore_WMMXC
                0x0040abd0                __gnu_Unwind_Save_WMMXC
                0x0040abe4                ___Unwind_RaiseException
                0x0040abe4                _Unwind_RaiseException
                0x0040ac08                _Unwind_Resume
                0x0040ac08                ___Unwind_Resume
                0x0040ac2c                _Unwind_Resume_or_Rethrow
                0x0040ac2c                ___Unwind_Resume_or_Rethrow
                0x0040ac50                _Unwind_ForcedUnwind
                0x0040ac50                ___Unwind_ForcedUnwind
                0x0040ac74                ___Unwind_Backtrace
                0x0040ac74                _Unwind_Backtrace
 .text          0x0040ac98      0x3a0 c:/program files (x86)/atmel/atmel studio 6.0/extensions/atmel/armgcc/3.3.1.128/armgcctoolchain/bin/../lib/gcc/arm-none-eabi/4.7.0/thumb\libgcc.a(pr-support.o)
                0x0040ace4                __gnu_unwind_execute
                0x0040afe0                __gnu_unwind_frame
                0x0040b008                _Unwind_GetRegionStart
                0x0040b014                _Unwind_GetLanguageSpecificData
                0x0040b028                _Unwind_GetDataRelBase
                0x0040b030                _Unwind_GetTextRelBase
 *(.glue_7t)
 .glue_7t       0x00000000        0x0 linker stubs
 *(.glue_7)
 .glue_7        0x00000000        0x0 linker stubs
 *(.rodata .rodata* .gnu.linkonce.r.*)
 .rodata        0x0040b038       0x2c src/asf/sam/drivers/pwm/pwm.o
 .rodata.str1.1
                0x0040b064      0x1e7 src/zeppelin_fc.o
 .rodata.__func__.8991
                0x0040b24b       0x17 src/asf/common/components/memory/sd_mmc/sd_mmc.o
 .rodata.__func__.8995
                0x0040b262       0x18 src/asf/common/components/memory/sd_mmc/sd_mmc.o
 .rodata.__func__.8945
                0x0040b27a       0x10 src/asf/common/components/memory/sd_mmc/sd_mmc.o
 *fill*         0x0040b28a        0x2 00
 .rodata.sd_mmc_trans_units
                0x0040b28c       0x1c src/asf/common/components/memory/sd_mmc/sd_mmc.o
                0x0040b28c                sd_mmc_trans_units
 .rodata.mmc_trans_multipliers
                0x0040b2a8       0x40 src/asf/common/components/memory/sd_mmc/sd_mmc.o
                0x0040b2a8                mmc_trans_multipliers
 .rodata.__func__.9000
                0x0040b2e8        0x8 src/asf/common/components/memory/sd_mmc/sd_mmc.o
 .rodata.__func__.9048
                0x0040b2f0        0xd src/asf/common/components/memory/sd_mmc/sd_mmc.o
 .rodata.str1.1
                0x0040b2fd      0x219 src/asf/common/components/memory/sd_mmc/sd_mmc.o
 *fill*         0x0040b516        0x2 00
 .rodata.sd_trans_multipliers
                0x0040b518       0x40 src/asf/common/components/memory/sd_mmc/sd_mmc.o
                0x0040b518                sd_trans_multipliers
 .rodata.CSWTCH.69
                0x0040b558       0x14 src/asf/common/components/memory/sd_mmc/sd_mmc.o
 .rodata.__func__.8963
                0x0040b56c        0xf src/asf/common/components/memory/sd_mmc/sd_mmc.o
 .rodata.__func__.9126
                0x0040b57b       0x18 src/asf/common/components/memory/sd_mmc/sd_mmc.o
 .rodata.__func__.9143
                0x0040b593       0x19 src/asf/common/components/memory/sd_mmc/sd_mmc.o
 .rodata.__func__.8982
                0x0040b5ac       0x16 src/asf/common/components/memory/sd_mmc/sd_mmc.o
 .rodata.CSWTCH.39
                0x0040b5c2        0x5 src/asf/sam/drivers/hsmci/hsmci.o
 .rodata.str1.1
                0x0040b5c7       0x19 src/asf/sam/utils/syscalls/gcc/syscalls.o
 .rodata.CSWTCH.6
                0x0040b5e0        0x3 src/asf/thirdparty/fatfs/fatfs-port-r0.09/diskio.o
 .rodata.excvt.4497
                0x0040b5e3       0x80 src/asf/thirdparty/fatfs/fatfs-r0.09/src/ff.o
 .rodata.str1.1
                0x0040b663       0x10 src/asf/thirdparty/fatfs/fatfs-r0.09/src/ff.o
 .rodata.LfnOfs
                0x0040b673        0xd src/asf/thirdparty/fatfs/fatfs-r0.09/src/ff.o
 .rodata.tbl_lower.4247
                0x0040b680      0x1e0 src/asf/thirdparty/fatfs/fatfs-r0.09/src/option/ccsbcs.o
 .rodata.Tbl    0x0040b860      0x100 src/asf/thirdparty/fatfs/fatfs-r0.09/src/option/ccsbcs.o
 .rodata.tbl_upper.4248
                0x0040b960      0x1e0 src/asf/thirdparty/fatfs/fatfs-r0.09/src/option/ccsbcs.o
 .rodata        0x0040bb40        0x4 c:/program files (x86)/atmel/atmel studio 6.0/extensions/atmel/armgcc/3.3.1.128/armgcctoolchain/bin/../lib/gcc/arm-none-eabi/4.7.0/../../../../arm-none-eabi/lib/thumb\libc.a(lib_a-impure.o)
                0x0040bb40                _global_impure_ptr
 .rodata.str1.1
                0x0040bb44        0x2 c:/program files (x86)/atmel/atmel studio 6.0/extensions/atmel/armgcc/3.3.1.128/armgcctoolchain/bin/../lib/gcc/arm-none-eabi/4.7.0/../../../../arm-none-eabi/lib/thumb\libc.a(lib_a-impure.o)
 .rodata.str1.1
                0x00000000        0x2 c:/program files (x86)/atmel/atmel studio 6.0/extensions/atmel/armgcc/3.3.1.128/armgcctoolchain/bin/../lib/gcc/arm-none-eabi/4.7.0/../../../../arm-none-eabi/lib/thumb\libc.a(lib_a-puts.o)
 .rodata        0x0040bb46       0x20 c:/program files (x86)/atmel/atmel studio 6.0/extensions/atmel/armgcc/3.3.1.128/armgcctoolchain/bin/../lib/gcc/arm-none-eabi/4.7.0/../../../../arm-none-eabi/lib/thumb\libc.a(lib_a-svfprintf.o)
 .rodata.str1.1
                0x0040bb66       0x22 c:/program files (x86)/atmel/atmel studio 6.0/extensions/atmel/armgcc/3.3.1.128/armgcctoolchain/bin/../lib/gcc/arm-none-eabi/4.7.0/../../../../arm-none-eabi/lib/thumb\libc.a(lib_a-svfprintf.o)
 .rodata        0x0040bb88       0x20 c:/program files (x86)/atmel/atmel studio 6.0/extensions/atmel/armgcc/3.3.1.128/armgcctoolchain/bin/../lib/gcc/arm-none-eabi/4.7.0/../../../../arm-none-eabi/lib/thumb\libc.a(lib_a-vfiprintf.o)
 .rodata.str1.1
                0x00000000       0x22 c:/program files (x86)/atmel/atmel studio 6.0/extensions/atmel/armgcc/3.3.1.128/armgcctoolchain/bin/../lib/gcc/arm-none-eabi/4.7.0/../../../../arm-none-eabi/lib/thumb\libc.a(lib_a-vfiprintf.o)
 .rodata        0x0040bba8       0x20 c:/program files (x86)/atmel/atmel studio 6.0/extensions/atmel/armgcc/3.3.1.128/armgcctoolchain/bin/../lib/gcc/arm-none-eabi/4.7.0/../../../../arm-none-eabi/lib/thumb\libc.a(lib_a-vfprintf.o)
 .rodata.str1.1
                0x00000000       0x22 c:/program files (x86)/atmel/atmel studio 6.0/extensions/atmel/armgcc/3.3.1.128/armgcctoolchain/bin/../lib/gcc/arm-none-eabi/4.7.0/../../../../arm-none-eabi/lib/thumb\libc.a(lib_a-vfprintf.o)
 .rodata.str1.1
                0x0040bbc8        0x6 c:/program files (x86)/atmel/atmel studio 6.0/extensions/atmel/armgcc/3.3.1.128/armgcctoolchain/bin/../lib/gcc/arm-none-eabi/4.7.0/../../../../arm-none-eabi/lib/thumb\libc.a(lib_a-locale.o)
                                  0xb (size before relaxing)
 .rodata        0x0040bbce       0x20 c:/program files (x86)/atmel/atmel studio 6.0/extensions/atmel/armgcc/3.3.1.128/armgcctoolchain/bin/../lib/gcc/arm-none-eabi/4.7.0/../../../../arm-none-eabi/lib/thumb\libc.a(lib_a-svfiprintf.o)
 .rodata.str1.1
                0x00000000       0x22 c:/program files (x86)/atmel/atmel studio 6.0/extensions/atmel/armgcc/3.3.1.128/armgcctoolchain/bin/../lib/gcc/arm-none-eabi/4.7.0/../../../../arm-none-eabi/lib/thumb\libc.a(lib_a-svfiprintf.o)
 *(.ARM.extab* .gnu.linkonce.armextab.*)
 *fill*         0x0040bbee        0x2 00
 .ARM.extab     0x0040bbf0       0x18 c:/program files (x86)/atmel/atmel studio 6.0/extensions/atmel/armgcc/3.3.1.128/armgcctoolchain/bin/../lib/gcc/arm-none-eabi/4.7.0/thumb\libgcc.a(unwind-arm.o)
 .ARM.extab     0x0040bc08       0x18 c:/program files (x86)/atmel/atmel studio 6.0/extensions/atmel/armgcc/3.3.1.128/armgcctoolchain/bin/../lib/gcc/arm-none-eabi/4.7.0/thumb\libgcc.a(pr-support.o)
                0x0040bc20                . = ALIGN (0x4)
 *(.init)
 .init          0x0040bc20        0x4 c:/program files (x86)/atmel/atmel studio 6.0/extensions/atmel/armgcc/3.3.1.128/armgcctoolchain/bin/../lib/gcc/arm-none-eabi/4.7.0/thumb/crti.o
                0x0040bc20                _init
 .init          0x0040bc24        0x8 c:/program files (x86)/atmel/atmel studio 6.0/extensions/atmel/armgcc/3.3.1.128/armgcctoolchain/bin/../lib/gcc/arm-none-eabi/4.7.0/thumb/crtn.o
                0x0040bc2c                . = ALIGN (0x4)
                0x0040bc2c                __preinit_array_start = .
 *(.preinit_array)
                0x0040bc2c                __preinit_array_end = .
                0x0040bc2c                . = ALIGN (0x4)
                0x0040bc2c                __init_array_start = .
 *(SORT(.init_array.*))
 .init_array.00000
                0x0040bc2c        0x4 c:/program files (x86)/atmel/atmel studio 6.0/extensions/atmel/armgcc/3.3.1.128/armgcctoolchain/bin/../lib/gcc/arm-none-eabi/4.7.0/../../../../arm-none-eabi/lib/thumb\libc.a(lib_a-__call_atexit.o)
 *(.init_array)
 .init_array    0x0040bc30        0x4 c:/program files (x86)/atmel/atmel studio 6.0/extensions/atmel/armgcc/3.3.1.128/armgcctoolchain/bin/../lib/gcc/arm-none-eabi/4.7.0/thumb/crtbegin.o
                0x0040bc34                __init_array_end = .
                0x0040bc34                . = ALIGN (0x4)
 *crtbegin.o(.ctors)
 *(EXCLUDE_FILE(*crtend.o) .ctors)
 *(SORT(.ctors.*))
 *crtend.o(.ctors)
                0x0040bc34                . = ALIGN (0x4)
 *(.fini)
 .fini          0x0040bc34        0x4 c:/program files (x86)/atmel/atmel studio 6.0/extensions/atmel/armgcc/3.3.1.128/armgcctoolchain/bin/../lib/gcc/arm-none-eabi/4.7.0/thumb/crti.o
                0x0040bc34                _fini
 .fini          0x0040bc38        0x8 c:/program files (x86)/atmel/atmel studio 6.0/extensions/atmel/armgcc/3.3.1.128/armgcctoolchain/bin/../lib/gcc/arm-none-eabi/4.7.0/thumb/crtn.o
                0x0040bc40                . = ALIGN (0x4)
                0x0040bc40                __fini_array_start = .
 *(.fini_array)
 .fini_array    0x0040bc40        0x4 c:/program files (x86)/atmel/atmel studio 6.0/extensions/atmel/armgcc/3.3.1.128/armgcctoolchain/bin/../lib/gcc/arm-none-eabi/4.7.0/thumb/crtbegin.o
 *(SORT(.fini_array.*))
                0x0040bc44                __fini_array_end = .
 *crtbegin.o(.dtors)
 *(EXCLUDE_FILE(*crtend.o) .dtors)
 *(SORT(.dtors.*))
 *crtend.o(.dtors)
                0x0040bc44                . = ALIGN (0x4)
                0x0040bc44                _efixed = .
                0x0040bc44                PROVIDE (__exidx_start, .)

.vfp11_veneer   0x0040bc44        0x0
 .vfp11_veneer  0x00000000        0x0 linker stubs

.v4_bx          0x0040bc44        0x0
 .v4_bx         0x00000000        0x0 linker stubs

.iplt           0x0040bc44        0x0
 .iplt          0x00000000        0x0 c:/program files (x86)/atmel/atmel studio 6.0/extensions/atmel/armgcc/3.3.1.128/armgcctoolchain/bin/../lib/gcc/arm-none-eabi/4.7.0/thumb/crtbegin.o

.ARM.exidx      0x0040bc44       0xd8
 *(.ARM.exidx* .gnu.linkonce.armexidx.*)
 .ARM.exidx     0x0040bc44        0x8 c:/program files (x86)/atmel/atmel studio 6.0/extensions/atmel/armgcc/3.3.1.128/armgcctoolchain/bin/../lib/gcc/arm-none-eabi/4.7.0/thumb\libgcc.a(_divdi3.o)
 .ARM.exidx     0x0040bc4c        0x8 c:/program files (x86)/atmel/atmel studio 6.0/extensions/atmel/armgcc/3.3.1.128/armgcctoolchain/bin/../lib/gcc/arm-none-eabi/4.7.0/thumb\libgcc.a(_udivdi3.o)
 .ARM.exidx     0x0040bc54       0x90 c:/program files (x86)/atmel/atmel studio 6.0/extensions/atmel/armgcc/3.3.1.128/armgcctoolchain/bin/../lib/gcc/arm-none-eabi/4.7.0/thumb\libgcc.a(unwind-arm.o)
                                 0xd8 (size before relaxing)
 .ARM.exidx     0x0040bce4       0x38 c:/program files (x86)/atmel/atmel studio 6.0/extensions/atmel/armgcc/3.3.1.128/armgcctoolchain/bin/../lib/gcc/arm-none-eabi/4.7.0/thumb\libgcc.a(pr-support.o)
                                 0x48 (size before relaxing)
                0x0040bd1c                PROVIDE (__exidx_end, .)

.eh_frame       0x0040bd1c        0x0
 .eh_frame      0x0040bd1c        0x0 c:/program files (x86)/atmel/atmel studio 6.0/extensions/atmel/armgcc/3.3.1.128/armgcctoolchain/bin/../lib/gcc/arm-none-eabi/4.7.0/thumb/crtbegin.o

.rel.dyn        0x0040bd1c        0x0
 .rel.iplt      0x00000000        0x0 c:/program files (x86)/atmel/atmel studio 6.0/extensions/atmel/armgcc/3.3.1.128/armgcctoolchain/bin/../lib/gcc/arm-none-eabi/4.7.0/thumb/crtbegin.o

.jcr            0x0040bd1c        0x0
 .jcr           0x0040bd1c        0x0 c:/program files (x86)/atmel/atmel studio 6.0/extensions/atmel/armgcc/3.3.1.128/armgcctoolchain/bin/../lib/gcc/arm-none-eabi/4.7.0/thumb/crtbegin.o

.tm_clone_table
                0x0040bd1c        0x0
 .tm_clone_table
                0x0040bd1c        0x0 c:/program files (x86)/atmel/atmel studio 6.0/extensions/atmel/armgcc/3.3.1.128/armgcctoolchain/bin/../lib/gcc/arm-none-eabi/4.7.0/thumb/crtbegin.o
 .tm_clone_table
                0x0040bd1c        0x0 c:/program files (x86)/atmel/atmel studio 6.0/extensions/atmel/armgcc/3.3.1.128/armgcctoolchain/bin/../lib/gcc/arm-none-eabi/4.7.0/thumb/crtend.o

.igot.plt       0x0040bd1c        0x0
 .igot.plt      0x00000000        0x0 c:/program files (x86)/atmel/atmel studio 6.0/extensions/atmel/armgcc/3.3.1.128/armgcctoolchain/bin/../lib/gcc/arm-none-eabi/4.7.0/thumb/crtbegin.o
                0x0040bd1c                . = ALIGN (0x4)
                0x0040bd1c                _etext = .

.relocate       0x20000000      0x9d0 load address 0x0040bd1c
                0x20000000                . = ALIGN (0x4)
                0x20000000                _srelocate = .
 *(.ramfunc .ramfunc.*)
 .ramfunc       0x20000000        0xa src/asf/common/services/delay/sam/cycle_counter.o
                0x20000000                portable_delay_cycles
 *(.data .data.*)
 *fill*         0x2000000a        0x2 00
 .data.SystemCoreClock
                0x2000000c        0x4 src/asf/sam/utils/cmsis/sam3s8/source/templates/system_sam3sd8.o
                0x2000000c                SystemCoreClock
 .data.file_name
                0x20000010       0x11 src/zeppelin_fc.o
                0x20000010                file_name
 .data.b_read   0x20000021        0x1 src/zeppelin_fc.o
 *fill*         0x20000022        0x2 00
 .data.bTemp    0x20000024        0x4 src/zeppelin_fc.o
                0x20000024                bTemp
 .data.sd_mmc_cards
                0x20000028       0x24 src/asf/common/components/memory/sd_mmc/sd_mmc.o
 .data.udi_api_cdc_data
                0x2000004c       0x14 src/asf/common/services/usb/class/cdc/device/udi_cdc.o
                0x2000004c                udi_api_cdc_data
 .data.udi_api_cdc_comm
                0x20000060       0x14 src/asf/common/services/usb/class/cdc/device/udi_cdc.o
                0x20000060                udi_api_cdc_comm
 .data.udc_config
                0x20000074        0x8 src/asf/common/services/usb/class/cdc/device/udi_cdc_desc.o
                0x20000074                udc_config
 .data.udi_apis
                0x2000007c        0x8 src/asf/common/services/usb/class/cdc/device/udi_cdc_desc.o
                0x2000007c                udi_apis
 .data.udc_config_fs
                0x20000084        0x8 src/asf/common/services/usb/class/cdc/device/udi_cdc_desc.o
                0x20000084                udc_config_fs
 .data.udc_device_desc
                0x2000008c       0x14 src/asf/common/services/usb/class/cdc/device/udi_cdc_desc.o
                0x2000008c                udc_device_desc
 .data.udc_desc_fs
                0x200000a0       0x44 src/asf/common/services/usb/class/cdc/device/udi_cdc_desc.o
                0x200000a0                udc_desc_fs
 .data.udc_string_product_name
                0x200000e4        0x4 src/asf/common/services/usb/udc/udc.o
 .data.udc_string_manufacturer_name
                0x200000e8        0xa src/asf/common/services/usb/udc/udc.o
 *fill*         0x200000f2        0x2 00
 .data.udc_string_desc
                0x200000f4       0x14 src/asf/common/services/usb/udc/udc.o
 .data.udc_string_desc_languageid
                0x20000108        0x4 src/asf/common/services/usb/udc/udc.o
 .data.g_interrupt_enabled
                0x2000010c        0x1 src/asf/common/utils/interrupt/interrupt_sam_nvic.o
                0x2000010c                g_interrupt_enabled
 *fill*         0x2000010d        0x3 00
 .data          0x20000110      0x430 c:/program files (x86)/atmel/atmel studio 6.0/extensions/atmel/armgcc/3.3.1.128/armgcctoolchain/bin/../lib/gcc/arm-none-eabi/4.7.0/../../../../arm-none-eabi/lib/thumb\libc.a(lib_a-impure.o)
                0x20000110                _impure_ptr
 .data          0x20000540       0x7c c:/program files (x86)/atmel/atmel studio 6.0/extensions/atmel/armgcc/3.3.1.128/armgcctoolchain/bin/../lib/gcc/arm-none-eabi/4.7.0/../../../../arm-none-eabi/lib/thumb\libc.a(lib_a-locale.o)
                0x20000560                __mb_cur_max
 .data          0x200005bc      0x410 c:/program files (x86)/atmel/atmel studio 6.0/extensions/atmel/armgcc/3.3.1.128/armgcctoolchain/bin/../lib/gcc/arm-none-eabi/4.7.0/../../../../arm-none-eabi/lib/thumb\libc.a(lib_a-mallocr.o)
                0x200005bc                __malloc_av_
                0x200009c4                __malloc_sbrk_base
                0x200009c8                __malloc_trim_threshold
 .data          0x200009cc        0x4 c:/program files (x86)/atmel/atmel studio 6.0/extensions/atmel/armgcc/3.3.1.128/armgcctoolchain/bin/../lib/gcc/arm-none-eabi/4.7.0/../../../../arm-none-eabi/lib/thumb\libc.a(lib_a-wctomb_r.o)
                0x200009cc                __wctomb
                0x200009d0                . = ALIGN (0x4)
                0x200009d0                _erelocate = .

.bss            0x200009d0      0xfd8 load address 0x0040c6ec
                0x200009d0                . = ALIGN (0x4)
                0x200009d0                _sbss = .
                0x200009d0                _szero = .
 *(.bss .bss.*)
 .bss           0x200009d0       0x1c c:/program files (x86)/atmel/atmel studio 6.0/extensions/atmel/armgcc/3.3.1.128/armgcctoolchain/bin/../lib/gcc/arm-none-eabi/4.7.0/thumb/crtbegin.o
 .bss.g_pwm_channel_led
                0x200009ec       0x28 src/pwmb.o
 .bss.pwm_count
                0x20000a14        0x4 src/pwmb.o
 .bss.pwm_state
                0x20000a18        0x1 src/pwmb.o
 *fill*         0x20000a19        0x3 00
 .bss.gs_ul_alarm_triggered
                0x20000a1c        0x4 src/rtc.o
 .bss.b_ms      0x20000a20        0x4 src/zeppelin_fc.o
 .bss.ul_ms_ticks
                0x20000a24        0x4 src/zeppelin_fc.o
                0x20000a24                ul_ms_ticks
 .bss.sd_mmc_nb_block_to_tranfer
                0x20000a28        0x2 src/asf/common/components/memory/sd_mmc/sd_mmc.o
 .bss.sd_mmc_sam_systick_used
                0x20000a2a        0x1 src/asf/common/components/memory/sd_mmc/sd_mmc.o
 *fill*         0x20000a2b        0x1 00
 .bss.sd_mmc_card
                0x20000a2c        0x4 src/asf/common/components/memory/sd_mmc/sd_mmc.o
 .bss.sd_mmc_slot_sel
                0x20000a30        0x1 src/asf/common/components/memory/sd_mmc/sd_mmc.o
 *fill*         0x20000a31        0x1 00
 .bss.sd_mmc_nb_block_remaining
                0x20000a32        0x2 src/asf/common/components/memory/sd_mmc/sd_mmc.o
 .bss.udi_cdc_line_coding
                0x20000a34        0x7 src/asf/common/services/usb/class/cdc/device/udi_cdc.o
 .bss.udi_cdc_nb_data_enabled
                0x20000a3b        0x1 src/asf/common/services/usb/class/cdc/device/udi_cdc.o
 .bss.udi_cdc_tx_buf_sel
                0x20000a3c        0x1 src/asf/common/services/usb/class/cdc/device/udi_cdc.o
 *fill*         0x20000a3d        0x1 00
 .bss.udi_cdc_tx_buf_nb
                0x20000a3e        0x4 src/asf/common/services/usb/class/cdc/device/udi_cdc.o
 *fill*         0x20000a42        0x2 00
 .bss.udi_cdc_tx_buf
                0x20000a44      0x280 src/asf/common/services/usb/class/cdc/device/udi_cdc.o
 .bss.udi_cdc_rx_buf_nb
                0x20000cc4        0x4 src/asf/common/services/usb/class/cdc/device/udi_cdc.o
 .bss.udi_cdc_nb_comm_enabled
                0x20000cc8        0x1 src/asf/common/services/usb/class/cdc/device/udi_cdc.o
 *fill*         0x20000cc9        0x1 00
 .bss.udi_cdc_rx_pos
                0x20000cca        0x2 src/asf/common/services/usb/class/cdc/device/udi_cdc.o
 .bss.udi_cdc_tx_sof_num
                0x20000ccc        0x2 src/asf/common/services/usb/class/cdc/device/udi_cdc.o
 .bss.udi_cdc_data_running
                0x20000cce        0x1 src/asf/common/services/usb/class/cdc/device/udi_cdc.o
 .bss.udi_cdc_rx_buf_sel
                0x20000ccf        0x1 src/asf/common/services/usb/class/cdc/device/udi_cdc.o
 .bss.udi_cdc_tx_trans_ongoing
                0x20000cd0        0x1 src/asf/common/services/usb/class/cdc/device/udi_cdc.o
 *fill*         0x20000cd1        0x3 00
 .bss.uid_cdc_state_msg
                0x20000cd4        0xc src/asf/common/services/usb/class/cdc/device/udi_cdc.o
 .bss.udi_cdc_rx_buf
                0x20000ce0      0x280 src/asf/common/services/usb/class/cdc/device/udi_cdc.o
 .bss.udi_cdc_rx_trans_ongoing
                0x20000f60        0x1 src/asf/common/services/usb/class/cdc/device/udi_cdc.o
 .bss.udi_cdc_tx_both_buf_to_send
                0x20000f61        0x1 src/asf/common/services/usb/class/cdc/device/udi_cdc.o
 .bss.udi_cdc_state
                0x20000f62        0x2 src/asf/common/services/usb/class/cdc/device/udi_cdc.o
 .bss.udc_ptr_conf
                0x20000f64        0x4 src/asf/common/services/usb/udc/udc.o
 .bss.udc_iface_setting.7205
                0x20000f68        0x1 src/asf/common/services/usb/udc/udc.o
 *fill*         0x20000f69        0x1 00
 .bss.udc_ep_status.7147
                0x20000f6a        0x2 src/asf/common/services/usb/udc/udc.o
 .bss.udc_device_status
                0x20000f6c        0x2 src/asf/common/services/usb/udc/udc.o
 .bss.udc_num_configuration
                0x20000f6e        0x1 src/asf/common/services/usb/udc/udc.o
 *fill*         0x20000f6f        0x1 00
 .bss.udc_ptr_iface
                0x20000f70        0x4 src/asf/common/services/usb/udc/udc.o
 .bss.stdio_usb_interface_enable
                0x20000f74        0x1 src/asf/common/utils/stdio/stdio_usb/stdio_usb.o
 *fill*         0x20000f75        0x1 00
 .bss.hsmci_block_size
                0x20000f76        0x2 src/asf/sam/drivers/hsmci/hsmci.o
 .bss.hsmci_nb_block
                0x20000f78        0x2 src/asf/sam/drivers/hsmci/hsmci.o
 *fill*         0x20000f7a        0x2 00
 .bss.hsmci_transfert_pos
                0x20000f7c        0x4 src/asf/sam/drivers/hsmci/hsmci.o
 .bss.gs_interrupt_sources
                0x20000f80       0x70 src/asf/sam/drivers/pio/pio_handler.o
 .bss.udd_ctrl_prev_payload_nb_trans
                0x20000ff0        0x2 src/asf/sam/drivers/udp/udp_device.o
 .bss.b_shortpacket.7834
                0x20000ff2        0x1 src/asf/sam/drivers/udp/udp_device.o
 *fill*         0x20000ff3        0x1 00
 .bss.udd_ep_job
                0x20000ff4       0x3c src/asf/sam/drivers/udp/udp_device.o
 .bss.udd_b_idle
                0x20001030        0x1 src/asf/sam/drivers/udp/udp_device.o
 *fill*         0x20001031        0x1 00
 .bss.udd_ctrl_payload_nb_trans
                0x20001032        0x2 src/asf/sam/drivers/udp/udp_device.o
 .bss.udd_ep_control_state
                0x20001034        0x1 src/asf/sam/drivers/udp/udp_device.o
 *fill*         0x20001035        0x3 00
 .bss.heap.5080
                0x20001038        0x4 src/asf/sam/utils/syscalls/gcc/syscalls.o
 .bss.Fsid      0x2000103c        0x2 src/asf/thirdparty/fatfs/fatfs-r0.09/src/ff.o
 *fill*         0x2000103e        0x2 00
 .bss.FatFs     0x20001040        0x4 src/asf/thirdparty/fatfs/fatfs-r0.09/src/ff.o
 .bss           0x20001044       0x34 c:/program files (x86)/atmel/atmel studio 6.0/extensions/atmel/armgcc/3.3.1.128/armgcctoolchain/bin/../lib/gcc/arm-none-eabi/4.7.0/../../../../arm-none-eabi/lib/thumb\libc.a(lib_a-mallocr.o)
                0x20001044                __malloc_top_pad
                0x20001048                __malloc_current_mallinfo
                0x20001070                __malloc_max_sbrked_mem
                0x20001074                __malloc_max_total_mem
 *(COMMON)
 COMMON         0x20001078      0x902 src/zeppelin_fc.o
                0x20001078                log
                0x2000129c                Script
                0x2000149c                fno
                0x200014bc                fs
                0x200016ec                file_object
                0x20001910                f_script
                0x20001930                f_log
                0x20001950                bw
                0x20001954                dir
                0x20001978                res
                0x20001979                status
 COMMON         0x2000197a        0x5 src/asf/common/services/sleepmgr/sam/sleepmgr.o
                0x2000197a                sleepmgr_locks
 *fill*         0x2000197f        0x1 00
 COMMON         0x20001980        0x4 src/asf/common/utils/stdio/read.o
                0x20001980                ptr_get
 COMMON         0x20001984        0x8 src/asf/common/utils/stdio/write.o
                0x20001984                ptr_put
                0x20001988                stdio_base
 COMMON         0x2000198c       0x18 src/asf/sam/drivers/udp/udp_device.o
                0x2000198c                udd_g_ctrlreq
 COMMON         0x200019a4        0x4 c:/program files (x86)/atmel/atmel studio 6.0/extensions/atmel/armgcc/3.3.1.128/armgcctoolchain/bin/../lib/gcc/arm-none-eabi/4.7.0/../../../../arm-none-eabi/lib/thumb\libc.a(lib_a-reent.o)
                0x200019a4                errno
                0x200019a8                . = ALIGN (0x4)
                0x200019a8                _ebss = .
                0x200019a8                _ezero = .

.stack          0x200019a8     0x2000 load address 0x0040d6c4
                0x200019a8                . = ALIGN (0x8)
                0x200019a8                _sstack = .
                0x200039a8                . = (. + __stack_size__)
 *fill*         0x200019a8     0x2000 00
                0x200039a8                . = ALIGN (0x8)
                0x200039a8                _estack = .
                0x200039a8                . = ALIGN (0x4)
                0x200039a8                _end = .
OUTPUT(Zeppelin-FC.elf elf32-littlearm)

.ARM.attributes
                0x00000000       0x29
 .ARM.attributes
                0x00000000       0x1d c:/program files (x86)/atmel/atmel studio 6.0/extensions/atmel/armgcc/3.3.1.128/armgcctoolchain/bin/../lib/gcc/arm-none-eabi/4.7.0/thumb/crti.o
 .ARM.attributes
                0x0000001d       0x2d c:/program files (x86)/atmel/atmel studio 6.0/extensions/atmel/armgcc/3.3.1.128/armgcctoolchain/bin/../lib/gcc/arm-none-eabi/4.7.0/thumb/crtbegin.o
 .ARM.attributes
                0x0000004a       0x33 src/asf/sam/drivers/pwm/pwm.o
 .ARM.attributes
                0x0000007d       0x33 src/asf/sam/utils/cmsis/sam3s8/source/templates/exceptions.o
 .ARM.attributes
                0x000000b0       0x33 src/asf/sam/utils/cmsis/sam3s8/source/templates/gcc/startup_sam3sd8.o
 .ARM.attributes
                0x000000e3       0x33 src/asf/sam/utils/cmsis/sam3s8/source/templates/system_sam3sd8.o
 .ARM.attributes
                0x00000116       0x33 src/pwmb.o
 .ARM.attributes
                0x00000149       0x33 src/rtc.o
 .ARM.attributes
                0x0000017c       0x33 src/zeppelin_fc.o
 .ARM.attributes
                0x000001af       0x33 src/asf/common/components/memory/sd_mmc/sd_mmc.o
 .ARM.attributes
                0x000001e2       0x33 src/asf/common/services/clock/sam3s/sysclk.o
 .ARM.attributes
                0x00000215       0x33 src/asf/common/services/delay/sam/cycle_counter.o
 .ARM.attributes
                0x00000248       0x33 src/asf/common/services/sleepmgr/sam/sleepmgr.o
 .ARM.attributes
                0x0000027b       0x33 src/asf/common/services/storage/ctrl_access/ctrl_access.o
 .ARM.attributes
                0x000002ae       0x33 src/asf/common/services/usb/class/cdc/device/udi_cdc.o
 .ARM.attributes
                0x000002e1       0x33 src/asf/common/services/usb/class/cdc/device/udi_cdc_desc.o
 .ARM.attributes
                0x00000314       0x33 src/asf/common/services/usb/udc/udc.o
 .ARM.attributes
                0x00000347       0x33 src/asf/common/utils/interrupt/interrupt_sam_nvic.o
 .ARM.attributes
                0x0000037a       0x33 src/asf/common/utils/stdio/read.o
 .ARM.attributes
                0x000003ad       0x33 src/asf/common/utils/stdio/stdio_usb/stdio_usb.o
 .ARM.attributes
                0x000003e0       0x33 src/asf/common/utils/stdio/write.o
 .ARM.attributes
                0x00000413       0x33 src/asf/sam/boards/sam3s_ek/init.o
 .ARM.attributes
                0x00000446       0x33 src/asf/sam/drivers/hsmci/hsmci.o
 .ARM.attributes
                0x00000479       0x33 src/asf/sam/drivers/pio/pio.o
 .ARM.attributes
                0x000004ac       0x33 src/asf/sam/drivers/pio/pio_handler.o
 .ARM.attributes
                0x000004df       0x33 src/asf/sam/drivers/pmc/pmc.o
 .ARM.attributes
                0x00000512       0x33 src/asf/sam/drivers/rtc/rtc.o
 .ARM.attributes
                0x00000545       0x33 src/asf/sam/drivers/udp/udp_device.o
 .ARM.attributes
                0x00000578       0x33 src/asf/sam/utils/syscalls/gcc/syscalls.o
 .ARM.attributes
                0x000005ab       0x33 src/asf/thirdparty/fatfs/fatfs-port-r0.09/diskio.o
 .ARM.attributes
                0x000005de       0x33 src/asf/thirdparty/fatfs/fatfs-port-r0.09/sam/fattime.o
 .ARM.attributes
                0x00000611       0x33 src/asf/thirdparty/fatfs/fatfs-r0.09/src/ff.o
 .ARM.attributes
                0x00000644       0x33 src/asf/thirdparty/fatfs/fatfs-r0.09/src/option/ccsbcs.o
 .ARM.attributes
                0x00000677       0x33 src/sd_mmc_mem.o
 .ARM.attributes
                0x000006aa       0x33 src/stdio_usb_example.o
 .ARM.attributes
                0x000006dd       0x2d c:/program files (x86)/atmel/atmel studio 6.0/extensions/atmel/armgcc/3.3.1.128/armgcctoolchain/bin/../lib/gcc/arm-none-eabi/4.7.0/../../../../arm-none-eabi/lib/thumb\libc.a(lib_a-atexit.o)
 .ARM.attributes
                0x0000070a       0x2d c:/program files (x86)/atmel/atmel studio 6.0/extensions/atmel/armgcc/3.3.1.128/armgcctoolchain/bin/../lib/gcc/arm-none-eabi/4.7.0/../../../../arm-none-eabi/lib/thumb\libc.a(lib_a-fini.o)
 .ARM.attributes
                0x00000737       0x2d c:/program files (x86)/atmel/atmel studio 6.0/extensions/atmel/armgcc/3.3.1.128/armgcctoolchain/bin/../lib/gcc/arm-none-eabi/4.7.0/../../../../arm-none-eabi/lib/thumb\libc.a(lib_a-impure.o)
 .ARM.attributes
                0x00000764       0x2d c:/program files (x86)/atmel/atmel studio 6.0/extensions/atmel/armgcc/3.3.1.128/armgcctoolchain/bin/../lib/gcc/arm-none-eabi/4.7.0/../../../../arm-none-eabi/lib/thumb\libc.a(lib_a-init.o)
 .ARM.attributes
                0x00000791       0x2d c:/program files (x86)/atmel/atmel studio 6.0/extensions/atmel/armgcc/3.3.1.128/armgcctoolchain/bin/../lib/gcc/arm-none-eabi/4.7.0/../../../../arm-none-eabi/lib/thumb\libc.a(lib_a-memcpy.o)
 .ARM.attributes
                0x000007be       0x2d c:/program files (x86)/atmel/atmel studio 6.0/extensions/atmel/armgcc/3.3.1.128/armgcctoolchain/bin/../lib/gcc/arm-none-eabi/4.7.0/../../../../arm-none-eabi/lib/thumb\libc.a(lib_a-memset.o)
 .ARM.attributes
                0x000007eb       0x2d c:/program files (x86)/atmel/atmel studio 6.0/extensions/atmel/armgcc/3.3.1.128/armgcctoolchain/bin/../lib/gcc/arm-none-eabi/4.7.0/../../../../arm-none-eabi/lib/thumb\libc.a(lib_a-printf.o)
 .ARM.attributes
                0x00000818       0x2d c:/program files (x86)/atmel/atmel studio 6.0/extensions/atmel/armgcc/3.3.1.128/armgcctoolchain/bin/../lib/gcc/arm-none-eabi/4.7.0/../../../../arm-none-eabi/lib/thumb\libc.a(lib_a-puts.o)
 .ARM.attributes
                0x00000845       0x2d c:/program files (x86)/atmel/atmel studio 6.0/extensions/atmel/armgcc/3.3.1.128/armgcctoolchain/bin/../lib/gcc/arm-none-eabi/4.7.0/../../../../arm-none-eabi/lib/thumb\libc.a(lib_a-setbuf.o)
 .ARM.attributes
                0x00000872       0x2d c:/program files (x86)/atmel/atmel studio 6.0/extensions/atmel/armgcc/3.3.1.128/armgcctoolchain/bin/../lib/gcc/arm-none-eabi/4.7.0/../../../../arm-none-eabi/lib/thumb\libc.a(lib_a-setvbuf.o)
 .ARM.attributes
                0x0000089f       0x2d c:/program files (x86)/atmel/atmel studio 6.0/extensions/atmel/armgcc/3.3.1.128/armgcctoolchain/bin/../lib/gcc/arm-none-eabi/4.7.0/../../../../arm-none-eabi/lib/thumb\libc.a(lib_a-sprintf.o)
 .ARM.attributes
                0x000008cc       0x2d c:/program files (x86)/atmel/atmel studio 6.0/extensions/atmel/armgcc/3.3.1.128/armgcctoolchain/bin/../lib/gcc/arm-none-eabi/4.7.0/../../../../arm-none-eabi/lib/thumb\libc.a(lib_a-strlen.o)
 .ARM.attributes
                0x000008f9       0x2d c:/program files (x86)/atmel/atmel studio 6.0/extensions/atmel/armgcc/3.3.1.128/armgcctoolchain/bin/../lib/gcc/arm-none-eabi/4.7.0/../../../../arm-none-eabi/lib/thumb\libc.a(lib_a-svfprintf.o)
 .ARM.attributes
                0x00000926       0x2d c:/program files (x86)/atmel/atmel studio 6.0/extensions/atmel/armgcc/3.3.1.128/armgcctoolchain/bin/../lib/gcc/arm-none-eabi/4.7.0/../../../../arm-none-eabi/lib/thumb\libc.a(lib_a-vfiprintf.o)
 .ARM.attributes
                0x00000953       0x2d c:/program files (x86)/atmel/atmel studio 6.0/extensions/atmel/armgcc/3.3.1.128/armgcctoolchain/bin/../lib/gcc/arm-none-eabi/4.7.0/../../../../arm-none-eabi/lib/thumb\libc.a(lib_a-vfprintf.o)
 .ARM.attributes
                0x00000980       0x2d c:/program files (x86)/atmel/atmel studio 6.0/extensions/atmel/armgcc/3.3.1.128/armgcctoolchain/bin/../lib/gcc/arm-none-eabi/4.7.0/../../../../arm-none-eabi/lib/thumb\libc.a(lib_a-wsetup.o)
 .ARM.attributes
                0x000009ad       0x2d c:/program files (x86)/atmel/atmel studio 6.0/extensions/atmel/armgcc/3.3.1.128/armgcctoolchain/bin/../lib/gcc/arm-none-eabi/4.7.0/../../../../arm-none-eabi/lib/thumb\libc.a(lib_a-__atexit.o)
 .ARM.attributes
                0x000009da       0x2d c:/program files (x86)/atmel/atmel studio 6.0/extensions/atmel/armgcc/3.3.1.128/armgcctoolchain/bin/../lib/gcc/arm-none-eabi/4.7.0/../../../../arm-none-eabi/lib/thumb\libc.a(lib_a-__call_atexit.o)
 .ARM.attributes
                0x00000a07       0x2d c:/program files (x86)/atmel/atmel studio 6.0/extensions/atmel/armgcc/3.3.1.128/armgcctoolchain/bin/../lib/gcc/arm-none-eabi/4.7.0/../../../../arm-none-eabi/lib/thumb\libc.a(lib_a-fflush.o)
 .ARM.attributes
                0x00000a34       0x2d c:/program files (x86)/atmel/atmel studio 6.0/extensions/atmel/armgcc/3.3.1.128/armgcctoolchain/bin/../lib/gcc/arm-none-eabi/4.7.0/../../../../arm-none-eabi/lib/thumb\libc.a(lib_a-findfp.o)
 .ARM.attributes
                0x00000a61       0x2d c:/program files (x86)/atmel/atmel studio 6.0/extensions/atmel/armgcc/3.3.1.128/armgcctoolchain/bin/../lib/gcc/arm-none-eabi/4.7.0/../../../../arm-none-eabi/lib/thumb\libc.a(lib_a-fputwc.o)
 .ARM.attributes
                0x00000a8e       0x2d c:/program files (x86)/atmel/atmel studio 6.0/extensions/atmel/armgcc/3.3.1.128/armgcctoolchain/bin/../lib/gcc/arm-none-eabi/4.7.0/../../../../arm-none-eabi/lib/thumb\libc.a(lib_a-freer.o)
 .ARM.attributes
                0x00000abb       0x2d c:/program files (x86)/atmel/atmel studio 6.0/extensions/atmel/armgcc/3.3.1.128/armgcctoolchain/bin/../lib/gcc/arm-none-eabi/4.7.0/../../../../arm-none-eabi/lib/thumb\libc.a(lib_a-fvwrite.o)
 .ARM.attributes
                0x00000ae8       0x2d c:/program files (x86)/atmel/atmel studio 6.0/extensions/atmel/armgcc/3.3.1.128/armgcctoolchain/bin/../lib/gcc/arm-none-eabi/4.7.0/../../../../arm-none-eabi/lib/thumb\libc.a(lib_a-fwalk.o)
 .ARM.attributes
                0x00000b15       0x2d c:/program files (x86)/atmel/atmel studio 6.0/extensions/atmel/armgcc/3.3.1.128/armgcctoolchain/bin/../lib/gcc/arm-none-eabi/4.7.0/../../../../arm-none-eabi/lib/thumb\libc.a(lib_a-locale.o)
 .ARM.attributes
                0x00000b42       0x2d c:/program files (x86)/atmel/atmel studio 6.0/extensions/atmel/armgcc/3.3.1.128/armgcctoolchain/bin/../lib/gcc/arm-none-eabi/4.7.0/../../../../arm-none-eabi/lib/thumb\libc.a(lib_a-makebuf.o)
 .ARM.attributes
                0x00000b6f       0x2d c:/program files (x86)/atmel/atmel studio 6.0/extensions/atmel/armgcc/3.3.1.128/armgcctoolchain/bin/../lib/gcc/arm-none-eabi/4.7.0/../../../../arm-none-eabi/lib/thumb\libc.a(lib_a-malloc.o)
 .ARM.attributes
                0x00000b9c       0x2d c:/program files (x86)/atmel/atmel studio 6.0/extensions/atmel/armgcc/3.3.1.128/armgcctoolchain/bin/../lib/gcc/arm-none-eabi/4.7.0/../../../../arm-none-eabi/lib/thumb\libc.a(lib_a-mallocr.o)
 .ARM.attributes
                0x00000bc9       0x2d c:/program files (x86)/atmel/atmel studio 6.0/extensions/atmel/armgcc/3.3.1.128/armgcctoolchain/bin/../lib/gcc/arm-none-eabi/4.7.0/../../../../arm-none-eabi/lib/thumb\libc.a(lib_a-memchr.o)
 .ARM.attributes
                0x00000bf6       0x2d c:/program files (x86)/atmel/atmel studio 6.0/extensions/atmel/armgcc/3.3.1.128/armgcctoolchain/bin/../lib/gcc/arm-none-eabi/4.7.0/../../../../arm-none-eabi/lib/thumb\libc.a(lib_a-memmove.o)
 .ARM.attributes
                0x00000c23       0x2d c:/program files (x86)/atmel/atmel studio 6.0/extensions/atmel/armgcc/3.3.1.128/armgcctoolchain/bin/../lib/gcc/arm-none-eabi/4.7.0/../../../../arm-none-eabi/lib/thumb\libc.a(lib_a-mlock.o)
 .ARM.attributes
                0x00000c50       0x2d c:/program files (x86)/atmel/atmel studio 6.0/extensions/atmel/armgcc/3.3.1.128/armgcctoolchain/bin/../lib/gcc/arm-none-eabi/4.7.0/../../../../arm-none-eabi/lib/thumb\libc.a(lib_a-reallocr.o)
 .ARM.attributes
                0x00000c7d       0x2d c:/program files (x86)/atmel/atmel studio 6.0/extensions/atmel/armgcc/3.3.1.128/armgcctoolchain/bin/../lib/gcc/arm-none-eabi/4.7.0/../../../../arm-none-eabi/lib/thumb\libc.a(lib_a-sbrkr.o)
 .ARM.attributes
                0x00000caa       0x2d c:/program files (x86)/atmel/atmel studio 6.0/extensions/atmel/armgcc/3.3.1.128/armgcctoolchain/bin/../lib/gcc/arm-none-eabi/4.7.0/../../../../arm-none-eabi/lib/thumb\libc.a(lib_a-stdio.o)
 .ARM.attributes
                0x00000cd7       0x2d c:/program files (x86)/atmel/atmel studio 6.0/extensions/atmel/armgcc/3.3.1.128/armgcctoolchain/bin/../lib/gcc/arm-none-eabi/4.7.0/../../../../arm-none-eabi/lib/thumb\libc.a(lib_a-strcmp.o)
 .ARM.attributes
                0x00000d04       0x2d c:/program files (x86)/atmel/atmel studio 6.0/extensions/atmel/armgcc/3.3.1.128/armgcctoolchain/bin/../lib/gcc/arm-none-eabi/4.7.0/../../../../arm-none-eabi/lib/thumb\libc.a(lib_a-svfiprintf.o)
 .ARM.attributes
                0x00000d31       0x2d c:/program files (x86)/atmel/atmel studio 6.0/extensions/atmel/armgcc/3.3.1.128/armgcctoolchain/bin/../lib/gcc/arm-none-eabi/4.7.0/../../../../arm-none-eabi/lib/thumb\libc.a(lib_a-wbuf.o)
 .ARM.attributes
                0x00000d5e       0x2d c:/program files (x86)/atmel/atmel studio 6.0/extensions/atmel/armgcc/3.3.1.128/armgcctoolchain/bin/../lib/gcc/arm-none-eabi/4.7.0/../../../../arm-none-eabi/lib/thumb\libc.a(lib_a-wcrtomb.o)
 .ARM.attributes
                0x00000d8b       0x2d c:/program files (x86)/atmel/atmel studio 6.0/extensions/atmel/armgcc/3.3.1.128/armgcctoolchain/bin/../lib/gcc/arm-none-eabi/4.7.0/../../../../arm-none-eabi/lib/thumb\libc.a(lib_a-wctomb_r.o)
 .ARM.attributes
                0x00000db8       0x2d c:/program files (x86)/atmel/atmel studio 6.0/extensions/atmel/armgcc/3.3.1.128/armgcctoolchain/bin/../lib/gcc/arm-none-eabi/4.7.0/../../../../arm-none-eabi/lib/thumb\libc.a(lib_a-writer.o)
 .ARM.attributes
                0x00000de5       0x2d c:/program files (x86)/atmel/atmel studio 6.0/extensions/atmel/armgcc/3.3.1.128/armgcctoolchain/bin/../lib/gcc/arm-none-eabi/4.7.0/../../../../arm-none-eabi/lib/thumb\libc.a(lib_a-closer.o)
 .ARM.attributes
                0x00000e12       0x2d c:/program files (x86)/atmel/atmel studio 6.0/extensions/atmel/armgcc/3.3.1.128/armgcctoolchain/bin/../lib/gcc/arm-none-eabi/4.7.0/../../../../arm-none-eabi/lib/thumb\libc.a(lib_a-fclose.o)
 .ARM.attributes
                0x00000e3f       0x2d c:/program files (x86)/atmel/atmel studio 6.0/extensions/atmel/armgcc/3.3.1.128/armgcctoolchain/bin/../lib/gcc/arm-none-eabi/4.7.0/../../../../arm-none-eabi/lib/thumb\libc.a(lib_a-fstatr.o)
 .ARM.attributes
                0x00000e6c       0x2d c:/program files (x86)/atmel/atmel studio 6.0/extensions/atmel/armgcc/3.3.1.128/armgcctoolchain/bin/../lib/gcc/arm-none-eabi/4.7.0/../../../../arm-none-eabi/lib/thumb\libc.a(lib_a-isattyr.o)
 .ARM.attributes
                0x00000e99       0x2d c:/program files (x86)/atmel/atmel studio 6.0/extensions/atmel/armgcc/3.3.1.128/armgcctoolchain/bin/../lib/gcc/arm-none-eabi/4.7.0/../../../../arm-none-eabi/lib/thumb\libc.a(lib_a-lseekr.o)
 .ARM.attributes
                0x00000ec6       0x2d c:/program files (x86)/atmel/atmel studio 6.0/extensions/atmel/armgcc/3.3.1.128/armgcctoolchain/bin/../lib/gcc/arm-none-eabi/4.7.0/../../../../arm-none-eabi/lib/thumb\libc.a(lib_a-readr.o)
 .ARM.attributes
                0x00000ef3       0x2d c:/program files (x86)/atmel/atmel studio 6.0/extensions/atmel/armgcc/3.3.1.128/armgcctoolchain/bin/../lib/gcc/arm-none-eabi/4.7.0/../../../../arm-none-eabi/lib/thumb\libc.a(lib_a-reent.o)
 .ARM.attributes
                0x00000f20       0x1d c:/program files (x86)/atmel/atmel studio 6.0/extensions/atmel/armgcc/3.3.1.128/armgcctoolchain/bin/../lib/gcc/arm-none-eabi/4.7.0/thumb\libgcc.a(_aeabi_uldivmod.o)
 .ARM.attributes
                0x00000f3d       0x2d c:/program files (x86)/atmel/atmel studio 6.0/extensions/atmel/armgcc/3.3.1.128/armgcctoolchain/bin/../lib/gcc/arm-none-eabi/4.7.0/thumb\libgcc.a(bpabi.o)
 .ARM.attributes
                0x00000f6a       0x1d c:/program files (x86)/atmel/atmel studio 6.0/extensions/atmel/armgcc/3.3.1.128/armgcctoolchain/bin/../lib/gcc/arm-none-eabi/4.7.0/thumb\libgcc.a(_dvmd_tls.o)
 .ARM.attributes
                0x00000f87       0x2d c:/program files (x86)/atmel/atmel studio 6.0/extensions/atmel/armgcc/3.3.1.128/armgcctoolchain/bin/../lib/gcc/arm-none-eabi/4.7.0/thumb\libgcc.a(_divdi3.o)
 .ARM.attributes
                0x00000fb4       0x2d c:/program files (x86)/atmel/atmel studio 6.0/extensions/atmel/armgcc/3.3.1.128/armgcctoolchain/bin/../lib/gcc/arm-none-eabi/4.7.0/thumb\libgcc.a(_udivdi3.o)
 .ARM.attributes
                0x00000fe1       0x2d c:/program files (x86)/atmel/atmel studio 6.0/extensions/atmel/armgcc/3.3.1.128/armgcctoolchain/bin/../lib/gcc/arm-none-eabi/4.7.0/thumb/crtend.o
 .ARM.attributes
                0x0000100e       0x1d c:/program files (x86)/atmel/atmel studio 6.0/extensions/atmel/armgcc/3.3.1.128/armgcctoolchain/bin/../lib/gcc/arm-none-eabi/4.7.0/thumb/crtn.o

.comment        0x00000000       0x33
 .comment       0x00000000       0x33 c:/program files (x86)/atmel/atmel studio 6.0/extensions/atmel/armgcc/3.3.1.128/armgcctoolchain/bin/../lib/gcc/arm-none-eabi/4.7.0/thumb/crtbegin.o
                                 0x34 (size before relaxing)
 .comment       0x00000000       0x34 src/asf/sam/drivers/pwm/pwm.o
 .comment       0x00000000       0x34 src/asf/sam/utils/cmsis/sam3s8/source/templates/exceptions.o
 .comment       0x00000000       0x34 src/asf/sam/utils/cmsis/sam3s8/source/templates/gcc/startup_sam3sd8.o
 .comment       0x00000000       0x34 src/asf/sam/utils/cmsis/sam3s8/source/templates/system_sam3sd8.o
 .comment       0x00000000       0x34 src/pwmb.o
 .comment       0x00000000       0x34 src/rtc.o
 .comment       0x00000000       0x34 src/zeppelin_fc.o
 .comment       0x00000000       0x34 src/asf/common/components/memory/sd_mmc/sd_mmc.o
 .comment       0x00000000       0x34 src/asf/common/services/clock/sam3s/sysclk.o
 .comment       0x00000000       0x34 src/asf/common/services/delay/sam/cycle_counter.o
 .comment       0x00000000       0x34 src/asf/common/services/sleepmgr/sam/sleepmgr.o
 .comment       0x00000000       0x34 src/asf/common/services/storage/ctrl_access/ctrl_access.o
 .comment       0x00000000       0x34 src/asf/common/services/usb/class/cdc/device/udi_cdc.o
 .comment       0x00000000       0x34 src/asf/common/services/usb/class/cdc/device/udi_cdc_desc.o
 .comment       0x00000000       0x34 src/asf/common/services/usb/udc/udc.o
 .comment       0x00000000       0x34 src/asf/common/utils/interrupt/interrupt_sam_nvic.o
 .comment       0x00000000       0x34 src/asf/common/utils/stdio/read.o
 .comment       0x00000000       0x34 src/asf/common/utils/stdio/stdio_usb/stdio_usb.o
 .comment       0x00000000       0x34 src/asf/common/utils/stdio/write.o
 .comment       0x00000000       0x34 src/asf/sam/boards/sam3s_ek/init.o
 .comment       0x00000000       0x34 src/asf/sam/drivers/hsmci/hsmci.o
 .comment       0x00000000       0x34 src/asf/sam/drivers/pio/pio.o
 .comment       0x00000000       0x34 src/asf/sam/drivers/pio/pio_handler.o
 .comment       0x00000000       0x34 src/asf/sam/drivers/pmc/pmc.o
 .comment       0x00000000       0x34 src/asf/sam/drivers/rtc/rtc.o
 .comment       0x00000000       0x34 src/asf/sam/drivers/udp/udp_device.o
 .comment       0x00000000       0x34 src/asf/sam/utils/syscalls/gcc/syscalls.o
 .comment       0x00000000       0x34 src/asf/thirdparty/fatfs/fatfs-port-r0.09/diskio.o
 .comment       0x00000000       0x34 src/asf/thirdparty/fatfs/fatfs-port-r0.09/sam/fattime.o
 .comment       0x00000000       0x34 src/asf/thirdparty/fatfs/fatfs-r0.09/src/ff.o
 .comment       0x00000000       0x34 src/asf/thirdparty/fatfs/fatfs-r0.09/src/option/ccsbcs.o
 .comment       0x00000000       0x34 src/sd_mmc_mem.o
 .comment       0x00000000       0x34 src/stdio_usb_example.o
 .comment       0x00000000       0x34 c:/program files (x86)/atmel/atmel studio 6.0/extensions/atmel/armgcc/3.3.1.128/armgcctoolchain/bin/../lib/gcc/arm-none-eabi/4.7.0/../../../../arm-none-eabi/lib/thumb\libc.a(lib_a-atexit.o)
 .comment       0x00000000       0x34 c:/program files (x86)/atmel/atmel studio 6.0/extensions/atmel/armgcc/3.3.1.128/armgcctoolchain/bin/../lib/gcc/arm-none-eabi/4.7.0/../../../../arm-none-eabi/lib/thumb\libc.a(lib_a-fini.o)
 .comment       0x00000000       0x34 c:/program files (x86)/atmel/atmel studio 6.0/extensions/atmel/armgcc/3.3.1.128/armgcctoolchain/bin/../lib/gcc/arm-none-eabi/4.7.0/../../../../arm-none-eabi/lib/thumb\libc.a(lib_a-impure.o)
 .comment       0x00000000       0x34 c:/program files (x86)/atmel/atmel studio 6.0/extensions/atmel/armgcc/3.3.1.128/armgcctoolchain/bin/../lib/gcc/arm-none-eabi/4.7.0/../../../../arm-none-eabi/lib/thumb\libc.a(lib_a-init.o)
 .comment       0x00000000       0x34 c:/program files (x86)/atmel/atmel studio 6.0/extensions/atmel/armgcc/3.3.1.128/armgcctoolchain/bin/../lib/gcc/arm-none-eabi/4.7.0/../../../../arm-none-eabi/lib/thumb\libc.a(lib_a-memcpy.o)
 .comment       0x00000000       0x34 c:/program files (x86)/atmel/atmel studio 6.0/extensions/atmel/armgcc/3.3.1.128/armgcctoolchain/bin/../lib/gcc/arm-none-eabi/4.7.0/../../../../arm-none-eabi/lib/thumb\libc.a(lib_a-memset.o)
 .comment       0x00000000       0x34 c:/program files (x86)/atmel/atmel studio 6.0/extensions/atmel/armgcc/3.3.1.128/armgcctoolchain/bin/../lib/gcc/arm-none-eabi/4.7.0/../../../../arm-none-eabi/lib/thumb\libc.a(lib_a-printf.o)
 .comment       0x00000000       0x34 c:/program files (x86)/atmel/atmel studio 6.0/extensions/atmel/armgcc/3.3.1.128/armgcctoolchain/bin/../lib/gcc/arm-none-eabi/4.7.0/../../../../arm-none-eabi/lib/thumb\libc.a(lib_a-puts.o)
 .comment       0x00000000       0x34 c:/program files (x86)/atmel/atmel studio 6.0/extensions/atmel/armgcc/3.3.1.128/armgcctoolchain/bin/../lib/gcc/arm-none-eabi/4.7.0/../../../../arm-none-eabi/lib/thumb\libc.a(lib_a-setbuf.o)
 .comment       0x00000000       0x34 c:/program files (x86)/atmel/atmel studio 6.0/extensions/atmel/armgcc/3.3.1.128/armgcctoolchain/bin/../lib/gcc/arm-none-eabi/4.7.0/../../../../arm-none-eabi/lib/thumb\libc.a(lib_a-setvbuf.o)
 .comment       0x00000000       0x34 c:/program files (x86)/atmel/atmel studio 6.0/extensions/atmel/armgcc/3.3.1.128/armgcctoolchain/bin/../lib/gcc/arm-none-eabi/4.7.0/../../../../arm-none-eabi/lib/thumb\libc.a(lib_a-sprintf.o)
 .comment       0x00000000       0x34 c:/program files (x86)/atmel/atmel studio 6.0/extensions/atmel/armgcc/3.3.1.128/armgcctoolchain/bin/../lib/gcc/arm-none-eabi/4.7.0/../../../../arm-none-eabi/lib/thumb\libc.a(lib_a-strlen.o)
 .comment       0x00000000       0x34 c:/program files (x86)/atmel/atmel studio 6.0/extensions/atmel/armgcc/3.3.1.128/armgcctoolchain/bin/../lib/gcc/arm-none-eabi/4.7.0/../../../../arm-none-eabi/lib/thumb\libc.a(lib_a-svfprintf.o)
 .comment       0x00000000       0x34 c:/program files (x86)/atmel/atmel studio 6.0/extensions/atmel/armgcc/3.3.1.128/armgcctoolchain/bin/../lib/gcc/arm-none-eabi/4.7.0/../../../../arm-none-eabi/lib/thumb\libc.a(lib_a-vfiprintf.o)
 .comment       0x00000000       0x34 c:/program files (x86)/atmel/atmel studio 6.0/extensions/atmel/armgcc/3.3.1.128/armgcctoolchain/bin/../lib/gcc/arm-none-eabi/4.7.0/../../../../arm-none-eabi/lib/thumb\libc.a(lib_a-vfprintf.o)
 .comment       0x00000000       0x34 c:/program files (x86)/atmel/atmel studio 6.0/extensions/atmel/armgcc/3.3.1.128/armgcctoolchain/bin/../lib/gcc/arm-none-eabi/4.7.0/../../../../arm-none-eabi/lib/thumb\libc.a(lib_a-wsetup.o)
 .comment       0x00000000       0x34 c:/program files (x86)/atmel/atmel studio 6.0/extensions/atmel/armgcc/3.3.1.128/armgcctoolchain/bin/../lib/gcc/arm-none-eabi/4.7.0/../../../../arm-none-eabi/lib/thumb\libc.a(lib_a-__atexit.o)
 .comment       0x00000000       0x34 c:/program files (x86)/atmel/atmel studio 6.0/extensions/atmel/armgcc/3.3.1.128/armgcctoolchain/bin/../lib/gcc/arm-none-eabi/4.7.0/../../../../arm-none-eabi/lib/thumb\libc.a(lib_a-__call_atexit.o)
 .comment       0x00000000       0x34 c:/program files (x86)/atmel/atmel studio 6.0/extensions/atmel/armgcc/3.3.1.128/armgcctoolchain/bin/../lib/gcc/arm-none-eabi/4.7.0/../../../../arm-none-eabi/lib/thumb\libc.a(lib_a-fflush.o)
 .comment       0x00000000       0x34 c:/program files (x86)/atmel/atmel studio 6.0/extensions/atmel/armgcc/3.3.1.128/armgcctoolchain/bin/../lib/gcc/arm-none-eabi/4.7.0/../../../../arm-none-eabi/lib/thumb\libc.a(lib_a-findfp.o)
 .comment       0x00000000       0x34 c:/program files (x86)/atmel/atmel studio 6.0/extensions/atmel/armgcc/3.3.1.128/armgcctoolchain/bin/../lib/gcc/arm-none-eabi/4.7.0/../../../../arm-none-eabi/lib/thumb\libc.a(lib_a-fputwc.o)
 .comment       0x00000000       0x34 c:/program files (x86)/atmel/atmel studio 6.0/extensions/atmel/armgcc/3.3.1.128/armgcctoolchain/bin/../lib/gcc/arm-none-eabi/4.7.0/../../../../arm-none-eabi/lib/thumb\libc.a(lib_a-freer.o)
 .comment       0x00000000       0x34 c:/program files (x86)/atmel/atmel studio 6.0/extensions/atmel/armgcc/3.3.1.128/armgcctoolchain/bin/../lib/gcc/arm-none-eabi/4.7.0/../../../../arm-none-eabi/lib/thumb\libc.a(lib_a-fvwrite.o)
 .comment       0x00000000       0x34 c:/program files (x86)/atmel/atmel studio 6.0/extensions/atmel/armgcc/3.3.1.128/armgcctoolchain/bin/../lib/gcc/arm-none-eabi/4.7.0/../../../../arm-none-eabi/lib/thumb\libc.a(lib_a-fwalk.o)
 .comment       0x00000000       0x34 c:/program files (x86)/atmel/atmel studio 6.0/extensions/atmel/armgcc/3.3.1.128/armgcctoolchain/bin/../lib/gcc/arm-none-eabi/4.7.0/../../../../arm-none-eabi/lib/thumb\libc.a(lib_a-locale.o)
 .comment       0x00000000       0x34 c:/program files (x86)/atmel/atmel studio 6.0/extensions/atmel/armgcc/3.3.1.128/armgcctoolchain/bin/../lib/gcc/arm-none-eabi/4.7.0/../../../../arm-none-eabi/lib/thumb\libc.a(lib_a-makebuf.o)
 .comment       0x00000000       0x34 c:/program files (x86)/atmel/atmel studio 6.0/extensions/atmel/armgcc/3.3.1.128/armgcctoolchain/bin/../lib/gcc/arm-none-eabi/4.7.0/../../../../arm-none-eabi/lib/thumb\libc.a(lib_a-malloc.o)
 .comment       0x00000000       0x34 c:/program files (x86)/atmel/atmel studio 6.0/extensions/atmel/armgcc/3.3.1.128/armgcctoolchain/bin/../lib/gcc/arm-none-eabi/4.7.0/../../../../arm-none-eabi/lib/thumb\libc.a(lib_a-mallocr.o)
 .comment       0x00000000       0x34 c:/program files (x86)/atmel/atmel studio 6.0/extensions/atmel/armgcc/3.3.1.128/armgcctoolchain/bin/../lib/gcc/arm-none-eabi/4.7.0/../../../../arm-none-eabi/lib/thumb\libc.a(lib_a-memchr.o)
 .comment       0x00000000       0x34 c:/program files (x86)/atmel/atmel studio 6.0/extensions/atmel/armgcc/3.3.1.128/armgcctoolchain/bin/../lib/gcc/arm-none-eabi/4.7.0/../../../../arm-none-eabi/lib/thumb\libc.a(lib_a-memmove.o)
 .comment       0x00000000       0x34 c:/program files (x86)/atmel/atmel studio 6.0/extensions/atmel/armgcc/3.3.1.128/armgcctoolchain/bin/../lib/gcc/arm-none-eabi/4.7.0/../../../../arm-none-eabi/lib/thumb\libc.a(lib_a-mlock.o)
 .comment       0x00000000       0x34 c:/program files (x86)/atmel/atmel studio 6.0/extensions/atmel/armgcc/3.3.1.128/armgcctoolchain/bin/../lib/gcc/arm-none-eabi/4.7.0/../../../../arm-none-eabi/lib/thumb\libc.a(lib_a-reallocr.o)
 .comment       0x00000000       0x34 c:/program files (x86)/atmel/atmel studio 6.0/extensions/atmel/armgcc/3.3.1.128/armgcctoolchain/bin/../lib/gcc/arm-none-eabi/4.7.0/../../../../arm-none-eabi/lib/thumb\libc.a(lib_a-sbrkr.o)
 .comment       0x00000000       0x34 c:/program files (x86)/atmel/atmel studio 6.0/extensions/atmel/armgcc/3.3.1.128/armgcctoolchain/bin/../lib/gcc/arm-none-eabi/4.7.0/../../../../arm-none-eabi/lib/thumb\libc.a(lib_a-stdio.o)
 .comment       0x00000000       0x34 c:/program files (x86)/atmel/atmel studio 6.0/extensions/atmel/armgcc/3.3.1.128/armgcctoolchain/bin/../lib/gcc/arm-none-eabi/4.7.0/../../../../arm-none-eabi/lib/thumb\libc.a(lib_a-strcmp.o)
 .comment       0x00000000       0x34 c:/program files (x86)/atmel/atmel studio 6.0/extensions/atmel/armgcc/3.3.1.128/armgcctoolchain/bin/../lib/gcc/arm-none-eabi/4.7.0/../../../../arm-none-eabi/lib/thumb\libc.a(lib_a-svfiprintf.o)
 .comment       0x00000000       0x34 c:/program files (x86)/atmel/atmel studio 6.0/extensions/atmel/armgcc/3.3.1.128/armgcctoolchain/bin/../lib/gcc/arm-none-eabi/4.7.0/../../../../arm-none-eabi/lib/thumb\libc.a(lib_a-wbuf.o)
 .comment       0x00000000       0x34 c:/program files (x86)/atmel/atmel studio 6.0/extensions/atmel/armgcc/3.3.1.128/armgcctoolchain/bin/../lib/gcc/arm-none-eabi/4.7.0/../../../../arm-none-eabi/lib/thumb\libc.a(lib_a-wcrtomb.o)
 .comment       0x00000000       0x34 c:/program files (x86)/atmel/atmel studio 6.0/extensions/atmel/armgcc/3.3.1.128/armgcctoolchain/bin/../lib/gcc/arm-none-eabi/4.7.0/../../../../arm-none-eabi/lib/thumb\libc.a(lib_a-wctomb_r.o)
 .comment       0x00000000       0x34 c:/program files (x86)/atmel/atmel studio 6.0/extensions/atmel/armgcc/3.3.1.128/armgcctoolchain/bin/../lib/gcc/arm-none-eabi/4.7.0/../../../../arm-none-eabi/lib/thumb\libc.a(lib_a-writer.o)
 .comment       0x00000000       0x34 c:/program files (x86)/atmel/atmel studio 6.0/extensions/atmel/armgcc/3.3.1.128/armgcctoolchain/bin/../lib/gcc/arm-none-eabi/4.7.0/../../../../arm-none-eabi/lib/thumb\libc.a(lib_a-closer.o)
 .comment       0x00000000       0x34 c:/program files (x86)/atmel/atmel studio 6.0/extensions/atmel/armgcc/3.3.1.128/armgcctoolchain/bin/../lib/gcc/arm-none-eabi/4.7.0/../../../../arm-none-eabi/lib/thumb\libc.a(lib_a-fclose.o)
 .comment       0x00000000       0x34 c:/program files (x86)/atmel/atmel studio 6.0/extensions/atmel/armgcc/3.3.1.128/armgcctoolchain/bin/../lib/gcc/arm-none-eabi/4.7.0/../../../../arm-none-eabi/lib/thumb\libc.a(lib_a-fstatr.o)
 .comment       0x00000000       0x34 c:/program files (x86)/atmel/atmel studio 6.0/extensions/atmel/armgcc/3.3.1.128/armgcctoolchain/bin/../lib/gcc/arm-none-eabi/4.7.0/../../../../arm-none-eabi/lib/thumb\libc.a(lib_a-isattyr.o)
 .comment       0x00000000       0x34 c:/program files (x86)/atmel/atmel studio 6.0/extensions/atmel/armgcc/3.3.1.128/armgcctoolchain/bin/../lib/gcc/arm-none-eabi/4.7.0/../../../../arm-none-eabi/lib/thumb\libc.a(lib_a-lseekr.o)
 .comment       0x00000000       0x34 c:/program files (x86)/atmel/atmel studio 6.0/extensions/atmel/armgcc/3.3.1.128/armgcctoolchain/bin/../lib/gcc/arm-none-eabi/4.7.0/../../../../arm-none-eabi/lib/thumb\libc.a(lib_a-readr.o)
 .comment       0x00000000       0x34 c:/program files (x86)/atmel/atmel studio 6.0/extensions/atmel/armgcc/3.3.1.128/armgcctoolchain/bin/../lib/gcc/arm-none-eabi/4.7.0/../../../../arm-none-eabi/lib/thumb\libc.a(lib_a-reent.o)
 .comment       0x00000000       0x34 c:/program files (x86)/atmel/atmel studio 6.0/extensions/atmel/armgcc/3.3.1.128/armgcctoolchain/bin/../lib/gcc/arm-none-eabi/4.7.0/thumb\libgcc.a(bpabi.o)
 .comment       0x00000000       0x34 c:/program files (x86)/atmel/atmel studio 6.0/extensions/atmel/armgcc/3.3.1.128/armgcctoolchain/bin/../lib/gcc/arm-none-eabi/4.7.0/thumb\libgcc.a(_divdi3.o)
 .comment       0x00000000       0x34 c:/program files (x86)/atmel/atmel studio 6.0/extensions/atmel/armgcc/3.3.1.128/armgcctoolchain/bin/../lib/gcc/arm-none-eabi/4.7.0/thumb\libgcc.a(_udivdi3.o)
 .comment       0x00000000       0x34 c:/program files (x86)/atmel/atmel studio 6.0/extensions/atmel/armgcc/3.3.1.128/armgcctoolchain/bin/../lib/gcc/arm-none-eabi/4.7.0/thumb/crtend.o

.debug_info     0x00000000    0x1d51e
 .debug_info    0x00000000      0x10f c:/program files (x86)/atmel/atmel studio 6.0/extensions/atmel/armgcc/3.3.1.128/armgcctoolchain/bin/../lib/gcc/arm-none-eabi/4.7.0/../../../../arm-none-eabi/lib/thumb\libc.a(lib_a-atexit.o)
 .debug_info    0x0000010f       0xf7 c:/program files (x86)/atmel/atmel studio 6.0/extensions/atmel/armgcc/3.3.1.128/armgcctoolchain/bin/../lib/gcc/arm-none-eabi/4.7.0/../../../../arm-none-eabi/lib/thumb\libc.a(lib_a-fini.o)
 .debug_info    0x00000206      0x961 c:/program files (x86)/atmel/atmel studio 6.0/extensions/atmel/armgcc/3.3.1.128/armgcctoolchain/bin/../lib/gcc/arm-none-eabi/4.7.0/../../../../arm-none-eabi/lib/thumb\libc.a(lib_a-impure.o)
 .debug_info    0x00000b67      0x112 c:/program files (x86)/atmel/atmel studio 6.0/extensions/atmel/armgcc/3.3.1.128/armgcctoolchain/bin/../lib/gcc/arm-none-eabi/4.7.0/../../../../arm-none-eabi/lib/thumb\libc.a(lib_a-init.o)
 .debug_info    0x00000c79      0x103 c:/program files (x86)/atmel/atmel studio 6.0/extensions/atmel/armgcc/3.3.1.128/armgcctoolchain/bin/../lib/gcc/arm-none-eabi/4.7.0/../../../../arm-none-eabi/lib/thumb\libc.a(lib_a-memcpy.o)
 .debug_info    0x00000d7c       0xd3 c:/program files (x86)/atmel/atmel studio 6.0/extensions/atmel/armgcc/3.3.1.128/armgcctoolchain/bin/../lib/gcc/arm-none-eabi/4.7.0/../../../../arm-none-eabi/lib/thumb\libc.a(lib_a-memset.o)
 .debug_info    0x00000e4f      0xa8c c:/program files (x86)/atmel/atmel studio 6.0/extensions/atmel/armgcc/3.3.1.128/armgcctoolchain/bin/../lib/gcc/arm-none-eabi/4.7.0/../../../../arm-none-eabi/lib/thumb\libc.a(lib_a-printf.o)
 .debug_info    0x000018db      0xae4 c:/program files (x86)/atmel/atmel studio 6.0/extensions/atmel/armgcc/3.3.1.128/armgcctoolchain/bin/../lib/gcc/arm-none-eabi/4.7.0/../../../../arm-none-eabi/lib/thumb\libc.a(lib_a-puts.o)
 .debug_info    0x000023bf      0x9d7 c:/program files (x86)/atmel/atmel studio 6.0/extensions/atmel/armgcc/3.3.1.128/armgcctoolchain/bin/../lib/gcc/arm-none-eabi/4.7.0/../../../../arm-none-eabi/lib/thumb\libc.a(lib_a-setbuf.o)
 .debug_info    0x00002d96      0xa79 c:/program files (x86)/atmel/atmel studio 6.0/extensions/atmel/armgcc/3.3.1.128/armgcctoolchain/bin/../lib/gcc/arm-none-eabi/4.7.0/../../../../arm-none-eabi/lib/thumb\libc.a(lib_a-setvbuf.o)
 .debug_info    0x0000380f      0xacf c:/program files (x86)/atmel/atmel studio 6.0/extensions/atmel/armgcc/3.3.1.128/armgcctoolchain/bin/../lib/gcc/arm-none-eabi/4.7.0/../../../../arm-none-eabi/lib/thumb\libc.a(lib_a-sprintf.o)
 .debug_info    0x000042de       0xcd c:/program files (x86)/atmel/atmel studio 6.0/extensions/atmel/armgcc/3.3.1.128/armgcctoolchain/bin/../lib/gcc/arm-none-eabi/4.7.0/../../../../arm-none-eabi/lib/thumb\libc.a(lib_a-strlen.o)
 .debug_info    0x000043ab      0xf83 c:/program files (x86)/atmel/atmel studio 6.0/extensions/atmel/armgcc/3.3.1.128/armgcctoolchain/bin/../lib/gcc/arm-none-eabi/4.7.0/../../../../arm-none-eabi/lib/thumb\libc.a(lib_a-svfprintf.o)
 .debug_info    0x0000532e     0x12d8 c:/program files (x86)/atmel/atmel studio 6.0/extensions/atmel/armgcc/3.3.1.128/armgcctoolchain/bin/../lib/gcc/arm-none-eabi/4.7.0/../../../../arm-none-eabi/lib/thumb\libc.a(lib_a-vfiprintf.o)
 .debug_info    0x00006606     0x1157 c:/program files (x86)/atmel/atmel studio 6.0/extensions/atmel/armgcc/3.3.1.128/armgcctoolchain/bin/../lib/gcc/arm-none-eabi/4.7.0/../../../../arm-none-eabi/lib/thumb\libc.a(lib_a-vfprintf.o)
 .debug_info    0x0000775d      0xa01 c:/program files (x86)/atmel/atmel studio 6.0/extensions/atmel/armgcc/3.3.1.128/armgcctoolchain/bin/../lib/gcc/arm-none-eabi/4.7.0/../../../../arm-none-eabi/lib/thumb\libc.a(lib_a-wsetup.o)
 .debug_info    0x0000815e      0xa15 c:/program files (x86)/atmel/atmel studio 6.0/extensions/atmel/armgcc/3.3.1.128/armgcctoolchain/bin/../lib/gcc/arm-none-eabi/4.7.0/../../../../arm-none-eabi/lib/thumb\libc.a(lib_a-__atexit.o)
 .debug_info    0x00008b73      0xa7b c:/program files (x86)/atmel/atmel studio 6.0/extensions/atmel/armgcc/3.3.1.128/armgcctoolchain/bin/../lib/gcc/arm-none-eabi/4.7.0/../../../../arm-none-eabi/lib/thumb\libc.a(lib_a-__call_atexit.o)
 .debug_info    0x000095ee      0xb2b c:/program files (x86)/atmel/atmel studio 6.0/extensions/atmel/armgcc/3.3.1.128/armgcctoolchain/bin/../lib/gcc/arm-none-eabi/4.7.0/../../../../arm-none-eabi/lib/thumb\libc.a(lib_a-fflush.o)
 .debug_info    0x0000a119      0xdbc c:/program files (x86)/atmel/atmel studio 6.0/extensions/atmel/armgcc/3.3.1.128/armgcctoolchain/bin/../lib/gcc/arm-none-eabi/4.7.0/../../../../arm-none-eabi/lib/thumb\libc.a(lib_a-findfp.o)
 .debug_info    0x0000aed5      0xb7d c:/program files (x86)/atmel/atmel studio 6.0/extensions/atmel/armgcc/3.3.1.128/armgcctoolchain/bin/../lib/gcc/arm-none-eabi/4.7.0/../../../../arm-none-eabi/lib/thumb\libc.a(lib_a-fputwc.o)
 .debug_info    0x0000ba52      0xd0f c:/program files (x86)/atmel/atmel studio 6.0/extensions/atmel/armgcc/3.3.1.128/armgcctoolchain/bin/../lib/gcc/arm-none-eabi/4.7.0/../../../../arm-none-eabi/lib/thumb\libc.a(lib_a-freer.o)
 .debug_info    0x0000c761      0xd88 c:/program files (x86)/atmel/atmel studio 6.0/extensions/atmel/armgcc/3.3.1.128/armgcctoolchain/bin/../lib/gcc/arm-none-eabi/4.7.0/../../../../arm-none-eabi/lib/thumb\libc.a(lib_a-fvwrite.o)
 .debug_info    0x0000d4e9      0xb91 c:/program files (x86)/atmel/atmel studio 6.0/extensions/atmel/armgcc/3.3.1.128/armgcctoolchain/bin/../lib/gcc/arm-none-eabi/4.7.0/../../../../arm-none-eabi/lib/thumb\libc.a(lib_a-fwalk.o)
 .debug_info    0x0000e07a      0xd0f c:/program files (x86)/atmel/atmel studio 6.0/extensions/atmel/armgcc/3.3.1.128/armgcctoolchain/bin/../lib/gcc/arm-none-eabi/4.7.0/../../../../arm-none-eabi/lib/thumb\libc.a(lib_a-locale.o)
 .debug_info    0x0000ed89      0xbea c:/program files (x86)/atmel/atmel studio 6.0/extensions/atmel/armgcc/3.3.1.128/armgcctoolchain/bin/../lib/gcc/arm-none-eabi/4.7.0/../../../../arm-none-eabi/lib/thumb\libc.a(lib_a-makebuf.o)
 .debug_info    0x0000f973      0x9f2 c:/program files (x86)/atmel/atmel studio 6.0/extensions/atmel/armgcc/3.3.1.128/armgcctoolchain/bin/../lib/gcc/arm-none-eabi/4.7.0/../../../../arm-none-eabi/lib/thumb\libc.a(lib_a-malloc.o)
 .debug_info    0x00010365      0xe25 c:/program files (x86)/atmel/atmel studio 6.0/extensions/atmel/armgcc/3.3.1.128/armgcctoolchain/bin/../lib/gcc/arm-none-eabi/4.7.0/../../../../arm-none-eabi/lib/thumb\libc.a(lib_a-mallocr.o)
 .debug_info    0x0001118a       0xf9 c:/program files (x86)/atmel/atmel studio 6.0/extensions/atmel/armgcc/3.3.1.128/armgcctoolchain/bin/../lib/gcc/arm-none-eabi/4.7.0/../../../../arm-none-eabi/lib/thumb\libc.a(lib_a-memchr.o)
 .debug_info    0x00011283      0x103 c:/program files (x86)/atmel/atmel studio 6.0/extensions/atmel/armgcc/3.3.1.128/armgcctoolchain/bin/../lib/gcc/arm-none-eabi/4.7.0/../../../../arm-none-eabi/lib/thumb\libc.a(lib_a-memmove.o)
 .debug_info    0x00011386      0x985 c:/program files (x86)/atmel/atmel studio 6.0/extensions/atmel/armgcc/3.3.1.128/armgcctoolchain/bin/../lib/gcc/arm-none-eabi/4.7.0/../../../../arm-none-eabi/lib/thumb\libc.a(lib_a-mlock.o)
 .debug_info    0x00011d0b      0xd44 c:/program files (x86)/atmel/atmel studio 6.0/extensions/atmel/armgcc/3.3.1.128/armgcctoolchain/bin/../lib/gcc/arm-none-eabi/4.7.0/../../../../arm-none-eabi/lib/thumb\libc.a(lib_a-reallocr.o)
 .debug_info    0x00012a4f      0x9cc c:/program files (x86)/atmel/atmel studio 6.0/extensions/atmel/armgcc/3.3.1.128/armgcctoolchain/bin/../lib/gcc/arm-none-eabi/4.7.0/../../../../arm-none-eabi/lib/thumb\libc.a(lib_a-sbrkr.o)
 .debug_info    0x0001341b      0xc7b c:/program files (x86)/atmel/atmel studio 6.0/extensions/atmel/armgcc/3.3.1.128/armgcctoolchain/bin/../lib/gcc/arm-none-eabi/4.7.0/../../../../arm-none-eabi/lib/thumb\libc.a(lib_a-stdio.o)
 .debug_info    0x00014096       0xb5 c:/program files (x86)/atmel/atmel studio 6.0/extensions/atmel/armgcc/3.3.1.128/armgcctoolchain/bin/../lib/gcc/arm-none-eabi/4.7.0/../../../../arm-none-eabi/lib/thumb\libc.a(lib_a-strcmp.o)
 .debug_info    0x0001414b     0x1109 c:/program files (x86)/atmel/atmel studio 6.0/extensions/atmel/armgcc/3.3.1.128/armgcctoolchain/bin/../lib/gcc/arm-none-eabi/4.7.0/../../../../arm-none-eabi/lib/thumb\libc.a(lib_a-svfiprintf.o)
 .debug_info    0x00015254      0xaa2 c:/program files (x86)/atmel/atmel studio 6.0/extensions/atmel/armgcc/3.3.1.128/armgcctoolchain/bin/../lib/gcc/arm-none-eabi/4.7.0/../../../../arm-none-eabi/lib/thumb\libc.a(lib_a-wbuf.o)
 .debug_info    0x00015cf6      0xaa8 c:/program files (x86)/atmel/atmel studio 6.0/extensions/atmel/armgcc/3.3.1.128/armgcctoolchain/bin/../lib/gcc/arm-none-eabi/4.7.0/../../../../arm-none-eabi/lib/thumb\libc.a(lib_a-wcrtomb.o)
 .debug_info    0x0001679e      0xa92 c:/program files (x86)/atmel/atmel studio 6.0/extensions/atmel/armgcc/3.3.1.128/armgcctoolchain/bin/../lib/gcc/arm-none-eabi/4.7.0/../../../../arm-none-eabi/lib/thumb\libc.a(lib_a-wctomb_r.o)
 .debug_info    0x00017230      0x9ff c:/program files (x86)/atmel/atmel studio 6.0/extensions/atmel/armgcc/3.3.1.128/armgcctoolchain/bin/../lib/gcc/arm-none-eabi/4.7.0/../../../../arm-none-eabi/lib/thumb\libc.a(lib_a-writer.o)
 .debug_info    0x00017c2f      0x9b6 c:/program files (x86)/atmel/atmel studio 6.0/extensions/atmel/armgcc/3.3.1.128/armgcctoolchain/bin/../lib/gcc/arm-none-eabi/4.7.0/../../../../arm-none-eabi/lib/thumb\libc.a(lib_a-closer.o)
 .debug_info    0x000185e5      0xac3 c:/program files (x86)/atmel/atmel studio 6.0/extensions/atmel/armgcc/3.3.1.128/armgcctoolchain/bin/../lib/gcc/arm-none-eabi/4.7.0/../../../../arm-none-eabi/lib/thumb\libc.a(lib_a-fclose.o)
 .debug_info    0x000190a8      0xb61 c:/program files (x86)/atmel/atmel studio 6.0/extensions/atmel/armgcc/3.3.1.128/armgcctoolchain/bin/../lib/gcc/arm-none-eabi/4.7.0/../../../../arm-none-eabi/lib/thumb\libc.a(lib_a-fstatr.o)
 .debug_info    0x00019c09      0x9b6 c:/program files (x86)/atmel/atmel studio 6.0/extensions/atmel/armgcc/3.3.1.128/armgcctoolchain/bin/../lib/gcc/arm-none-eabi/4.7.0/../../../../arm-none-eabi/lib/thumb\libc.a(lib_a-isattyr.o)
 .debug_info    0x0001a5bf      0x9ed c:/program files (x86)/atmel/atmel studio 6.0/extensions/atmel/armgcc/3.3.1.128/armgcctoolchain/bin/../lib/gcc/arm-none-eabi/4.7.0/../../../../arm-none-eabi/lib/thumb\libc.a(lib_a-lseekr.o)
 .debug_info    0x0001afac      0x9f8 c:/program files (x86)/atmel/atmel studio 6.0/extensions/atmel/armgcc/3.3.1.128/armgcctoolchain/bin/../lib/gcc/arm-none-eabi/4.7.0/../../../../arm-none-eabi/lib/thumb\libc.a(lib_a-readr.o)
 .debug_info    0x0001b9a4      0xb23 c:/program files (x86)/atmel/atmel studio 6.0/extensions/atmel/armgcc/3.3.1.128/armgcctoolchain/bin/../lib/gcc/arm-none-eabi/4.7.0/../../../../arm-none-eabi/lib/thumb\libc.a(lib_a-reent.o)
 .debug_info    0x0001c4c7      0x10e c:/program files (x86)/atmel/atmel studio 6.0/extensions/atmel/armgcc/3.3.1.128/armgcctoolchain/bin/../lib/gcc/arm-none-eabi/4.7.0/thumb\libgcc.a(_aeabi_uldivmod.o)
 .debug_info    0x0001c5d5      0x170 c:/program files (x86)/atmel/atmel studio 6.0/extensions/atmel/armgcc/3.3.1.128/armgcctoolchain/bin/../lib/gcc/arm-none-eabi/4.7.0/thumb\libgcc.a(bpabi.o)
 .debug_info    0x0001c745      0x112 c:/program files (x86)/atmel/atmel studio 6.0/extensions/atmel/armgcc/3.3.1.128/armgcctoolchain/bin/../lib/gcc/arm-none-eabi/4.7.0/thumb\libgcc.a(_dvmd_tls.o)
 .debug_info    0x0001c857      0x682 c:/program files (x86)/atmel/atmel studio 6.0/extensions/atmel/armgcc/3.3.1.128/armgcctoolchain/bin/../lib/gcc/arm-none-eabi/4.7.0/thumb\libgcc.a(_divdi3.o)
 .debug_info    0x0001ced9      0x645 c:/program files (x86)/atmel/atmel studio 6.0/extensions/atmel/armgcc/3.3.1.128/armgcctoolchain/bin/../lib/gcc/arm-none-eabi/4.7.0/thumb\libgcc.a(_udivdi3.o)

.debug_abbrev   0x00000000     0x5c8d
 .debug_abbrev  0x00000000       0xb6 c:/program files (x86)/atmel/atmel studio 6.0/extensions/atmel/armgcc/3.3.1.128/armgcctoolchain/bin/../lib/gcc/arm-none-eabi/4.7.0/../../../../arm-none-eabi/lib/thumb\libc.a(lib_a-atexit.o)
 .debug_abbrev  0x000000b6       0xbb c:/program files (x86)/atmel/atmel studio 6.0/extensions/atmel/armgcc/3.3.1.128/armgcctoolchain/bin/../lib/gcc/arm-none-eabi/4.7.0/../../../../arm-none-eabi/lib/thumb\libc.a(lib_a-fini.o)
 .debug_abbrev  0x00000171      0x160 c:/program files (x86)/atmel/atmel studio 6.0/extensions/atmel/armgcc/3.3.1.128/armgcctoolchain/bin/../lib/gcc/arm-none-eabi/4.7.0/../../../../arm-none-eabi/lib/thumb\libc.a(lib_a-impure.o)
 .debug_abbrev  0x000002d1       0xb8 c:/program files (x86)/atmel/atmel studio 6.0/extensions/atmel/armgcc/3.3.1.128/armgcctoolchain/bin/../lib/gcc/arm-none-eabi/4.7.0/../../../../arm-none-eabi/lib/thumb\libc.a(lib_a-init.o)
 .debug_abbrev  0x00000389       0xa2 c:/program files (x86)/atmel/atmel studio 6.0/extensions/atmel/armgcc/3.3.1.128/armgcctoolchain/bin/../lib/gcc/arm-none-eabi/4.7.0/../../../../arm-none-eabi/lib/thumb\libc.a(lib_a-memcpy.o)
 .debug_abbrev  0x0000042b       0x8c c:/program files (x86)/atmel/atmel studio 6.0/extensions/atmel/armgcc/3.3.1.128/armgcctoolchain/bin/../lib/gcc/arm-none-eabi/4.7.0/../../../../arm-none-eabi/lib/thumb\libc.a(lib_a-memset.o)
 .debug_abbrev  0x000004b7      0x209 c:/program files (x86)/atmel/atmel studio 6.0/extensions/atmel/armgcc/3.3.1.128/armgcctoolchain/bin/../lib/gcc/arm-none-eabi/4.7.0/../../../../arm-none-eabi/lib/thumb\libc.a(lib_a-printf.o)
 .debug_abbrev  0x000006c0      0x208 c:/program files (x86)/atmel/atmel studio 6.0/extensions/atmel/armgcc/3.3.1.128/armgcctoolchain/bin/../lib/gcc/arm-none-eabi/4.7.0/../../../../arm-none-eabi/lib/thumb\libc.a(lib_a-puts.o)
 .debug_abbrev  0x000008c8      0x19c c:/program files (x86)/atmel/atmel studio 6.0/extensions/atmel/armgcc/3.3.1.128/armgcctoolchain/bin/../lib/gcc/arm-none-eabi/4.7.0/../../../../arm-none-eabi/lib/thumb\libc.a(lib_a-setbuf.o)
 .debug_abbrev  0x00000a64      0x217 c:/program files (x86)/atmel/atmel studio 6.0/extensions/atmel/armgcc/3.3.1.128/armgcctoolchain/bin/../lib/gcc/arm-none-eabi/4.7.0/../../../../arm-none-eabi/lib/thumb\libc.a(lib_a-setvbuf.o)
 .debug_abbrev  0x00000c7b      0x1fa c:/program files (x86)/atmel/atmel studio 6.0/extensions/atmel/armgcc/3.3.1.128/armgcctoolchain/bin/../lib/gcc/arm-none-eabi/4.7.0/../../../../arm-none-eabi/lib/thumb\libc.a(lib_a-sprintf.o)
 .debug_abbrev  0x00000e75       0x8a c:/program files (x86)/atmel/atmel studio 6.0/extensions/atmel/armgcc/3.3.1.128/armgcctoolchain/bin/../lib/gcc/arm-none-eabi/4.7.0/../../../../arm-none-eabi/lib/thumb\libc.a(lib_a-strlen.o)
 .debug_abbrev  0x00000eff      0x28d c:/program files (x86)/atmel/atmel studio 6.0/extensions/atmel/armgcc/3.3.1.128/armgcctoolchain/bin/../lib/gcc/arm-none-eabi/4.7.0/../../../../arm-none-eabi/lib/thumb\libc.a(lib_a-svfprintf.o)
 .debug_abbrev  0x0000118c      0x3d8 c:/program files (x86)/atmel/atmel studio 6.0/extensions/atmel/armgcc/3.3.1.128/armgcctoolchain/bin/../lib/gcc/arm-none-eabi/4.7.0/../../../../arm-none-eabi/lib/thumb\libc.a(lib_a-vfiprintf.o)
 .debug_abbrev  0x00001564      0x365 c:/program files (x86)/atmel/atmel studio 6.0/extensions/atmel/armgcc/3.3.1.128/armgcctoolchain/bin/../lib/gcc/arm-none-eabi/4.7.0/../../../../arm-none-eabi/lib/thumb\libc.a(lib_a-vfprintf.o)
 .debug_abbrev  0x000018c9      0x1d5 c:/program files (x86)/atmel/atmel studio 6.0/extensions/atmel/armgcc/3.3.1.128/armgcctoolchain/bin/../lib/gcc/arm-none-eabi/4.7.0/../../../../arm-none-eabi/lib/thumb\libc.a(lib_a-wsetup.o)
 .debug_abbrev  0x00001a9e      0x1fe c:/program files (x86)/atmel/atmel studio 6.0/extensions/atmel/armgcc/3.3.1.128/armgcctoolchain/bin/../lib/gcc/arm-none-eabi/4.7.0/../../../../arm-none-eabi/lib/thumb\libc.a(lib_a-__atexit.o)
 .debug_abbrev  0x00001c9c      0x274 c:/program files (x86)/atmel/atmel studio 6.0/extensions/atmel/armgcc/3.3.1.128/armgcctoolchain/bin/../lib/gcc/arm-none-eabi/4.7.0/../../../../arm-none-eabi/lib/thumb\libc.a(lib_a-__call_atexit.o)
 .debug_abbrev  0x00001f10      0x25f c:/program files (x86)/atmel/atmel studio 6.0/extensions/atmel/armgcc/3.3.1.128/armgcctoolchain/bin/../lib/gcc/arm-none-eabi/4.7.0/../../../../arm-none-eabi/lib/thumb\libc.a(lib_a-fflush.o)
 .debug_abbrev  0x0000216f      0x317 c:/program files (x86)/atmel/atmel studio 6.0/extensions/atmel/armgcc/3.3.1.128/armgcctoolchain/bin/../lib/gcc/arm-none-eabi/4.7.0/../../../../arm-none-eabi/lib/thumb\libc.a(lib_a-findfp.o)
 .debug_abbrev  0x00002486      0x285 c:/program files (x86)/atmel/atmel studio 6.0/extensions/atmel/armgcc/3.3.1.128/armgcctoolchain/bin/../lib/gcc/arm-none-eabi/4.7.0/../../../../arm-none-eabi/lib/thumb\libc.a(lib_a-fputwc.o)
 .debug_abbrev  0x0000270b      0x248 c:/program files (x86)/atmel/atmel studio 6.0/extensions/atmel/armgcc/3.3.1.128/armgcctoolchain/bin/../lib/gcc/arm-none-eabi/4.7.0/../../../../arm-none-eabi/lib/thumb\libc.a(lib_a-freer.o)
 .debug_abbrev  0x00002953      0x22e c:/program files (x86)/atmel/atmel studio 6.0/extensions/atmel/armgcc/3.3.1.128/armgcctoolchain/bin/../lib/gcc/arm-none-eabi/4.7.0/../../../../arm-none-eabi/lib/thumb\libc.a(lib_a-fvwrite.o)
 .debug_abbrev  0x00002b81      0x234 c:/program files (x86)/atmel/atmel studio 6.0/extensions/atmel/armgcc/3.3.1.128/armgcctoolchain/bin/../lib/gcc/arm-none-eabi/4.7.0/../../../../arm-none-eabi/lib/thumb\libc.a(lib_a-fwalk.o)
 .debug_abbrev  0x00002db5      0x2a1 c:/program files (x86)/atmel/atmel studio 6.0/extensions/atmel/armgcc/3.3.1.128/armgcctoolchain/bin/../lib/gcc/arm-none-eabi/4.7.0/../../../../arm-none-eabi/lib/thumb\libc.a(lib_a-locale.o)
 .debug_abbrev  0x00003056      0x1e8 c:/program files (x86)/atmel/atmel studio 6.0/extensions/atmel/armgcc/3.3.1.128/armgcctoolchain/bin/../lib/gcc/arm-none-eabi/4.7.0/../../../../arm-none-eabi/lib/thumb\libc.a(lib_a-makebuf.o)
 .debug_abbrev  0x0000323e      0x1da c:/program files (x86)/atmel/atmel studio 6.0/extensions/atmel/armgcc/3.3.1.128/armgcctoolchain/bin/../lib/gcc/arm-none-eabi/4.7.0/../../../../arm-none-eabi/lib/thumb\libc.a(lib_a-malloc.o)
 .debug_abbrev  0x00003418      0x286 c:/program files (x86)/atmel/atmel studio 6.0/extensions/atmel/armgcc/3.3.1.128/armgcctoolchain/bin/../lib/gcc/arm-none-eabi/4.7.0/../../../../arm-none-eabi/lib/thumb\libc.a(lib_a-mallocr.o)
 .debug_abbrev  0x0000369e       0xa9 c:/program files (x86)/atmel/atmel studio 6.0/extensions/atmel/armgcc/3.3.1.128/armgcctoolchain/bin/../lib/gcc/arm-none-eabi/4.7.0/../../../../arm-none-eabi/lib/thumb\libc.a(lib_a-memchr.o)
 .debug_abbrev  0x00003747       0x9a c:/program files (x86)/atmel/atmel studio 6.0/extensions/atmel/armgcc/3.3.1.128/armgcctoolchain/bin/../lib/gcc/arm-none-eabi/4.7.0/../../../../arm-none-eabi/lib/thumb\libc.a(lib_a-memmove.o)
 .debug_abbrev  0x000037e1      0x17a c:/program files (x86)/atmel/atmel studio 6.0/extensions/atmel/armgcc/3.3.1.128/armgcctoolchain/bin/../lib/gcc/arm-none-eabi/4.7.0/../../../../arm-none-eabi/lib/thumb\libc.a(lib_a-mlock.o)
 .debug_abbrev  0x0000395b      0x25c c:/program files (x86)/atmel/atmel studio 6.0/extensions/atmel/armgcc/3.3.1.128/armgcctoolchain/bin/../lib/gcc/arm-none-eabi/4.7.0/../../../../arm-none-eabi/lib/thumb\libc.a(lib_a-reallocr.o)
 .debug_abbrev  0x00003bb7      0x1dd c:/program files (x86)/atmel/atmel studio 6.0/extensions/atmel/armgcc/3.3.1.128/armgcctoolchain/bin/../lib/gcc/arm-none-eabi/4.7.0/../../../../arm-none-eabi/lib/thumb\libc.a(lib_a-sbrkr.o)
 .debug_abbrev  0x00003d94      0x244 c:/program files (x86)/atmel/atmel studio 6.0/extensions/atmel/armgcc/3.3.1.128/armgcctoolchain/bin/../lib/gcc/arm-none-eabi/4.7.0/../../../../arm-none-eabi/lib/thumb\libc.a(lib_a-stdio.o)
 .debug_abbrev  0x00003fd8       0x70 c:/program files (x86)/atmel/atmel studio 6.0/extensions/atmel/armgcc/3.3.1.128/armgcctoolchain/bin/../lib/gcc/arm-none-eabi/4.7.0/../../../../arm-none-eabi/lib/thumb\libc.a(lib_a-strcmp.o)
 .debug_abbrev  0x00004048      0x2ee c:/program files (x86)/atmel/atmel studio 6.0/extensions/atmel/armgcc/3.3.1.128/armgcctoolchain/bin/../lib/gcc/arm-none-eabi/4.7.0/../../../../arm-none-eabi/lib/thumb\libc.a(lib_a-svfiprintf.o)
 .debug_abbrev  0x00004336      0x21a c:/program files (x86)/atmel/atmel studio 6.0/extensions/atmel/armgcc/3.3.1.128/armgcctoolchain/bin/../lib/gcc/arm-none-eabi/4.7.0/../../../../arm-none-eabi/lib/thumb\libc.a(lib_a-wbuf.o)
 .debug_abbrev  0x00004550      0x205 c:/program files (x86)/atmel/atmel studio 6.0/extensions/atmel/armgcc/3.3.1.128/armgcctoolchain/bin/../lib/gcc/arm-none-eabi/4.7.0/../../../../arm-none-eabi/lib/thumb\libc.a(lib_a-wcrtomb.o)
 .debug_abbrev  0x00004755      0x210 c:/program files (x86)/atmel/atmel studio 6.0/extensions/atmel/armgcc/3.3.1.128/armgcctoolchain/bin/../lib/gcc/arm-none-eabi/4.7.0/../../../../arm-none-eabi/lib/thumb\libc.a(lib_a-wctomb_r.o)
 .debug_abbrev  0x00004965      0x1d4 c:/program files (x86)/atmel/atmel studio 6.0/extensions/atmel/armgcc/3.3.1.128/armgcctoolchain/bin/../lib/gcc/arm-none-eabi/4.7.0/../../../../arm-none-eabi/lib/thumb\libc.a(lib_a-writer.o)
 .debug_abbrev  0x00004b39      0x1cf c:/program files (x86)/atmel/atmel studio 6.0/extensions/atmel/armgcc/3.3.1.128/armgcctoolchain/bin/../lib/gcc/arm-none-eabi/4.7.0/../../../../arm-none-eabi/lib/thumb\libc.a(lib_a-closer.o)
 .debug_abbrev  0x00004d08      0x232 c:/program files (x86)/atmel/atmel studio 6.0/extensions/atmel/armgcc/3.3.1.128/armgcctoolchain/bin/../lib/gcc/arm-none-eabi/4.7.0/../../../../arm-none-eabi/lib/thumb\libc.a(lib_a-fclose.o)
 .debug_abbrev  0x00004f3a      0x1de c:/program files (x86)/atmel/atmel studio 6.0/extensions/atmel/armgcc/3.3.1.128/armgcctoolchain/bin/../lib/gcc/arm-none-eabi/4.7.0/../../../../arm-none-eabi/lib/thumb\libc.a(lib_a-fstatr.o)
 .debug_abbrev  0x00005118      0x1cf c:/program files (x86)/atmel/atmel studio 6.0/extensions/atmel/armgcc/3.3.1.128/armgcctoolchain/bin/../lib/gcc/arm-none-eabi/4.7.0/../../../../arm-none-eabi/lib/thumb\libc.a(lib_a-isattyr.o)
 .debug_abbrev  0x000052e7      0x1de c:/program files (x86)/atmel/atmel studio 6.0/extensions/atmel/armgcc/3.3.1.128/armgcctoolchain/bin/../lib/gcc/arm-none-eabi/4.7.0/../../../../arm-none-eabi/lib/thumb\libc.a(lib_a-lseekr.o)
 .debug_abbrev  0x000054c5      0x1cf c:/program files (x86)/atmel/atmel studio 6.0/extensions/atmel/armgcc/3.3.1.128/armgcctoolchain/bin/../lib/gcc/arm-none-eabi/4.7.0/../../../../arm-none-eabi/lib/thumb\libc.a(lib_a-readr.o)
 .debug_abbrev  0x00005694      0x26e c:/program files (x86)/atmel/atmel studio 6.0/extensions/atmel/armgcc/3.3.1.128/armgcctoolchain/bin/../lib/gcc/arm-none-eabi/4.7.0/../../../../arm-none-eabi/lib/thumb\libc.a(lib_a-reent.o)
 .debug_abbrev  0x00005902       0x14 c:/program files (x86)/atmel/atmel studio 6.0/extensions/atmel/armgcc/3.3.1.128/armgcctoolchain/bin/../lib/gcc/arm-none-eabi/4.7.0/thumb\libgcc.a(_aeabi_uldivmod.o)
 .debug_abbrev  0x00005916       0xb5 c:/program files (x86)/atmel/atmel studio 6.0/extensions/atmel/armgcc/3.3.1.128/armgcctoolchain/bin/../lib/gcc/arm-none-eabi/4.7.0/thumb\libgcc.a(bpabi.o)
 .debug_abbrev  0x000059cb       0x14 c:/program files (x86)/atmel/atmel studio 6.0/extensions/atmel/armgcc/3.3.1.128/armgcctoolchain/bin/../lib/gcc/arm-none-eabi/4.7.0/thumb\libgcc.a(_dvmd_tls.o)
 .debug_abbrev  0x000059df      0x15a c:/program files (x86)/atmel/atmel studio 6.0/extensions/atmel/armgcc/3.3.1.128/armgcctoolchain/bin/../lib/gcc/arm-none-eabi/4.7.0/thumb\libgcc.a(_divdi3.o)
 .debug_abbrev  0x00005b39      0x154 c:/program files (x86)/atmel/atmel studio 6.0/extensions/atmel/armgcc/3.3.1.128/armgcctoolchain/bin/../lib/gcc/arm-none-eabi/4.7.0/thumb\libgcc.a(_udivdi3.o)

.debug_loc      0x00000000     0x8db7
 .debug_loc     0x00000000       0x2c c:/program files (x86)/atmel/atmel studio 6.0/extensions/atmel/armgcc/3.3.1.128/armgcctoolchain/bin/../lib/gcc/arm-none-eabi/4.7.0/../../../../arm-none-eabi/lib/thumb\libc.a(lib_a-atexit.o)
 .debug_loc     0x0000002c       0x33 c:/program files (x86)/atmel/atmel studio 6.0/extensions/atmel/armgcc/3.3.1.128/armgcctoolchain/bin/../lib/gcc/arm-none-eabi/4.7.0/../../../../arm-none-eabi/lib/thumb\libc.a(lib_a-fini.o)
 .debug_loc     0x0000005f       0x74 c:/program files (x86)/atmel/atmel studio 6.0/extensions/atmel/armgcc/3.3.1.128/armgcctoolchain/bin/../lib/gcc/arm-none-eabi/4.7.0/../../../../arm-none-eabi/lib/thumb\libc.a(lib_a-init.o)
 .debug_loc     0x000000d3       0x59 c:/program files (x86)/atmel/atmel studio 6.0/extensions/atmel/armgcc/3.3.1.128/armgcctoolchain/bin/../lib/gcc/arm-none-eabi/4.7.0/../../../../arm-none-eabi/lib/thumb\libc.a(lib_a-memcpy.o)
 .debug_loc     0x0000012c       0x3f c:/program files (x86)/atmel/atmel studio 6.0/extensions/atmel/armgcc/3.3.1.128/armgcctoolchain/bin/../lib/gcc/arm-none-eabi/4.7.0/../../../../arm-none-eabi/lib/thumb\libc.a(lib_a-memset.o)
 .debug_loc     0x0000016b       0x8c c:/program files (x86)/atmel/atmel studio 6.0/extensions/atmel/armgcc/3.3.1.128/armgcctoolchain/bin/../lib/gcc/arm-none-eabi/4.7.0/../../../../arm-none-eabi/lib/thumb\libc.a(lib_a-printf.o)
 .debug_loc     0x000001f7       0xb3 c:/program files (x86)/atmel/atmel studio 6.0/extensions/atmel/armgcc/3.3.1.128/armgcctoolchain/bin/../lib/gcc/arm-none-eabi/4.7.0/../../../../arm-none-eabi/lib/thumb\libc.a(lib_a-puts.o)
 .debug_loc     0x000002aa       0x42 c:/program files (x86)/atmel/atmel studio 6.0/extensions/atmel/armgcc/3.3.1.128/armgcctoolchain/bin/../lib/gcc/arm-none-eabi/4.7.0/../../../../arm-none-eabi/lib/thumb\libc.a(lib_a-setbuf.o)
 .debug_loc     0x000002ec      0x174 c:/program files (x86)/atmel/atmel studio 6.0/extensions/atmel/armgcc/3.3.1.128/armgcctoolchain/bin/../lib/gcc/arm-none-eabi/4.7.0/../../../../arm-none-eabi/lib/thumb\libc.a(lib_a-setvbuf.o)
 .debug_loc     0x00000460      0x107 c:/program files (x86)/atmel/atmel studio 6.0/extensions/atmel/armgcc/3.3.1.128/armgcctoolchain/bin/../lib/gcc/arm-none-eabi/4.7.0/../../../../arm-none-eabi/lib/thumb\libc.a(lib_a-sprintf.o)
 .debug_loc     0x00000567       0x21 c:/program files (x86)/atmel/atmel studio 6.0/extensions/atmel/armgcc/3.3.1.128/armgcctoolchain/bin/../lib/gcc/arm-none-eabi/4.7.0/../../../../arm-none-eabi/lib/thumb\libc.a(lib_a-strlen.o)
 .debug_loc     0x00000588      0xcc7 c:/program files (x86)/atmel/atmel studio 6.0/extensions/atmel/armgcc/3.3.1.128/armgcctoolchain/bin/../lib/gcc/arm-none-eabi/4.7.0/../../../../arm-none-eabi/lib/thumb\libc.a(lib_a-svfprintf.o)
 .debug_loc     0x0000124f      0xfcc c:/program files (x86)/atmel/atmel studio 6.0/extensions/atmel/armgcc/3.3.1.128/armgcctoolchain/bin/../lib/gcc/arm-none-eabi/4.7.0/../../../../arm-none-eabi/lib/thumb\libc.a(lib_a-vfiprintf.o)
 .debug_loc     0x0000221b      0xe05 c:/program files (x86)/atmel/atmel studio 6.0/extensions/atmel/armgcc/3.3.1.128/armgcctoolchain/bin/../lib/gcc/arm-none-eabi/4.7.0/../../../../arm-none-eabi/lib/thumb\libc.a(lib_a-vfprintf.o)
 .debug_loc     0x00003020       0x5c c:/program files (x86)/atmel/atmel studio 6.0/extensions/atmel/armgcc/3.3.1.128/armgcctoolchain/bin/../lib/gcc/arm-none-eabi/4.7.0/../../../../arm-none-eabi/lib/thumb\libc.a(lib_a-wsetup.o)
 .debug_loc     0x0000307c       0xfa c:/program files (x86)/atmel/atmel studio 6.0/extensions/atmel/armgcc/3.3.1.128/armgcctoolchain/bin/../lib/gcc/arm-none-eabi/4.7.0/../../../../arm-none-eabi/lib/thumb\libc.a(lib_a-__atexit.o)
 .debug_loc     0x00003176      0x102 c:/program files (x86)/atmel/atmel studio 6.0/extensions/atmel/armgcc/3.3.1.128/armgcctoolchain/bin/../lib/gcc/arm-none-eabi/4.7.0/../../../../arm-none-eabi/lib/thumb\libc.a(lib_a-__call_atexit.o)
 .debug_loc     0x00003278      0x1b9 c:/program files (x86)/atmel/atmel studio 6.0/extensions/atmel/armgcc/3.3.1.128/armgcctoolchain/bin/../lib/gcc/arm-none-eabi/4.7.0/../../../../arm-none-eabi/lib/thumb\libc.a(lib_a-fflush.o)
 .debug_loc     0x00003431      0x25b c:/program files (x86)/atmel/atmel studio 6.0/extensions/atmel/armgcc/3.3.1.128/armgcctoolchain/bin/../lib/gcc/arm-none-eabi/4.7.0/../../../../arm-none-eabi/lib/thumb\libc.a(lib_a-findfp.o)
 .debug_loc     0x0000368c      0x187 c:/program files (x86)/atmel/atmel studio 6.0/extensions/atmel/armgcc/3.3.1.128/armgcctoolchain/bin/../lib/gcc/arm-none-eabi/4.7.0/../../../../arm-none-eabi/lib/thumb\libc.a(lib_a-fputwc.o)
 .debug_loc     0x00003813      0x407 c:/program files (x86)/atmel/atmel studio 6.0/extensions/atmel/armgcc/3.3.1.128/armgcctoolchain/bin/../lib/gcc/arm-none-eabi/4.7.0/../../../../arm-none-eabi/lib/thumb\libc.a(lib_a-freer.o)
 .debug_loc     0x00003c1a      0x463 c:/program files (x86)/atmel/atmel studio 6.0/extensions/atmel/armgcc/3.3.1.128/armgcctoolchain/bin/../lib/gcc/arm-none-eabi/4.7.0/../../../../arm-none-eabi/lib/thumb\libc.a(lib_a-fvwrite.o)
 .debug_loc     0x0000407d      0x1ab c:/program files (x86)/atmel/atmel studio 6.0/extensions/atmel/armgcc/3.3.1.128/armgcctoolchain/bin/../lib/gcc/arm-none-eabi/4.7.0/../../../../arm-none-eabi/lib/thumb\libc.a(lib_a-fwalk.o)
 .debug_loc     0x00004228      0x141 c:/program files (x86)/atmel/atmel studio 6.0/extensions/atmel/armgcc/3.3.1.128/armgcctoolchain/bin/../lib/gcc/arm-none-eabi/4.7.0/../../../../arm-none-eabi/lib/thumb\libc.a(lib_a-locale.o)
 .debug_loc     0x00004369      0x10a c:/program files (x86)/atmel/atmel studio 6.0/extensions/atmel/armgcc/3.3.1.128/armgcctoolchain/bin/../lib/gcc/arm-none-eabi/4.7.0/../../../../arm-none-eabi/lib/thumb\libc.a(lib_a-makebuf.o)
 .debug_loc     0x00004473       0x58 c:/program files (x86)/atmel/atmel studio 6.0/extensions/atmel/armgcc/3.3.1.128/armgcctoolchain/bin/../lib/gcc/arm-none-eabi/4.7.0/../../../../arm-none-eabi/lib/thumb\libc.a(lib_a-malloc.o)
 .debug_loc     0x000044cb      0x730 c:/program files (x86)/atmel/atmel studio 6.0/extensions/atmel/armgcc/3.3.1.128/armgcctoolchain/bin/../lib/gcc/arm-none-eabi/4.7.0/../../../../arm-none-eabi/lib/thumb\libc.a(lib_a-mallocr.o)
 .debug_loc     0x00004bfb       0x96 c:/program files (x86)/atmel/atmel studio 6.0/extensions/atmel/armgcc/3.3.1.128/armgcctoolchain/bin/../lib/gcc/arm-none-eabi/4.7.0/../../../../arm-none-eabi/lib/thumb\libc.a(lib_a-memchr.o)
 .debug_loc     0x00004c91       0xf2 c:/program files (x86)/atmel/atmel studio 6.0/extensions/atmel/armgcc/3.3.1.128/armgcctoolchain/bin/../lib/gcc/arm-none-eabi/4.7.0/../../../../arm-none-eabi/lib/thumb\libc.a(lib_a-memmove.o)
 .debug_loc     0x00004d83      0xb9f c:/program files (x86)/atmel/atmel studio 6.0/extensions/atmel/armgcc/3.3.1.128/armgcctoolchain/bin/../lib/gcc/arm-none-eabi/4.7.0/../../../../arm-none-eabi/lib/thumb\libc.a(lib_a-reallocr.o)
 .debug_loc     0x00005922       0x5f c:/program files (x86)/atmel/atmel studio 6.0/extensions/atmel/armgcc/3.3.1.128/armgcctoolchain/bin/../lib/gcc/arm-none-eabi/4.7.0/../../../../arm-none-eabi/lib/thumb\libc.a(lib_a-sbrkr.o)
 .debug_loc     0x00005981      0x23d c:/program files (x86)/atmel/atmel studio 6.0/extensions/atmel/armgcc/3.3.1.128/armgcctoolchain/bin/../lib/gcc/arm-none-eabi/4.7.0/../../../../arm-none-eabi/lib/thumb\libc.a(lib_a-stdio.o)
 .debug_loc     0x00005bbe       0x21 c:/program files (x86)/atmel/atmel studio 6.0/extensions/atmel/armgcc/3.3.1.128/armgcctoolchain/bin/../lib/gcc/arm-none-eabi/4.7.0/../../../../arm-none-eabi/lib/thumb\libc.a(lib_a-strcmp.o)
 .debug_loc     0x00005bdf      0xed9 c:/program files (x86)/atmel/atmel studio 6.0/extensions/atmel/armgcc/3.3.1.128/armgcctoolchain/bin/../lib/gcc/arm-none-eabi/4.7.0/../../../../arm-none-eabi/lib/thumb\libc.a(lib_a-svfiprintf.o)
 .debug_loc     0x00006ab8      0x11a c:/program files (x86)/atmel/atmel studio 6.0/extensions/atmel/armgcc/3.3.1.128/armgcctoolchain/bin/../lib/gcc/arm-none-eabi/4.7.0/../../../../arm-none-eabi/lib/thumb\libc.a(lib_a-wbuf.o)
 .debug_loc     0x00006bd2      0x18d c:/program files (x86)/atmel/atmel studio 6.0/extensions/atmel/armgcc/3.3.1.128/armgcctoolchain/bin/../lib/gcc/arm-none-eabi/4.7.0/../../../../arm-none-eabi/lib/thumb\libc.a(lib_a-wcrtomb.o)
 .debug_loc     0x00006d5f      0x117 c:/program files (x86)/atmel/atmel studio 6.0/extensions/atmel/armgcc/3.3.1.128/armgcctoolchain/bin/../lib/gcc/arm-none-eabi/4.7.0/../../../../arm-none-eabi/lib/thumb\libc.a(lib_a-wctomb_r.o)
 .debug_loc     0x00006e76       0xb7 c:/program files (x86)/atmel/atmel studio 6.0/extensions/atmel/armgcc/3.3.1.128/armgcctoolchain/bin/../lib/gcc/arm-none-eabi/4.7.0/../../../../arm-none-eabi/lib/thumb\libc.a(lib_a-writer.o)
 .debug_loc     0x00006f2d       0x5f c:/program files (x86)/atmel/atmel studio 6.0/extensions/atmel/armgcc/3.3.1.128/armgcctoolchain/bin/../lib/gcc/arm-none-eabi/4.7.0/../../../../arm-none-eabi/lib/thumb\libc.a(lib_a-closer.o)
 .debug_loc     0x00006f8c       0xd2 c:/program files (x86)/atmel/atmel studio 6.0/extensions/atmel/armgcc/3.3.1.128/armgcctoolchain/bin/../lib/gcc/arm-none-eabi/4.7.0/../../../../arm-none-eabi/lib/thumb\libc.a(lib_a-fclose.o)
 .debug_loc     0x0000705e       0x8b c:/program files (x86)/atmel/atmel studio 6.0/extensions/atmel/armgcc/3.3.1.128/armgcctoolchain/bin/../lib/gcc/arm-none-eabi/4.7.0/../../../../arm-none-eabi/lib/thumb\libc.a(lib_a-fstatr.o)
 .debug_loc     0x000070e9       0x5f c:/program files (x86)/atmel/atmel studio 6.0/extensions/atmel/armgcc/3.3.1.128/armgcctoolchain/bin/../lib/gcc/arm-none-eabi/4.7.0/../../../../arm-none-eabi/lib/thumb\libc.a(lib_a-isattyr.o)
 .debug_loc     0x00007148       0xb7 c:/program files (x86)/atmel/atmel studio 6.0/extensions/atmel/armgcc/3.3.1.128/armgcctoolchain/bin/../lib/gcc/arm-none-eabi/4.7.0/../../../../arm-none-eabi/lib/thumb\libc.a(lib_a-lseekr.o)
 .debug_loc     0x000071ff       0xb7 c:/program files (x86)/atmel/atmel studio 6.0/extensions/atmel/armgcc/3.3.1.128/armgcctoolchain/bin/../lib/gcc/arm-none-eabi/4.7.0/../../../../arm-none-eabi/lib/thumb\libc.a(lib_a-readr.o)
 .debug_loc     0x000072b6      0x165 c:/program files (x86)/atmel/atmel studio 6.0/extensions/atmel/armgcc/3.3.1.128/armgcctoolchain/bin/../lib/gcc/arm-none-eabi/4.7.0/../../../../arm-none-eabi/lib/thumb\libc.a(lib_a-reent.o)
 .debug_loc     0x0000741b       0xe0 c:/program files (x86)/atmel/atmel studio 6.0/extensions/atmel/armgcc/3.3.1.128/armgcctoolchain/bin/../lib/gcc/arm-none-eabi/4.7.0/thumb\libgcc.a(bpabi.o)
 .debug_loc     0x000074fb      0xc61 c:/program files (x86)/atmel/atmel studio 6.0/extensions/atmel/armgcc/3.3.1.128/armgcctoolchain/bin/../lib/gcc/arm-none-eabi/4.7.0/thumb\libgcc.a(_divdi3.o)
 .debug_loc     0x0000815c      0xc5b c:/program files (x86)/atmel/atmel studio 6.0/extensions/atmel/armgcc/3.3.1.128/armgcctoolchain/bin/../lib/gcc/arm-none-eabi/4.7.0/thumb\libgcc.a(_udivdi3.o)

.debug_aranges  0x00000000      0x680
 .debug_aranges
                0x00000000       0x20 c:/program files (x86)/atmel/atmel studio 6.0/extensions/atmel/armgcc/3.3.1.128/armgcctoolchain/bin/../lib/gcc/arm-none-eabi/4.7.0/../../../../arm-none-eabi/lib/thumb\libc.a(lib_a-atexit.o)
 .debug_aranges
                0x00000020       0x20 c:/program files (x86)/atmel/atmel studio 6.0/extensions/atmel/armgcc/3.3.1.128/armgcctoolchain/bin/../lib/gcc/arm-none-eabi/4.7.0/../../../../arm-none-eabi/lib/thumb\libc.a(lib_a-fini.o)
 .debug_aranges
                0x00000040       0x18 c:/program files (x86)/atmel/atmel studio 6.0/extensions/atmel/armgcc/3.3.1.128/armgcctoolchain/bin/../lib/gcc/arm-none-eabi/4.7.0/../../../../arm-none-eabi/lib/thumb\libc.a(lib_a-impure.o)
 .debug_aranges
                0x00000058       0x20 c:/program files (x86)/atmel/atmel studio 6.0/extensions/atmel/armgcc/3.3.1.128/armgcctoolchain/bin/../lib/gcc/arm-none-eabi/4.7.0/../../../../arm-none-eabi/lib/thumb\libc.a(lib_a-init.o)
 .debug_aranges
                0x00000078       0x20 c:/program files (x86)/atmel/atmel studio 6.0/extensions/atmel/armgcc/3.3.1.128/armgcctoolchain/bin/../lib/gcc/arm-none-eabi/4.7.0/../../../../arm-none-eabi/lib/thumb\libc.a(lib_a-memcpy.o)
 .debug_aranges
                0x00000098       0x20 c:/program files (x86)/atmel/atmel studio 6.0/extensions/atmel/armgcc/3.3.1.128/armgcctoolchain/bin/../lib/gcc/arm-none-eabi/4.7.0/../../../../arm-none-eabi/lib/thumb\libc.a(lib_a-memset.o)
 .debug_aranges
                0x000000b8       0x20 c:/program files (x86)/atmel/atmel studio 6.0/extensions/atmel/armgcc/3.3.1.128/armgcctoolchain/bin/../lib/gcc/arm-none-eabi/4.7.0/../../../../arm-none-eabi/lib/thumb\libc.a(lib_a-printf.o)
 .debug_aranges
                0x000000d8       0x20 c:/program files (x86)/atmel/atmel studio 6.0/extensions/atmel/armgcc/3.3.1.128/armgcctoolchain/bin/../lib/gcc/arm-none-eabi/4.7.0/../../../../arm-none-eabi/lib/thumb\libc.a(lib_a-puts.o)
 .debug_aranges
                0x000000f8       0x20 c:/program files (x86)/atmel/atmel studio 6.0/extensions/atmel/armgcc/3.3.1.128/armgcctoolchain/bin/../lib/gcc/arm-none-eabi/4.7.0/../../../../arm-none-eabi/lib/thumb\libc.a(lib_a-setbuf.o)
 .debug_aranges
                0x00000118       0x20 c:/program files (x86)/atmel/atmel studio 6.0/extensions/atmel/armgcc/3.3.1.128/armgcctoolchain/bin/../lib/gcc/arm-none-eabi/4.7.0/../../../../arm-none-eabi/lib/thumb\libc.a(lib_a-setvbuf.o)
 .debug_aranges
                0x00000138       0x20 c:/program files (x86)/atmel/atmel studio 6.0/extensions/atmel/armgcc/3.3.1.128/armgcctoolchain/bin/../lib/gcc/arm-none-eabi/4.7.0/../../../../arm-none-eabi/lib/thumb\libc.a(lib_a-sprintf.o)
 .debug_aranges
                0x00000158       0x20 c:/program files (x86)/atmel/atmel studio 6.0/extensions/atmel/armgcc/3.3.1.128/armgcctoolchain/bin/../lib/gcc/arm-none-eabi/4.7.0/../../../../arm-none-eabi/lib/thumb\libc.a(lib_a-strlen.o)
 .debug_aranges
                0x00000178       0x20 c:/program files (x86)/atmel/atmel studio 6.0/extensions/atmel/armgcc/3.3.1.128/armgcctoolchain/bin/../lib/gcc/arm-none-eabi/4.7.0/../../../../arm-none-eabi/lib/thumb\libc.a(lib_a-svfprintf.o)
 .debug_aranges
                0x00000198       0x20 c:/program files (x86)/atmel/atmel studio 6.0/extensions/atmel/armgcc/3.3.1.128/armgcctoolchain/bin/../lib/gcc/arm-none-eabi/4.7.0/../../../../arm-none-eabi/lib/thumb\libc.a(lib_a-vfiprintf.o)
 .debug_aranges
                0x000001b8       0x20 c:/program files (x86)/atmel/atmel studio 6.0/extensions/atmel/armgcc/3.3.1.128/armgcctoolchain/bin/../lib/gcc/arm-none-eabi/4.7.0/../../../../arm-none-eabi/lib/thumb\libc.a(lib_a-vfprintf.o)
 .debug_aranges
                0x000001d8       0x20 c:/program files (x86)/atmel/atmel studio 6.0/extensions/atmel/armgcc/3.3.1.128/armgcctoolchain/bin/../lib/gcc/arm-none-eabi/4.7.0/../../../../arm-none-eabi/lib/thumb\libc.a(lib_a-wsetup.o)
 .debug_aranges
                0x000001f8       0x20 c:/program files (x86)/atmel/atmel studio 6.0/extensions/atmel/armgcc/3.3.1.128/armgcctoolchain/bin/../lib/gcc/arm-none-eabi/4.7.0/../../../../arm-none-eabi/lib/thumb\libc.a(lib_a-__atexit.o)
 .debug_aranges
                0x00000218       0x28 c:/program files (x86)/atmel/atmel studio 6.0/extensions/atmel/armgcc/3.3.1.128/armgcctoolchain/bin/../lib/gcc/arm-none-eabi/4.7.0/../../../../arm-none-eabi/lib/thumb\libc.a(lib_a-__call_atexit.o)
 .debug_aranges
                0x00000240       0x20 c:/program files (x86)/atmel/atmel studio 6.0/extensions/atmel/armgcc/3.3.1.128/armgcctoolchain/bin/../lib/gcc/arm-none-eabi/4.7.0/../../../../arm-none-eabi/lib/thumb\libc.a(lib_a-fflush.o)
 .debug_aranges
                0x00000260       0x20 c:/program files (x86)/atmel/atmel studio 6.0/extensions/atmel/armgcc/3.3.1.128/armgcctoolchain/bin/../lib/gcc/arm-none-eabi/4.7.0/../../../../arm-none-eabi/lib/thumb\libc.a(lib_a-findfp.o)
 .debug_aranges
                0x00000280       0x20 c:/program files (x86)/atmel/atmel studio 6.0/extensions/atmel/armgcc/3.3.1.128/armgcctoolchain/bin/../lib/gcc/arm-none-eabi/4.7.0/../../../../arm-none-eabi/lib/thumb\libc.a(lib_a-fputwc.o)
 .debug_aranges
                0x000002a0       0x20 c:/program files (x86)/atmel/atmel studio 6.0/extensions/atmel/armgcc/3.3.1.128/armgcctoolchain/bin/../lib/gcc/arm-none-eabi/4.7.0/../../../../arm-none-eabi/lib/thumb\libc.a(lib_a-freer.o)
 .debug_aranges
                0x000002c0       0x20 c:/program files (x86)/atmel/atmel studio 6.0/extensions/atmel/armgcc/3.3.1.128/armgcctoolchain/bin/../lib/gcc/arm-none-eabi/4.7.0/../../../../arm-none-eabi/lib/thumb\libc.a(lib_a-fvwrite.o)
 .debug_aranges
                0x000002e0       0x20 c:/program files (x86)/atmel/atmel studio 6.0/extensions/atmel/armgcc/3.3.1.128/armgcctoolchain/bin/../lib/gcc/arm-none-eabi/4.7.0/../../../../arm-none-eabi/lib/thumb\libc.a(lib_a-fwalk.o)
 .debug_aranges
                0x00000300       0x20 c:/program files (x86)/atmel/atmel studio 6.0/extensions/atmel/armgcc/3.3.1.128/armgcctoolchain/bin/../lib/gcc/arm-none-eabi/4.7.0/../../../../arm-none-eabi/lib/thumb\libc.a(lib_a-locale.o)
 .debug_aranges
                0x00000320       0x20 c:/program files (x86)/atmel/atmel studio 6.0/extensions/atmel/armgcc/3.3.1.128/armgcctoolchain/bin/../lib/gcc/arm-none-eabi/4.7.0/../../../../arm-none-eabi/lib/thumb\libc.a(lib_a-makebuf.o)
 .debug_aranges
                0x00000340       0x20 c:/program files (x86)/atmel/atmel studio 6.0/extensions/atmel/armgcc/3.3.1.128/armgcctoolchain/bin/../lib/gcc/arm-none-eabi/4.7.0/../../../../arm-none-eabi/lib/thumb\libc.a(lib_a-malloc.o)
 .debug_aranges
                0x00000360       0x20 c:/program files (x86)/atmel/atmel studio 6.0/extensions/atmel/armgcc/3.3.1.128/armgcctoolchain/bin/../lib/gcc/arm-none-eabi/4.7.0/../../../../arm-none-eabi/lib/thumb\libc.a(lib_a-mallocr.o)
 .debug_aranges
                0x00000380       0x20 c:/program files (x86)/atmel/atmel studio 6.0/extensions/atmel/armgcc/3.3.1.128/armgcctoolchain/bin/../lib/gcc/arm-none-eabi/4.7.0/../../../../arm-none-eabi/lib/thumb\libc.a(lib_a-memchr.o)
 .debug_aranges
                0x000003a0       0x20 c:/program files (x86)/atmel/atmel studio 6.0/extensions/atmel/armgcc/3.3.1.128/armgcctoolchain/bin/../lib/gcc/arm-none-eabi/4.7.0/../../../../arm-none-eabi/lib/thumb\libc.a(lib_a-memmove.o)
 .debug_aranges
                0x000003c0       0x20 c:/program files (x86)/atmel/atmel studio 6.0/extensions/atmel/armgcc/3.3.1.128/armgcctoolchain/bin/../lib/gcc/arm-none-eabi/4.7.0/../../../../arm-none-eabi/lib/thumb\libc.a(lib_a-mlock.o)
 .debug_aranges
                0x000003e0       0x20 c:/program files (x86)/atmel/atmel studio 6.0/extensions/atmel/armgcc/3.3.1.128/armgcctoolchain/bin/../lib/gcc/arm-none-eabi/4.7.0/../../../../arm-none-eabi/lib/thumb\libc.a(lib_a-reallocr.o)
 .debug_aranges
                0x00000400       0x20 c:/program files (x86)/atmel/atmel studio 6.0/extensions/atmel/armgcc/3.3.1.128/armgcctoolchain/bin/../lib/gcc/arm-none-eabi/4.7.0/../../../../arm-none-eabi/lib/thumb\libc.a(lib_a-sbrkr.o)
 .debug_aranges
                0x00000420       0x20 c:/program files (x86)/atmel/atmel studio 6.0/extensions/atmel/armgcc/3.3.1.128/armgcctoolchain/bin/../lib/gcc/arm-none-eabi/4.7.0/../../../../arm-none-eabi/lib/thumb\libc.a(lib_a-stdio.o)
 .debug_aranges
                0x00000440       0x20 c:/program files (x86)/atmel/atmel studio 6.0/extensions/atmel/armgcc/3.3.1.128/armgcctoolchain/bin/../lib/gcc/arm-none-eabi/4.7.0/../../../../arm-none-eabi/lib/thumb\libc.a(lib_a-strcmp.o)
 .debug_aranges
                0x00000460       0x20 c:/program files (x86)/atmel/atmel studio 6.0/extensions/atmel/armgcc/3.3.1.128/armgcctoolchain/bin/../lib/gcc/arm-none-eabi/4.7.0/../../../../arm-none-eabi/lib/thumb\libc.a(lib_a-svfiprintf.o)
 .debug_aranges
                0x00000480       0x20 c:/program files (x86)/atmel/atmel studio 6.0/extensions/atmel/armgcc/3.3.1.128/armgcctoolchain/bin/../lib/gcc/arm-none-eabi/4.7.0/../../../../arm-none-eabi/lib/thumb\libc.a(lib_a-wbuf.o)
 .debug_aranges
                0x000004a0       0x20 c:/program files (x86)/atmel/atmel studio 6.0/extensions/atmel/armgcc/3.3.1.128/armgcctoolchain/bin/../lib/gcc/arm-none-eabi/4.7.0/../../../../arm-none-eabi/lib/thumb\libc.a(lib_a-wcrtomb.o)
 .debug_aranges
                0x000004c0       0x20 c:/program files (x86)/atmel/atmel studio 6.0/extensions/atmel/armgcc/3.3.1.128/armgcctoolchain/bin/../lib/gcc/arm-none-eabi/4.7.0/../../../../arm-none-eabi/lib/thumb\libc.a(lib_a-wctomb_r.o)
 .debug_aranges
                0x000004e0       0x20 c:/program files (x86)/atmel/atmel studio 6.0/extensions/atmel/armgcc/3.3.1.128/armgcctoolchain/bin/../lib/gcc/arm-none-eabi/4.7.0/../../../../arm-none-eabi/lib/thumb\libc.a(lib_a-writer.o)
 .debug_aranges
                0x00000500       0x20 c:/program files (x86)/atmel/atmel studio 6.0/extensions/atmel/armgcc/3.3.1.128/armgcctoolchain/bin/../lib/gcc/arm-none-eabi/4.7.0/../../../../arm-none-eabi/lib/thumb\libc.a(lib_a-closer.o)
 .debug_aranges
                0x00000520       0x20 c:/program files (x86)/atmel/atmel studio 6.0/extensions/atmel/armgcc/3.3.1.128/armgcctoolchain/bin/../lib/gcc/arm-none-eabi/4.7.0/../../../../arm-none-eabi/lib/thumb\libc.a(lib_a-fclose.o)
 .debug_aranges
                0x00000540       0x20 c:/program files (x86)/atmel/atmel studio 6.0/extensions/atmel/armgcc/3.3.1.128/armgcctoolchain/bin/../lib/gcc/arm-none-eabi/4.7.0/../../../../arm-none-eabi/lib/thumb\libc.a(lib_a-fstatr.o)
 .debug_aranges
                0x00000560       0x20 c:/program files (x86)/atmel/atmel studio 6.0/extensions/atmel/armgcc/3.3.1.128/armgcctoolchain/bin/../lib/gcc/arm-none-eabi/4.7.0/../../../../arm-none-eabi/lib/thumb\libc.a(lib_a-isattyr.o)
 .debug_aranges
                0x00000580       0x20 c:/program files (x86)/atmel/atmel studio 6.0/extensions/atmel/armgcc/3.3.1.128/armgcctoolchain/bin/../lib/gcc/arm-none-eabi/4.7.0/../../../../arm-none-eabi/lib/thumb\libc.a(lib_a-lseekr.o)
 .debug_aranges
                0x000005a0       0x20 c:/program files (x86)/atmel/atmel studio 6.0/extensions/atmel/armgcc/3.3.1.128/armgcctoolchain/bin/../lib/gcc/arm-none-eabi/4.7.0/../../../../arm-none-eabi/lib/thumb\libc.a(lib_a-readr.o)
 .debug_aranges
                0x000005c0       0x20 c:/program files (x86)/atmel/atmel studio 6.0/extensions/atmel/armgcc/3.3.1.128/armgcctoolchain/bin/../lib/gcc/arm-none-eabi/4.7.0/../../../../arm-none-eabi/lib/thumb\libc.a(lib_a-reent.o)
 .debug_aranges
                0x000005e0       0x20 c:/program files (x86)/atmel/atmel studio 6.0/extensions/atmel/armgcc/3.3.1.128/armgcctoolchain/bin/../lib/gcc/arm-none-eabi/4.7.0/thumb\libgcc.a(_aeabi_uldivmod.o)
 .debug_aranges
                0x00000600       0x20 c:/program files (x86)/atmel/atmel studio 6.0/extensions/atmel/armgcc/3.3.1.128/armgcctoolchain/bin/../lib/gcc/arm-none-eabi/4.7.0/thumb\libgcc.a(bpabi.o)
 .debug_aranges
                0x00000620       0x20 c:/program files (x86)/atmel/atmel studio 6.0/extensions/atmel/armgcc/3.3.1.128/armgcctoolchain/bin/../lib/gcc/arm-none-eabi/4.7.0/thumb\libgcc.a(_dvmd_tls.o)
 .debug_aranges
                0x00000640       0x20 c:/program files (x86)/atmel/atmel studio 6.0/extensions/atmel/armgcc/3.3.1.128/armgcctoolchain/bin/../lib/gcc/arm-none-eabi/4.7.0/thumb\libgcc.a(_divdi3.o)
 .debug_aranges
                0x00000660       0x20 c:/program files (x86)/atmel/atmel studio 6.0/extensions/atmel/armgcc/3.3.1.128/armgcctoolchain/bin/../lib/gcc/arm-none-eabi/4.7.0/thumb\libgcc.a(_udivdi3.o)

.debug_line     0x00000000     0x7bcc
 .debug_line    0x00000000      0x121 c:/program files (x86)/atmel/atmel studio 6.0/extensions/atmel/armgcc/3.3.1.128/armgcctoolchain/bin/../lib/gcc/arm-none-eabi/4.7.0/../../../../arm-none-eabi/lib/thumb\libc.a(lib_a-atexit.o)
 .debug_line    0x00000121      0x13c c:/program files (x86)/atmel/atmel studio 6.0/extensions/atmel/armgcc/3.3.1.128/armgcctoolchain/bin/../lib/gcc/arm-none-eabi/4.7.0/../../../../arm-none-eabi/lib/thumb\libc.a(lib_a-fini.o)
 .debug_line    0x0000025d      0x1a4 c:/program files (x86)/atmel/atmel studio 6.0/extensions/atmel/armgcc/3.3.1.128/armgcctoolchain/bin/../lib/gcc/arm-none-eabi/4.7.0/../../../../arm-none-eabi/lib/thumb\libc.a(lib_a-impure.o)
 .debug_line    0x00000401      0x152 c:/program files (x86)/atmel/atmel studio 6.0/extensions/atmel/armgcc/3.3.1.128/armgcctoolchain/bin/../lib/gcc/arm-none-eabi/4.7.0/../../../../arm-none-eabi/lib/thumb\libc.a(lib_a-init.o)
 .debug_line    0x00000553      0x1a5 c:/program files (x86)/atmel/atmel studio 6.0/extensions/atmel/armgcc/3.3.1.128/armgcctoolchain/bin/../lib/gcc/arm-none-eabi/4.7.0/../../../../arm-none-eabi/lib/thumb\libc.a(lib_a-memcpy.o)
 .debug_line    0x000006f8      0x1af c:/program files (x86)/atmel/atmel studio 6.0/extensions/atmel/armgcc/3.3.1.128/armgcctoolchain/bin/../lib/gcc/arm-none-eabi/4.7.0/../../../../arm-none-eabi/lib/thumb\libc.a(lib_a-memset.o)
 .debug_line    0x000008a7      0x24d c:/program files (x86)/atmel/atmel studio 6.0/extensions/atmel/armgcc/3.3.1.128/armgcctoolchain/bin/../lib/gcc/arm-none-eabi/4.7.0/../../../../arm-none-eabi/lib/thumb\libc.a(lib_a-printf.o)
 .debug_line    0x00000af4      0x25d c:/program files (x86)/atmel/atmel studio 6.0/extensions/atmel/armgcc/3.3.1.128/armgcctoolchain/bin/../lib/gcc/arm-none-eabi/4.7.0/../../../../arm-none-eabi/lib/thumb\libc.a(lib_a-puts.o)
 .debug_line    0x00000d51      0x229 c:/program files (x86)/atmel/atmel studio 6.0/extensions/atmel/armgcc/3.3.1.128/armgcctoolchain/bin/../lib/gcc/arm-none-eabi/4.7.0/../../../../arm-none-eabi/lib/thumb\libc.a(lib_a-setbuf.o)
 .debug_line    0x00000f7a      0x299 c:/program files (x86)/atmel/atmel studio 6.0/extensions/atmel/armgcc/3.3.1.128/armgcctoolchain/bin/../lib/gcc/arm-none-eabi/4.7.0/../../../../arm-none-eabi/lib/thumb\libc.a(lib_a-setvbuf.o)
 .debug_line    0x00001213      0x275 c:/program files (x86)/atmel/atmel studio 6.0/extensions/atmel/armgcc/3.3.1.128/armgcctoolchain/bin/../lib/gcc/arm-none-eabi/4.7.0/../../../../arm-none-eabi/lib/thumb\libc.a(lib_a-sprintf.o)
 .debug_line    0x00001488      0x1a5 c:/program files (x86)/atmel/atmel studio 6.0/extensions/atmel/armgcc/3.3.1.128/armgcctoolchain/bin/../lib/gcc/arm-none-eabi/4.7.0/../../../../arm-none-eabi/lib/thumb\libc.a(lib_a-strlen.o)
 .debug_line    0x0000162d      0x5a3 c:/program files (x86)/atmel/atmel studio 6.0/extensions/atmel/armgcc/3.3.1.128/armgcctoolchain/bin/../lib/gcc/arm-none-eabi/4.7.0/../../../../arm-none-eabi/lib/thumb\libc.a(lib_a-svfprintf.o)
 .debug_line    0x00001bd0      0x612 c:/program files (x86)/atmel/atmel studio 6.0/extensions/atmel/armgcc/3.3.1.128/armgcctoolchain/bin/../lib/gcc/arm-none-eabi/4.7.0/../../../../arm-none-eabi/lib/thumb\libc.a(lib_a-vfiprintf.o)
 .debug_line    0x000021e2      0x5e6 c:/program files (x86)/atmel/atmel studio 6.0/extensions/atmel/armgcc/3.3.1.128/armgcctoolchain/bin/../lib/gcc/arm-none-eabi/4.7.0/../../../../arm-none-eabi/lib/thumb\libc.a(lib_a-vfprintf.o)
 .debug_line    0x000027c8      0x281 c:/program files (x86)/atmel/atmel studio 6.0/extensions/atmel/armgcc/3.3.1.128/armgcctoolchain/bin/../lib/gcc/arm-none-eabi/4.7.0/../../../../arm-none-eabi/lib/thumb\libc.a(lib_a-wsetup.o)
 .debug_line    0x00002a49      0x261 c:/program files (x86)/atmel/atmel studio 6.0/extensions/atmel/armgcc/3.3.1.128/armgcctoolchain/bin/../lib/gcc/arm-none-eabi/4.7.0/../../../../arm-none-eabi/lib/thumb\libc.a(lib_a-__atexit.o)
 .debug_line    0x00002caa      0x2bf c:/program files (x86)/atmel/atmel studio 6.0/extensions/atmel/armgcc/3.3.1.128/armgcctoolchain/bin/../lib/gcc/arm-none-eabi/4.7.0/../../../../arm-none-eabi/lib/thumb\libc.a(lib_a-__call_atexit.o)
 .debug_line    0x00002f69      0x2d5 c:/program files (x86)/atmel/atmel studio 6.0/extensions/atmel/armgcc/3.3.1.128/armgcctoolchain/bin/../lib/gcc/arm-none-eabi/4.7.0/../../../../arm-none-eabi/lib/thumb\libc.a(lib_a-fflush.o)
 .debug_line    0x0000323e      0x2db c:/program files (x86)/atmel/atmel studio 6.0/extensions/atmel/armgcc/3.3.1.128/armgcctoolchain/bin/../lib/gcc/arm-none-eabi/4.7.0/../../../../arm-none-eabi/lib/thumb\libc.a(lib_a-findfp.o)
 .debug_line    0x00003519      0x27a c:/program files (x86)/atmel/atmel studio 6.0/extensions/atmel/armgcc/3.3.1.128/armgcctoolchain/bin/../lib/gcc/arm-none-eabi/4.7.0/../../../../arm-none-eabi/lib/thumb\libc.a(lib_a-fputwc.o)
 .debug_line    0x00003793      0x2eb c:/program files (x86)/atmel/atmel studio 6.0/extensions/atmel/armgcc/3.3.1.128/armgcctoolchain/bin/../lib/gcc/arm-none-eabi/4.7.0/../../../../arm-none-eabi/lib/thumb\libc.a(lib_a-freer.o)
 .debug_line    0x00003a7e      0x325 c:/program files (x86)/atmel/atmel studio 6.0/extensions/atmel/armgcc/3.3.1.128/armgcctoolchain/bin/../lib/gcc/arm-none-eabi/4.7.0/../../../../arm-none-eabi/lib/thumb\libc.a(lib_a-fvwrite.o)
 .debug_line    0x00003da3      0x259 c:/program files (x86)/atmel/atmel studio 6.0/extensions/atmel/armgcc/3.3.1.128/armgcctoolchain/bin/../lib/gcc/arm-none-eabi/4.7.0/../../../../arm-none-eabi/lib/thumb\libc.a(lib_a-fwalk.o)
 .debug_line    0x00003ffc      0x26a c:/program files (x86)/atmel/atmel studio 6.0/extensions/atmel/armgcc/3.3.1.128/armgcctoolchain/bin/../lib/gcc/arm-none-eabi/4.7.0/../../../../arm-none-eabi/lib/thumb\libc.a(lib_a-locale.o)
 .debug_line    0x00004266      0x29e c:/program files (x86)/atmel/atmel studio 6.0/extensions/atmel/armgcc/3.3.1.128/armgcctoolchain/bin/../lib/gcc/arm-none-eabi/4.7.0/../../../../arm-none-eabi/lib/thumb\libc.a(lib_a-makebuf.o)
 .debug_line    0x00004504      0x233 c:/program files (x86)/atmel/atmel studio 6.0/extensions/atmel/armgcc/3.3.1.128/armgcctoolchain/bin/../lib/gcc/arm-none-eabi/4.7.0/../../../../arm-none-eabi/lib/thumb\libc.a(lib_a-malloc.o)
 .debug_line    0x00004737      0x3c0 c:/program files (x86)/atmel/atmel studio 6.0/extensions/atmel/armgcc/3.3.1.128/armgcctoolchain/bin/../lib/gcc/arm-none-eabi/4.7.0/../../../../arm-none-eabi/lib/thumb\libc.a(lib_a-mallocr.o)
 .debug_line    0x00004af7      0x1b0 c:/program files (x86)/atmel/atmel studio 6.0/extensions/atmel/armgcc/3.3.1.128/armgcctoolchain/bin/../lib/gcc/arm-none-eabi/4.7.0/../../../../arm-none-eabi/lib/thumb\libc.a(lib_a-memchr.o)
 .debug_line    0x00004ca7      0x1d0 c:/program files (x86)/atmel/atmel studio 6.0/extensions/atmel/armgcc/3.3.1.128/armgcctoolchain/bin/../lib/gcc/arm-none-eabi/4.7.0/../../../../arm-none-eabi/lib/thumb\libc.a(lib_a-memmove.o)
 .debug_line    0x00004e77      0x1b6 c:/program files (x86)/atmel/atmel studio 6.0/extensions/atmel/armgcc/3.3.1.128/armgcctoolchain/bin/../lib/gcc/arm-none-eabi/4.7.0/../../../../arm-none-eabi/lib/thumb\libc.a(lib_a-mlock.o)
 .debug_line    0x0000502d      0x2aa c:/program files (x86)/atmel/atmel studio 6.0/extensions/atmel/armgcc/3.3.1.128/armgcctoolchain/bin/../lib/gcc/arm-none-eabi/4.7.0/../../../../arm-none-eabi/lib/thumb\libc.a(lib_a-reallocr.o)
 .debug_line    0x000052d7      0x232 c:/program files (x86)/atmel/atmel studio 6.0/extensions/atmel/armgcc/3.3.1.128/armgcctoolchain/bin/../lib/gcc/arm-none-eabi/4.7.0/../../../../arm-none-eabi/lib/thumb\libc.a(lib_a-sbrkr.o)
 .debug_line    0x00005509      0x261 c:/program files (x86)/atmel/atmel studio 6.0/extensions/atmel/armgcc/3.3.1.128/armgcctoolchain/bin/../lib/gcc/arm-none-eabi/4.7.0/../../../../arm-none-eabi/lib/thumb\libc.a(lib_a-stdio.o)
 .debug_line    0x0000576a      0x117 c:/program files (x86)/atmel/atmel studio 6.0/extensions/atmel/armgcc/3.3.1.128/armgcctoolchain/bin/../lib/gcc/arm-none-eabi/4.7.0/../../../../arm-none-eabi/lib/thumb\libc.a(lib_a-strcmp.o)
 .debug_line    0x00005881      0x5f0 c:/program files (x86)/atmel/atmel studio 6.0/extensions/atmel/armgcc/3.3.1.128/armgcctoolchain/bin/../lib/gcc/arm-none-eabi/4.7.0/../../../../arm-none-eabi/lib/thumb\libc.a(lib_a-svfiprintf.o)
 .debug_line    0x00005e71      0x282 c:/program files (x86)/atmel/atmel studio 6.0/extensions/atmel/armgcc/3.3.1.128/armgcctoolchain/bin/../lib/gcc/arm-none-eabi/4.7.0/../../../../arm-none-eabi/lib/thumb\libc.a(lib_a-wbuf.o)
 .debug_line    0x000060f3      0x249 c:/program files (x86)/atmel/atmel studio 6.0/extensions/atmel/armgcc/3.3.1.128/armgcctoolchain/bin/../lib/gcc/arm-none-eabi/4.7.0/../../../../arm-none-eabi/lib/thumb\libc.a(lib_a-wcrtomb.o)
 .debug_line    0x0000633c      0x253 c:/program files (x86)/atmel/atmel studio 6.0/extensions/atmel/armgcc/3.3.1.128/armgcctoolchain/bin/../lib/gcc/arm-none-eabi/4.7.0/../../../../arm-none-eabi/lib/thumb\libc.a(lib_a-wctomb_r.o)
 .debug_line    0x0000658f      0x232 c:/program files (x86)/atmel/atmel studio 6.0/extensions/atmel/armgcc/3.3.1.128/armgcctoolchain/bin/../lib/gcc/arm-none-eabi/4.7.0/../../../../arm-none-eabi/lib/thumb\libc.a(lib_a-writer.o)
 .debug_line    0x000067c1      0x233 c:/program files (x86)/atmel/atmel studio 6.0/extensions/atmel/armgcc/3.3.1.128/armgcctoolchain/bin/../lib/gcc/arm-none-eabi/4.7.0/../../../../arm-none-eabi/lib/thumb\libc.a(lib_a-closer.o)
 .debug_line    0x000069f4      0x281 c:/program files (x86)/atmel/atmel studio 6.0/extensions/atmel/armgcc/3.3.1.128/armgcctoolchain/bin/../lib/gcc/arm-none-eabi/4.7.0/../../../../arm-none-eabi/lib/thumb\libc.a(lib_a-fclose.o)
 .debug_line    0x00006c75      0x248 c:/program files (x86)/atmel/atmel studio 6.0/extensions/atmel/armgcc/3.3.1.128/armgcctoolchain/bin/../lib/gcc/arm-none-eabi/4.7.0/../../../../arm-none-eabi/lib/thumb\libc.a(lib_a-fstatr.o)
 .debug_line    0x00006ebd      0x234 c:/program files (x86)/atmel/atmel studio 6.0/extensions/atmel/armgcc/3.3.1.128/armgcctoolchain/bin/../lib/gcc/arm-none-eabi/4.7.0/../../../../arm-none-eabi/lib/thumb\libc.a(lib_a-isattyr.o)
 .debug_line    0x000070f1      0x232 c:/program files (x86)/atmel/atmel studio 6.0/extensions/atmel/armgcc/3.3.1.128/armgcctoolchain/bin/../lib/gcc/arm-none-eabi/4.7.0/../../../../arm-none-eabi/lib/thumb\libc.a(lib_a-lseekr.o)
 .debug_line    0x00007323      0x231 c:/program files (x86)/atmel/atmel studio 6.0/extensions/atmel/armgcc/3.3.1.128/armgcctoolchain/bin/../lib/gcc/arm-none-eabi/4.7.0/../../../../arm-none-eabi/lib/thumb\libc.a(lib_a-readr.o)
 .debug_line    0x00007554      0x279 c:/program files (x86)/atmel/atmel studio 6.0/extensions/atmel/armgcc/3.3.1.128/armgcctoolchain/bin/../lib/gcc/arm-none-eabi/4.7.0/../../../../arm-none-eabi/lib/thumb\libc.a(lib_a-reent.o)
 .debug_line    0x000077cd       0xa1 c:/program files (x86)/atmel/atmel studio 6.0/extensions/atmel/armgcc/3.3.1.128/armgcctoolchain/bin/../lib/gcc/arm-none-eabi/4.7.0/thumb\libgcc.a(_aeabi_uldivmod.o)
 .debug_line    0x0000786e       0xa1 c:/program files (x86)/atmel/atmel studio 6.0/extensions/atmel/armgcc/3.3.1.128/armgcctoolchain/bin/../lib/gcc/arm-none-eabi/4.7.0/thumb\libgcc.a(bpabi.o)
 .debug_line    0x0000790f       0x9d c:/program files (x86)/atmel/atmel studio 6.0/extensions/atmel/armgcc/3.3.1.128/armgcctoolchain/bin/../lib/gcc/arm-none-eabi/4.7.0/thumb\libgcc.a(_dvmd_tls.o)
 .debug_line    0x000079ac      0x11a c:/program files (x86)/atmel/atmel studio 6.0/extensions/atmel/armgcc/3.3.1.128/armgcctoolchain/bin/../lib/gcc/arm-none-eabi/4.7.0/thumb\libgcc.a(_divdi3.o)
 .debug_line    0x00007ac6      0x106 c:/program files (x86)/atmel/atmel studio 6.0/extensions/atmel/armgcc/3.3.1.128/armgcctoolchain/bin/../lib/gcc/arm-none-eabi/4.7.0/thumb\libgcc.a(_udivdi3.o)

.debug_str      0x00000000     0x252a
 .debug_str     0x00000000      0x118 c:/program files (x86)/atmel/atmel studio 6.0/extensions/atmel/armgcc/3.3.1.128/armgcctoolchain/bin/../lib/gcc/arm-none-eabi/4.7.0/../../../../arm-none-eabi/lib/thumb\libc.a(lib_a-atexit.o)
                                0x158 (size before relaxing)
 .debug_str     0x00000118       0xa1 c:/program files (x86)/atmel/atmel studio 6.0/extensions/atmel/armgcc/3.3.1.128/armgcctoolchain/bin/../lib/gcc/arm-none-eabi/4.7.0/../../../../arm-none-eabi/lib/thumb\libc.a(lib_a-fini.o)
                                0x152 (size before relaxing)
 .debug_str     0x000001b9      0x3f3 c:/program files (x86)/atmel/atmel studio 6.0/extensions/atmel/armgcc/3.3.1.128/armgcctoolchain/bin/../lib/gcc/arm-none-eabi/4.7.0/../../../../arm-none-eabi/lib/thumb\libc.a(lib_a-impure.o)
                                0x4e6 (size before relaxing)
 .debug_str     0x000005ac       0xd1 c:/program files (x86)/atmel/atmel studio 6.0/extensions/atmel/armgcc/3.3.1.128/armgcctoolchain/bin/../lib/gcc/arm-none-eabi/4.7.0/../../../../arm-none-eabi/lib/thumb\libc.a(lib_a-init.o)
                                0x17c (size before relaxing)
 .debug_str     0x0000067d       0x8a c:/program files (x86)/atmel/atmel studio 6.0/extensions/atmel/armgcc/3.3.1.128/armgcctoolchain/bin/../lib/gcc/arm-none-eabi/4.7.0/../../../../arm-none-eabi/lib/thumb\libc.a(lib_a-memcpy.o)
                                0x12f (size before relaxing)
 .debug_str     0x00000707       0x76 c:/program files (x86)/atmel/atmel studio 6.0/extensions/atmel/armgcc/3.3.1.128/armgcctoolchain/bin/../lib/gcc/arm-none-eabi/4.7.0/../../../../arm-none-eabi/lib/thumb\libc.a(lib_a-memset.o)
                                0x11b (size before relaxing)
 .debug_str     0x0000077d      0x12e c:/program files (x86)/atmel/atmel studio 6.0/extensions/atmel/armgcc/3.3.1.128/armgcctoolchain/bin/../lib/gcc/arm-none-eabi/4.7.0/../../../../arm-none-eabi/lib/thumb\libc.a(lib_a-printf.o)
                                0x59b (size before relaxing)
 .debug_str     0x000008ab       0xc9 c:/program files (x86)/atmel/atmel studio 6.0/extensions/atmel/armgcc/3.3.1.128/armgcctoolchain/bin/../lib/gcc/arm-none-eabi/4.7.0/../../../../arm-none-eabi/lib/thumb\libc.a(lib_a-puts.o)
                                0x5ba (size before relaxing)
 .debug_str     0x00000974       0x7d c:/program files (x86)/atmel/atmel studio 6.0/extensions/atmel/armgcc/3.3.1.128/armgcctoolchain/bin/../lib/gcc/arm-none-eabi/4.7.0/../../../../arm-none-eabi/lib/thumb\libc.a(lib_a-setbuf.o)
                                0x562 (size before relaxing)
 .debug_str     0x000009f1       0x89 c:/program files (x86)/atmel/atmel studio 6.0/extensions/atmel/armgcc/3.3.1.128/armgcctoolchain/bin/../lib/gcc/arm-none-eabi/4.7.0/../../../../arm-none-eabi/lib/thumb\libc.a(lib_a-setvbuf.o)
                                0x593 (size before relaxing)
 .debug_str     0x00000a7a       0x8f c:/program files (x86)/atmel/atmel studio 6.0/extensions/atmel/armgcc/3.3.1.128/armgcctoolchain/bin/../lib/gcc/arm-none-eabi/4.7.0/../../../../arm-none-eabi/lib/thumb\libc.a(lib_a-sprintf.o)
                                0x59f (size before relaxing)
 .debug_str     0x00000b09       0x7c c:/program files (x86)/atmel/atmel studio 6.0/extensions/atmel/armgcc/3.3.1.128/armgcctoolchain/bin/../lib/gcc/arm-none-eabi/4.7.0/../../../../arm-none-eabi/lib/thumb\libc.a(lib_a-strlen.o)
                                0x128 (size before relaxing)
 .debug_str     0x00000b85      0x131 c:/program files (x86)/atmel/atmel studio 6.0/extensions/atmel/armgcc/3.3.1.128/armgcctoolchain/bin/../lib/gcc/arm-none-eabi/4.7.0/../../../../arm-none-eabi/lib/thumb\libc.a(lib_a-svfprintf.o)
                                0x6b8 (size before relaxing)
 .debug_str     0x00000cb6       0x55 c:/program files (x86)/atmel/atmel studio 6.0/extensions/atmel/armgcc/3.3.1.128/armgcctoolchain/bin/../lib/gcc/arm-none-eabi/4.7.0/../../../../arm-none-eabi/lib/thumb\libc.a(lib_a-vfiprintf.o)
                                0x71c (size before relaxing)
 .debug_str     0x00000d0b        0x9 c:/program files (x86)/atmel/atmel studio 6.0/extensions/atmel/armgcc/3.3.1.128/armgcctoolchain/bin/../lib/gcc/arm-none-eabi/4.7.0/../../../../arm-none-eabi/lib/thumb\libc.a(lib_a-vfprintf.o)
                                0x6fb (size before relaxing)
 .debug_str     0x00000d14       0x7b c:/program files (x86)/atmel/atmel studio 6.0/extensions/atmel/armgcc/3.3.1.128/armgcctoolchain/bin/../lib/gcc/arm-none-eabi/4.7.0/../../../../arm-none-eabi/lib/thumb\libc.a(lib_a-wsetup.o)
                                0x581 (size before relaxing)
 .debug_str     0x00000d8f       0x7f c:/program files (x86)/atmel/atmel studio 6.0/extensions/atmel/armgcc/3.3.1.128/armgcctoolchain/bin/../lib/gcc/arm-none-eabi/4.7.0/../../../../arm-none-eabi/lib/thumb\libc.a(lib_a-__atexit.o)
                                0x53b (size before relaxing)
 .debug_str     0x00000e0e       0xb9 c:/program files (x86)/atmel/atmel studio 6.0/extensions/atmel/armgcc/3.3.1.128/armgcctoolchain/bin/../lib/gcc/arm-none-eabi/4.7.0/../../../../arm-none-eabi/lib/thumb\libc.a(lib_a-__call_atexit.o)
                                0x537 (size before relaxing)
 .debug_str     0x00000ec7       0x86 c:/program files (x86)/atmel/atmel studio 6.0/extensions/atmel/armgcc/3.3.1.128/armgcctoolchain/bin/../lib/gcc/arm-none-eabi/4.7.0/../../../../arm-none-eabi/lib/thumb\libc.a(lib_a-fflush.o)
                                0x5b1 (size before relaxing)
 .debug_str     0x00000f4d      0x12e c:/program files (x86)/atmel/atmel studio 6.0/extensions/atmel/armgcc/3.3.1.128/armgcctoolchain/bin/../lib/gcc/arm-none-eabi/4.7.0/../../../../arm-none-eabi/lib/thumb\libc.a(lib_a-findfp.o)
                                0x66b (size before relaxing)
 .debug_str     0x0000107b       0xa0 c:/program files (x86)/atmel/atmel studio 6.0/extensions/atmel/armgcc/3.3.1.128/armgcctoolchain/bin/../lib/gcc/arm-none-eabi/4.7.0/../../../../arm-none-eabi/lib/thumb\libc.a(lib_a-fputwc.o)
                                0x5bc (size before relaxing)
 .debug_str     0x0000111b      0x244 c:/program files (x86)/atmel/atmel studio 6.0/extensions/atmel/armgcc/3.3.1.128/armgcctoolchain/bin/../lib/gcc/arm-none-eabi/4.7.0/../../../../arm-none-eabi/lib/thumb\libc.a(lib_a-freer.o)
                                0x6cb (size before relaxing)
 .debug_str     0x0000135f       0xa0 c:/program files (x86)/atmel/atmel studio 6.0/extensions/atmel/armgcc/3.3.1.128/armgcctoolchain/bin/../lib/gcc/arm-none-eabi/4.7.0/../../../../arm-none-eabi/lib/thumb\libc.a(lib_a-fvwrite.o)
                                0x604 (size before relaxing)
 .debug_str     0x000013ff       0x92 c:/program files (x86)/atmel/atmel studio 6.0/extensions/atmel/armgcc/3.3.1.128/armgcctoolchain/bin/../lib/gcc/arm-none-eabi/4.7.0/../../../../arm-none-eabi/lib/thumb\libc.a(lib_a-fwalk.o)
                                0x5b3 (size before relaxing)
 .debug_str     0x00001491      0x2ca c:/program files (x86)/atmel/atmel studio 6.0/extensions/atmel/armgcc/3.3.1.128/armgcctoolchain/bin/../lib/gcc/arm-none-eabi/4.7.0/../../../../arm-none-eabi/lib/thumb\libc.a(lib_a-locale.o)
                                0x7cf (size before relaxing)
 .debug_str     0x0000175b      0x15d c:/program files (x86)/atmel/atmel studio 6.0/extensions/atmel/armgcc/3.3.1.128/armgcctoolchain/bin/../lib/gcc/arm-none-eabi/4.7.0/../../../../arm-none-eabi/lib/thumb\libc.a(lib_a-makebuf.o)
                                0x67b (size before relaxing)
 .debug_str     0x000018b8       0x7b c:/program files (x86)/atmel/atmel studio 6.0/extensions/atmel/armgcc/3.3.1.128/armgcctoolchain/bin/../lib/gcc/arm-none-eabi/4.7.0/../../../../arm-none-eabi/lib/thumb\libc.a(lib_a-malloc.o)
                                0x4f9 (size before relaxing)
 .debug_str     0x00001933       0xdf c:/program files (x86)/atmel/atmel studio 6.0/extensions/atmel/armgcc/3.3.1.128/armgcctoolchain/bin/../lib/gcc/arm-none-eabi/4.7.0/../../../../arm-none-eabi/lib/thumb\libc.a(lib_a-mallocr.o)
                                0x781 (size before relaxing)
 .debug_str     0x00001a12       0x7f c:/program files (x86)/atmel/atmel studio 6.0/extensions/atmel/armgcc/3.3.1.128/armgcctoolchain/bin/../lib/gcc/arm-none-eabi/4.7.0/../../../../arm-none-eabi/lib/thumb\libc.a(lib_a-memchr.o)
                                0x12b (size before relaxing)
 .debug_str     0x00001a91       0x79 c:/program files (x86)/atmel/atmel studio 6.0/extensions/atmel/armgcc/3.3.1.128/armgcctoolchain/bin/../lib/gcc/arm-none-eabi/4.7.0/../../../../arm-none-eabi/lib/thumb\libc.a(lib_a-memmove.o)
                                0x136 (size before relaxing)
 .debug_str     0x00001b0a       0x83 c:/program files (x86)/atmel/atmel studio 6.0/extensions/atmel/armgcc/3.3.1.128/armgcctoolchain/bin/../lib/gcc/arm-none-eabi/4.7.0/../../../../arm-none-eabi/lib/thumb\libc.a(lib_a-mlock.o)
                                0x4ee (size before relaxing)
 .debug_str     0x00001b8d       0x4e c:/program files (x86)/atmel/atmel studio 6.0/extensions/atmel/armgcc/3.3.1.128/armgcctoolchain/bin/../lib/gcc/arm-none-eabi/4.7.0/../../../../arm-none-eabi/lib/thumb\libc.a(lib_a-reallocr.o)
                                0x653 (size before relaxing)
 .debug_str     0x00001bdb       0x78 c:/program files (x86)/atmel/atmel studio 6.0/extensions/atmel/armgcc/3.3.1.128/armgcctoolchain/bin/../lib/gcc/arm-none-eabi/4.7.0/../../../../arm-none-eabi/lib/thumb\libc.a(lib_a-sbrkr.o)
                                0x4dd (size before relaxing)
 .debug_str     0x00001c53       0xcd c:/program files (x86)/atmel/atmel studio 6.0/extensions/atmel/armgcc/3.3.1.128/armgcctoolchain/bin/../lib/gcc/arm-none-eabi/4.7.0/../../../../arm-none-eabi/lib/thumb\libc.a(lib_a-stdio.o)
                                0x5cc (size before relaxing)
 .debug_str     0x00001d20       0x74 c:/program files (x86)/atmel/atmel studio 6.0/extensions/atmel/armgcc/3.3.1.128/armgcctoolchain/bin/../lib/gcc/arm-none-eabi/4.7.0/../../../../arm-none-eabi/lib/thumb\libc.a(lib_a-strcmp.o)
                                0x119 (size before relaxing)
 .debug_str     0x00001d94        0xe c:/program files (x86)/atmel/atmel studio 6.0/extensions/atmel/armgcc/3.3.1.128/armgcctoolchain/bin/../lib/gcc/arm-none-eabi/4.7.0/../../../../arm-none-eabi/lib/thumb\libc.a(lib_a-svfiprintf.o)
                                0x6ea (size before relaxing)
 .debug_str     0x00001da2       0x74 c:/program files (x86)/atmel/atmel studio 6.0/extensions/atmel/armgcc/3.3.1.128/armgcctoolchain/bin/../lib/gcc/arm-none-eabi/4.7.0/../../../../arm-none-eabi/lib/thumb\libc.a(lib_a-wbuf.o)
                                0x586 (size before relaxing)
 .debug_str     0x00001e16       0x88 c:/program files (x86)/atmel/atmel studio 6.0/extensions/atmel/armgcc/3.3.1.128/armgcctoolchain/bin/../lib/gcc/arm-none-eabi/4.7.0/../../../../arm-none-eabi/lib/thumb\libc.a(lib_a-wcrtomb.o)
                                0x5a3 (size before relaxing)
 .debug_str     0x00001e9e       0x91 c:/program files (x86)/atmel/atmel studio 6.0/extensions/atmel/armgcc/3.3.1.128/armgcctoolchain/bin/../lib/gcc/arm-none-eabi/4.7.0/../../../../arm-none-eabi/lib/thumb\libc.a(lib_a-wctomb_r.o)
                                0x5b2 (size before relaxing)
 .debug_str     0x00001f2f       0x6e c:/program files (x86)/atmel/atmel studio 6.0/extensions/atmel/armgcc/3.3.1.128/armgcctoolchain/bin/../lib/gcc/arm-none-eabi/4.7.0/../../../../arm-none-eabi/lib/thumb\libc.a(lib_a-writer.o)
                                0x4da (size before relaxing)
 .debug_str     0x00001f9d       0x6e c:/program files (x86)/atmel/atmel studio 6.0/extensions/atmel/armgcc/3.3.1.128/armgcctoolchain/bin/../lib/gcc/arm-none-eabi/4.7.0/../../../../arm-none-eabi/lib/thumb\libc.a(lib_a-closer.o)
                                0x4ca (size before relaxing)
 .debug_str     0x0000200b       0x7f c:/program files (x86)/atmel/atmel studio 6.0/extensions/atmel/armgcc/3.3.1.128/armgcctoolchain/bin/../lib/gcc/arm-none-eabi/4.7.0/../../../../arm-none-eabi/lib/thumb\libc.a(lib_a-fclose.o)
                                0x5ae (size before relaxing)
 .debug_str     0x0000208a       0x7b c:/program files (x86)/atmel/atmel studio 6.0/extensions/atmel/armgcc/3.3.1.128/armgcctoolchain/bin/../lib/gcc/arm-none-eabi/4.7.0/../../../../arm-none-eabi/lib/thumb\libc.a(lib_a-fstatr.o)
                                0x5c4 (size before relaxing)
 .debug_str     0x00002105       0x77 c:/program files (x86)/atmel/atmel studio 6.0/extensions/atmel/armgcc/3.3.1.128/armgcctoolchain/bin/../lib/gcc/arm-none-eabi/4.7.0/../../../../arm-none-eabi/lib/thumb\libc.a(lib_a-isattyr.o)
                                0x4d4 (size before relaxing)
 .debug_str     0x0000217c       0x75 c:/program files (x86)/atmel/atmel studio 6.0/extensions/atmel/armgcc/3.3.1.128/armgcctoolchain/bin/../lib/gcc/arm-none-eabi/4.7.0/../../../../arm-none-eabi/lib/thumb\libc.a(lib_a-lseekr.o)
                                0x4df (size before relaxing)
 .debug_str     0x000021f1       0x6d c:/program files (x86)/atmel/atmel studio 6.0/extensions/atmel/armgcc/3.3.1.128/armgcctoolchain/bin/../lib/gcc/arm-none-eabi/4.7.0/../../../../arm-none-eabi/lib/thumb\libc.a(lib_a-readr.o)
                                0x4d8 (size before relaxing)
 .debug_str     0x0000225e       0xa7 c:/program files (x86)/atmel/atmel studio 6.0/extensions/atmel/armgcc/3.3.1.128/armgcctoolchain/bin/../lib/gcc/arm-none-eabi/4.7.0/../../../../arm-none-eabi/lib/thumb\libc.a(lib_a-reent.o)
                                0x513 (size before relaxing)
 .debug_str     0x00002305       0xb0 c:/program files (x86)/atmel/atmel studio 6.0/extensions/atmel/armgcc/3.3.1.128/armgcctoolchain/bin/../lib/gcc/arm-none-eabi/4.7.0/thumb\libgcc.a(bpabi.o)
                                 0xeb (size before relaxing)
 .debug_str     0x000023b5      0x175 c:/program files (x86)/atmel/atmel studio 6.0/extensions/atmel/armgcc/3.3.1.128/armgcctoolchain/bin/../lib/gcc/arm-none-eabi/4.7.0/thumb\libgcc.a(_divdi3.o)
                                0x22e (size before relaxing)
 .debug_str     0x00000000      0x22f c:/program files (x86)/atmel/atmel studio 6.0/extensions/atmel/armgcc/3.3.1.128/armgcctoolchain/bin/../lib/gcc/arm-none-eabi/4.7.0/thumb\libgcc.a(_udivdi3.o)

.debug_frame    0x00000000      0xcb4
 .debug_frame   0x00000000       0x20 c:/program files (x86)/atmel/atmel studio 6.0/extensions/atmel/armgcc/3.3.1.128/armgcctoolchain/bin/../lib/gcc/arm-none-eabi/4.7.0/../../../../arm-none-eabi/lib/thumb\libc.a(lib_a-atexit.o)
 .debug_frame   0x00000020       0x2c c:/program files (x86)/atmel/atmel studio 6.0/extensions/atmel/armgcc/3.3.1.128/armgcctoolchain/bin/../lib/gcc/arm-none-eabi/4.7.0/../../../../arm-none-eabi/lib/thumb\libc.a(lib_a-fini.o)
 .debug_frame   0x0000004c       0x2c c:/program files (x86)/atmel/atmel studio 6.0/extensions/atmel/armgcc/3.3.1.128/armgcctoolchain/bin/../lib/gcc/arm-none-eabi/4.7.0/../../../../arm-none-eabi/lib/thumb\libc.a(lib_a-init.o)
 .debug_frame   0x00000078       0x28 c:/program files (x86)/atmel/atmel studio 6.0/extensions/atmel/armgcc/3.3.1.128/armgcctoolchain/bin/../lib/gcc/arm-none-eabi/4.7.0/../../../../arm-none-eabi/lib/thumb\libc.a(lib_a-memcpy.o)
 .debug_frame   0x000000a0       0x20 c:/program files (x86)/atmel/atmel studio 6.0/extensions/atmel/armgcc/3.3.1.128/armgcctoolchain/bin/../lib/gcc/arm-none-eabi/4.7.0/../../../../arm-none-eabi/lib/thumb\libc.a(lib_a-memset.o)
 .debug_frame   0x000000c0       0x5c c:/program files (x86)/atmel/atmel studio 6.0/extensions/atmel/armgcc/3.3.1.128/armgcctoolchain/bin/../lib/gcc/arm-none-eabi/4.7.0/../../../../arm-none-eabi/lib/thumb\libc.a(lib_a-printf.o)
 .debug_frame   0x0000011c       0x3c c:/program files (x86)/atmel/atmel studio 6.0/extensions/atmel/armgcc/3.3.1.128/armgcctoolchain/bin/../lib/gcc/arm-none-eabi/4.7.0/../../../../arm-none-eabi/lib/thumb\libc.a(lib_a-puts.o)
 .debug_frame   0x00000158       0x20 c:/program files (x86)/atmel/atmel studio 6.0/extensions/atmel/armgcc/3.3.1.128/armgcctoolchain/bin/../lib/gcc/arm-none-eabi/4.7.0/../../../../arm-none-eabi/lib/thumb\libc.a(lib_a-setbuf.o)
 .debug_frame   0x00000178       0x30 c:/program files (x86)/atmel/atmel studio 6.0/extensions/atmel/armgcc/3.3.1.128/armgcctoolchain/bin/../lib/gcc/arm-none-eabi/4.7.0/../../../../arm-none-eabi/lib/thumb\libc.a(lib_a-setvbuf.o)
 .debug_frame   0x000001a8       0x58 c:/program files (x86)/atmel/atmel studio 6.0/extensions/atmel/armgcc/3.3.1.128/armgcctoolchain/bin/../lib/gcc/arm-none-eabi/4.7.0/../../../../arm-none-eabi/lib/thumb\libc.a(lib_a-sprintf.o)
 .debug_frame   0x00000200       0x20 c:/program files (x86)/atmel/atmel studio 6.0/extensions/atmel/armgcc/3.3.1.128/armgcctoolchain/bin/../lib/gcc/arm-none-eabi/4.7.0/../../../../arm-none-eabi/lib/thumb\libc.a(lib_a-strlen.o)
 .debug_frame   0x00000220       0x3c c:/program files (x86)/atmel/atmel studio 6.0/extensions/atmel/armgcc/3.3.1.128/armgcctoolchain/bin/../lib/gcc/arm-none-eabi/4.7.0/../../../../arm-none-eabi/lib/thumb\libc.a(lib_a-svfprintf.o)
 .debug_frame   0x0000025c       0x7c c:/program files (x86)/atmel/atmel studio 6.0/extensions/atmel/armgcc/3.3.1.128/armgcctoolchain/bin/../lib/gcc/arm-none-eabi/4.7.0/../../../../arm-none-eabi/lib/thumb\libc.a(lib_a-vfiprintf.o)
 .debug_frame   0x000002d8       0x58 c:/program files (x86)/atmel/atmel studio 6.0/extensions/atmel/armgcc/3.3.1.128/armgcctoolchain/bin/../lib/gcc/arm-none-eabi/4.7.0/../../../../arm-none-eabi/lib/thumb\libc.a(lib_a-vfprintf.o)
 .debug_frame   0x00000330       0x2c c:/program files (x86)/atmel/atmel studio 6.0/extensions/atmel/armgcc/3.3.1.128/armgcctoolchain/bin/../lib/gcc/arm-none-eabi/4.7.0/../../../../arm-none-eabi/lib/thumb\libc.a(lib_a-wsetup.o)
 .debug_frame   0x0000035c       0x34 c:/program files (x86)/atmel/atmel studio 6.0/extensions/atmel/armgcc/3.3.1.128/armgcctoolchain/bin/../lib/gcc/arm-none-eabi/4.7.0/../../../../arm-none-eabi/lib/thumb\libc.a(lib_a-__atexit.o)
 .debug_frame   0x00000390       0x4c c:/program files (x86)/atmel/atmel studio 6.0/extensions/atmel/armgcc/3.3.1.128/armgcctoolchain/bin/../lib/gcc/arm-none-eabi/4.7.0/../../../../arm-none-eabi/lib/thumb\libc.a(lib_a-__call_atexit.o)
 .debug_frame   0x000003dc       0x40 c:/program files (x86)/atmel/atmel studio 6.0/extensions/atmel/armgcc/3.3.1.128/armgcctoolchain/bin/../lib/gcc/arm-none-eabi/4.7.0/../../../../arm-none-eabi/lib/thumb\libc.a(lib_a-fflush.o)
 .debug_frame   0x0000041c      0x120 c:/program files (x86)/atmel/atmel studio 6.0/extensions/atmel/armgcc/3.3.1.128/armgcctoolchain/bin/../lib/gcc/arm-none-eabi/4.7.0/../../../../arm-none-eabi/lib/thumb\libc.a(lib_a-findfp.o)
 .debug_frame   0x0000053c       0x54 c:/program files (x86)/atmel/atmel studio 6.0/extensions/atmel/armgcc/3.3.1.128/armgcctoolchain/bin/../lib/gcc/arm-none-eabi/4.7.0/../../../../arm-none-eabi/lib/thumb\libc.a(lib_a-fputwc.o)
 .debug_frame   0x00000590       0x50 c:/program files (x86)/atmel/atmel studio 6.0/extensions/atmel/armgcc/3.3.1.128/armgcctoolchain/bin/../lib/gcc/arm-none-eabi/4.7.0/../../../../arm-none-eabi/lib/thumb\libc.a(lib_a-freer.o)
 .debug_frame   0x000005e0       0x3c c:/program files (x86)/atmel/atmel studio 6.0/extensions/atmel/armgcc/3.3.1.128/armgcctoolchain/bin/../lib/gcc/arm-none-eabi/4.7.0/../../../../arm-none-eabi/lib/thumb\libc.a(lib_a-fvwrite.o)
 .debug_frame   0x0000061c       0x54 c:/program files (x86)/atmel/atmel studio 6.0/extensions/atmel/armgcc/3.3.1.128/armgcctoolchain/bin/../lib/gcc/arm-none-eabi/4.7.0/../../../../arm-none-eabi/lib/thumb\libc.a(lib_a-fwalk.o)
 .debug_frame   0x00000670       0x98 c:/program files (x86)/atmel/atmel studio 6.0/extensions/atmel/armgcc/3.3.1.128/armgcctoolchain/bin/../lib/gcc/arm-none-eabi/4.7.0/../../../../arm-none-eabi/lib/thumb\libc.a(lib_a-locale.o)
 .debug_frame   0x00000708       0x30 c:/program files (x86)/atmel/atmel studio 6.0/extensions/atmel/armgcc/3.3.1.128/armgcctoolchain/bin/../lib/gcc/arm-none-eabi/4.7.0/../../../../arm-none-eabi/lib/thumb\libc.a(lib_a-makebuf.o)
 .debug_frame   0x00000738       0x30 c:/program files (x86)/atmel/atmel studio 6.0/extensions/atmel/armgcc/3.3.1.128/armgcctoolchain/bin/../lib/gcc/arm-none-eabi/4.7.0/../../../../arm-none-eabi/lib/thumb\libc.a(lib_a-malloc.o)
 .debug_frame   0x00000768       0x34 c:/program files (x86)/atmel/atmel studio 6.0/extensions/atmel/armgcc/3.3.1.128/armgcctoolchain/bin/../lib/gcc/arm-none-eabi/4.7.0/../../../../arm-none-eabi/lib/thumb\libc.a(lib_a-mallocr.o)
 .debug_frame   0x0000079c       0x28 c:/program files (x86)/atmel/atmel studio 6.0/extensions/atmel/armgcc/3.3.1.128/armgcctoolchain/bin/../lib/gcc/arm-none-eabi/4.7.0/../../../../arm-none-eabi/lib/thumb\libc.a(lib_a-memchr.o)
 .debug_frame   0x000007c4       0x28 c:/program files (x86)/atmel/atmel studio 6.0/extensions/atmel/armgcc/3.3.1.128/armgcctoolchain/bin/../lib/gcc/arm-none-eabi/4.7.0/../../../../arm-none-eabi/lib/thumb\libc.a(lib_a-memmove.o)
 .debug_frame   0x000007ec       0x30 c:/program files (x86)/atmel/atmel studio 6.0/extensions/atmel/armgcc/3.3.1.128/armgcctoolchain/bin/../lib/gcc/arm-none-eabi/4.7.0/../../../../arm-none-eabi/lib/thumb\libc.a(lib_a-mlock.o)
 .debug_frame   0x0000081c       0x38 c:/program files (x86)/atmel/atmel studio 6.0/extensions/atmel/armgcc/3.3.1.128/armgcctoolchain/bin/../lib/gcc/arm-none-eabi/4.7.0/../../../../arm-none-eabi/lib/thumb\libc.a(lib_a-reallocr.o)
 .debug_frame   0x00000854       0x2c c:/program files (x86)/atmel/atmel studio 6.0/extensions/atmel/armgcc/3.3.1.128/armgcctoolchain/bin/../lib/gcc/arm-none-eabi/4.7.0/../../../../arm-none-eabi/lib/thumb\libc.a(lib_a-sbrkr.o)
 .debug_frame   0x00000880       0x80 c:/program files (x86)/atmel/atmel studio 6.0/extensions/atmel/armgcc/3.3.1.128/armgcctoolchain/bin/../lib/gcc/arm-none-eabi/4.7.0/../../../../arm-none-eabi/lib/thumb\libc.a(lib_a-stdio.o)
 .debug_frame   0x00000900       0x20 c:/program files (x86)/atmel/atmel studio 6.0/extensions/atmel/armgcc/3.3.1.128/armgcctoolchain/bin/../lib/gcc/arm-none-eabi/4.7.0/../../../../arm-none-eabi/lib/thumb\libc.a(lib_a-strcmp.o)
 .debug_frame   0x00000920       0x68 c:/program files (x86)/atmel/atmel studio 6.0/extensions/atmel/armgcc/3.3.1.128/armgcctoolchain/bin/../lib/gcc/arm-none-eabi/4.7.0/../../../../arm-none-eabi/lib/thumb\libc.a(lib_a-svfiprintf.o)
 .debug_frame   0x00000988       0x3c c:/program files (x86)/atmel/atmel studio 6.0/extensions/atmel/armgcc/3.3.1.128/armgcctoolchain/bin/../lib/gcc/arm-none-eabi/4.7.0/../../../../arm-none-eabi/lib/thumb\libc.a(lib_a-wbuf.o)
 .debug_frame   0x000009c4       0x50 c:/program files (x86)/atmel/atmel studio 6.0/extensions/atmel/armgcc/3.3.1.128/armgcctoolchain/bin/../lib/gcc/arm-none-eabi/4.7.0/../../../../arm-none-eabi/lib/thumb\libc.a(lib_a-wcrtomb.o)
 .debug_frame   0x00000a14       0x44 c:/program files (x86)/atmel/atmel studio 6.0/extensions/atmel/armgcc/3.3.1.128/armgcctoolchain/bin/../lib/gcc/arm-none-eabi/4.7.0/../../../../arm-none-eabi/lib/thumb\libc.a(lib_a-wctomb_r.o)
 .debug_frame   0x00000a58       0x2c c:/program files (x86)/atmel/atmel studio 6.0/extensions/atmel/armgcc/3.3.1.128/armgcctoolchain/bin/../lib/gcc/arm-none-eabi/4.7.0/../../../../arm-none-eabi/lib/thumb\libc.a(lib_a-writer.o)
 .debug_frame   0x00000a84       0x2c c:/program files (x86)/atmel/atmel studio 6.0/extensions/atmel/armgcc/3.3.1.128/armgcctoolchain/bin/../lib/gcc/arm-none-eabi/4.7.0/../../../../arm-none-eabi/lib/thumb\libc.a(lib_a-closer.o)
 .debug_frame   0x00000ab0       0x3c c:/program files (x86)/atmel/atmel studio 6.0/extensions/atmel/armgcc/3.3.1.128/armgcctoolchain/bin/../lib/gcc/arm-none-eabi/4.7.0/../../../../arm-none-eabi/lib/thumb\libc.a(lib_a-fclose.o)
 .debug_frame   0x00000aec       0x2c c:/program files (x86)/atmel/atmel studio 6.0/extensions/atmel/armgcc/3.3.1.128/armgcctoolchain/bin/../lib/gcc/arm-none-eabi/4.7.0/../../../../arm-none-eabi/lib/thumb\libc.a(lib_a-fstatr.o)
 .debug_frame   0x00000b18       0x2c c:/program files (x86)/atmel/atmel studio 6.0/extensions/atmel/armgcc/3.3.1.128/armgcctoolchain/bin/../lib/gcc/arm-none-eabi/4.7.0/../../../../arm-none-eabi/lib/thumb\libc.a(lib_a-isattyr.o)
 .debug_frame   0x00000b44       0x2c c:/program files (x86)/atmel/atmel studio 6.0/extensions/atmel/armgcc/3.3.1.128/armgcctoolchain/bin/../lib/gcc/arm-none-eabi/4.7.0/../../../../arm-none-eabi/lib/thumb\libc.a(lib_a-lseekr.o)
 .debug_frame   0x00000b70       0x2c c:/program files (x86)/atmel/atmel studio 6.0/extensions/atmel/armgcc/3.3.1.128/armgcctoolchain/bin/../lib/gcc/arm-none-eabi/4.7.0/../../../../arm-none-eabi/lib/thumb\libc.a(lib_a-readr.o)
 .debug_frame   0x00000b9c       0x64 c:/program files (x86)/atmel/atmel studio 6.0/extensions/atmel/armgcc/3.3.1.128/armgcctoolchain/bin/../lib/gcc/arm-none-eabi/4.7.0/../../../../arm-none-eabi/lib/thumb\libc.a(lib_a-reent.o)
 .debug_frame   0x00000c00       0x50 c:/program files (x86)/atmel/atmel studio 6.0/extensions/atmel/armgcc/3.3.1.128/armgcctoolchain/bin/../lib/gcc/arm-none-eabi/4.7.0/thumb\libgcc.a(bpabi.o)
 .debug_frame   0x00000c50       0x34 c:/program files (x86)/atmel/atmel studio 6.0/extensions/atmel/armgcc/3.3.1.128/armgcctoolchain/bin/../lib/gcc/arm-none-eabi/4.7.0/thumb\libgcc.a(_divdi3.o)
 .debug_frame   0x00000c84       0x30 c:/program files (x86)/atmel/atmel studio 6.0/extensions/atmel/armgcc/3.3.1.128/armgcctoolchain/bin/../lib/gcc/arm-none-eabi/4.7.0/thumb\libgcc.a(_udivdi3.o)

.debug_ranges   0x00000000      0x390
 .debug_ranges  0x00000000       0x20 c:/program files (x86)/atmel/atmel studio 6.0/extensions/atmel/armgcc/3.3.1.128/armgcctoolchain/bin/../lib/gcc/arm-none-eabi/4.7.0/../../../../arm-none-eabi/lib/thumb\libc.a(lib_a-svfprintf.o)
 .debug_ranges  0x00000020       0x38 c:/program files (x86)/atmel/atmel studio 6.0/extensions/atmel/armgcc/3.3.1.128/armgcctoolchain/bin/../lib/gcc/arm-none-eabi/4.7.0/../../../../arm-none-eabi/lib/thumb\libc.a(lib_a-vfiprintf.o)
 .debug_ranges  0x00000058       0x38 c:/program files (x86)/atmel/atmel studio 6.0/extensions/atmel/armgcc/3.3.1.128/armgcctoolchain/bin/../lib/gcc/arm-none-eabi/4.7.0/../../../../arm-none-eabi/lib/thumb\libc.a(lib_a-vfprintf.o)
 .debug_ranges  0x00000090       0x60 c:/program files (x86)/atmel/atmel studio 6.0/extensions/atmel/armgcc/3.3.1.128/armgcctoolchain/bin/../lib/gcc/arm-none-eabi/4.7.0/../../../../arm-none-eabi/lib/thumb\libc.a(lib_a-__call_atexit.o)
 .debug_ranges  0x000000f0       0x60 c:/program files (x86)/atmel/atmel studio 6.0/extensions/atmel/armgcc/3.3.1.128/armgcctoolchain/bin/../lib/gcc/arm-none-eabi/4.7.0/../../../../arm-none-eabi/lib/thumb\libc.a(lib_a-fwalk.o)
 .debug_ranges  0x00000150       0x20 c:/program files (x86)/atmel/atmel studio 6.0/extensions/atmel/armgcc/3.3.1.128/armgcctoolchain/bin/../lib/gcc/arm-none-eabi/4.7.0/../../../../arm-none-eabi/lib/thumb\libc.a(lib_a-svfiprintf.o)
 .debug_ranges  0x00000170      0x120 c:/program files (x86)/atmel/atmel studio 6.0/extensions/atmel/armgcc/3.3.1.128/armgcctoolchain/bin/../lib/gcc/arm-none-eabi/4.7.0/thumb\libgcc.a(_divdi3.o)
 .debug_ranges  0x00000290      0x100 c:/program files (x86)/atmel/atmel studio 6.0/extensions/atmel/armgcc/3.3.1.128/armgcctoolchain/bin/../lib/gcc/arm-none-eabi/4.7.0/thumb\libgcc.a(_udivdi3.o)

Cross Reference Table

Symbol                                            File
ACC_Handler                                       src/asf/sam/utils/cmsis/sam3s8/source/templates/exceptions.o
                                                  src/asf/sam/utils/cmsis/sam3s8/source/templates/gcc/startup_sam3sd8.o
ADC_Handler                                       src/asf/sam/utils/cmsis/sam3s8/source/templates/exceptions.o
                                                  src/asf/sam/utils/cmsis/sam3s8/source/templates/gcc/startup_sam3sd8.o
Beep                                              src/pwmb.o
                                                  src/stdio_usb_example.o
                                                  src/zeppelin_fc.o
BusFault_Handler                                  src/asf/sam/utils/cmsis/sam3s8/source/templates/exceptions.o
                                                  src/asf/sam/utils/cmsis/sam3s8/source/templates/gcc/startup_sam3sd8.o
CRCCU_Handler                                     src/asf/sam/utils/cmsis/sam3s8/source/templates/exceptions.o
                                                  src/asf/sam/utils/cmsis/sam3s8/source/templates/gcc/startup_sam3sd8.o
DACC_Handler                                      src/asf/sam/utils/cmsis/sam3s8/source/templates/exceptions.o
                                                  src/asf/sam/utils/cmsis/sam3s8/source/templates/gcc/startup_sam3sd8.o
DebugMon_Handler                                  src/asf/sam/utils/cmsis/sam3s8/source/templates/exceptions.o
                                                  src/asf/sam/utils/cmsis/sam3s8/source/templates/gcc/startup_sam3sd8.o
Dummy_Handler                                     src/asf/sam/utils/cmsis/sam3s8/source/templates/exceptions.o
                                                  src/asf/sam/utils/cmsis/sam3s8/source/templates/gcc/startup_sam3sd8.o
EFC_Handler                                       src/asf/sam/utils/cmsis/sam3s8/source/templates/exceptions.o
                                                  src/asf/sam/utils/cmsis/sam3s8/source/templates/gcc/startup_sam3sd8.o
HSMCI_Handler                                     src/asf/sam/utils/cmsis/sam3s8/source/templates/exceptions.o
                                                  src/asf/sam/utils/cmsis/sam3s8/source/templates/gcc/startup_sam3sd8.o
HardFault_Handler                                 src/asf/sam/utils/cmsis/sam3s8/source/templates/exceptions.o
                                                  src/asf/sam/utils/cmsis/sam3s8/source/templates/gcc/startup_sam3sd8.o
I2Cdev_readBit                                    src/I2CdevWrapper.o
                                                  src/MPU9150.o
I2Cdev_readBits                                   src/I2CdevWrapper.o
                                                  src/MPU9150.o
I2Cdev_readByte                                   src/I2CdevWrapper.o
                                                  src/MPU9150.o
I2Cdev_readBytes                                  src/I2CdevWrapper.o
                                                  src/MPU9150.o
I2Cdev_writeBit                                   src/I2CdevWrapper.o
                                                  src/MPU9150.o
I2Cdev_writeBits                                  src/I2CdevWrapper.o
                                                  src/MPU9150.o
I2Cdev_writeByte                                  src/I2CdevWrapper.o
                                                  src/MPU9150.o
I2Cdev_writeBytes                                 src/I2CdevWrapper.o
I2Cdev_writeWord                                  src/MPU9150.o
MPU9150_buffer                                    src/stdio_usb_example.o
                                                  src/MPU9150.o
MPU9150_devAddr                                   src/stdio_usb_example.o
                                                  src/MPU9150.o
MPU9150_getAccelFIFOEnabled                       src/MPU9150.o
MPU9150_getAccelXSelfTest                         src/MPU9150.o
MPU9150_getAccelYSelfTest                         src/MPU9150.o
MPU9150_getAccelZSelfTest                         src/MPU9150.o
MPU9150_getAcceleration                           src/MPU9150.o
MPU9150_getAccelerationX                          src/MPU9150.o
MPU9150_getAccelerationY                          src/MPU9150.o
MPU9150_getAccelerationZ                          src/MPU9150.o
MPU9150_getAccelerometerPowerOnDelay              src/MPU9150.o
MPU9150_getAuxVDDIOLevel                          src/MPU9150.o
MPU9150_getClockOutputEnabled                     src/MPU9150.o
MPU9150_getClockSource                            src/MPU9150.o
MPU9150_getDHPFMode                               src/MPU9150.o
MPU9150_getDLPFMode                               src/MPU9150.o
MPU9150_getDMPConfig1                             src/MPU9150.o
MPU9150_getDMPConfig2                             src/MPU9150.o
MPU9150_getDMPEnabled                             src/MPU9150.o
MPU9150_getDMPInt0Status                          src/MPU9150.o
MPU9150_getDMPInt1Status                          src/MPU9150.o
MPU9150_getDMPInt2Status                          src/MPU9150.o
MPU9150_getDMPInt3Status                          src/MPU9150.o
MPU9150_getDMPInt4Status                          src/MPU9150.o
MPU9150_getDMPInt5Status                          src/MPU9150.o
MPU9150_getDeviceID                               src/MPU9150.o
MPU9150_getExternalFrameSync                      src/MPU9150.o
MPU9150_getExternalSensorByte                     src/MPU9150.o
MPU9150_getExternalSensorDWord                    src/MPU9150.o
MPU9150_getExternalSensorWord                     src/MPU9150.o
MPU9150_getExternalShadowDelayEnabled             src/MPU9150.o
MPU9150_getFIFOByte                               src/MPU9150.o
MPU9150_getFIFOBytes                              src/MPU9150.o
MPU9150_getFIFOCount                              src/MPU9150.o
MPU9150_getFIFOEnabled                            src/MPU9150.o
MPU9150_getFSyncInterruptEnabled                  src/MPU9150.o
MPU9150_getFSyncInterruptLevel                    src/MPU9150.o
MPU9150_getFreefallDetectionCounterDecrement      src/MPU9150.o
MPU9150_getFreefallDetectionDuration              src/MPU9150.o
MPU9150_getFreefallDetectionThreshold             src/MPU9150.o
MPU9150_getFullScaleAccelRange                    src/MPU9150.o
MPU9150_getFullScaleGyroRange                     src/MPU9150.o
MPU9150_getI2CBypassEnabled                       src/MPU9150.o
MPU9150_getI2CMasterModeEnabled                   src/MPU9150.o
MPU9150_getIntDMPEnabled                          src/MPU9150.o
MPU9150_getIntDMPStatus                           src/MPU9150.o
MPU9150_getIntDataReadyEnabled                    src/MPU9150.o
MPU9150_getIntDataReadyStatus                     src/MPU9150.o
MPU9150_getIntEnabled                             src/MPU9150.o
MPU9150_getIntFIFOMPU9150_bufferOverflowEnabled   src/MPU9150.o
MPU9150_getIntFIFOMPU9150_bufferOverflowStatus    src/MPU9150.o
MPU9150_getIntFreefallEnabled                     src/MPU9150.o
MPU9150_getIntFreefallStatus                      src/MPU9150.o
MPU9150_getIntI2CMasterEnabled                    src/MPU9150.o
MPU9150_getIntI2CMasterStatus                     src/MPU9150.o
MPU9150_getIntMotionEnabled                       src/MPU9150.o
MPU9150_getIntMotionStatus                        src/MPU9150.o
MPU9150_getIntPLLReadyEnabled                     src/MPU9150.o
MPU9150_getIntPLLReadyStatus                      src/MPU9150.o
MPU9150_getIntStatus                              src/MPU9150.o
MPU9150_getIntZeroMotionEnabled                   src/MPU9150.o
MPU9150_getIntZeroMotionStatus                    src/MPU9150.o
MPU9150_getInterruptDrive                         src/MPU9150.o
MPU9150_getInterruptLatch                         src/MPU9150.o
MPU9150_getInterruptLatchClear                    src/MPU9150.o
MPU9150_getInterruptMode                          src/MPU9150.o
MPU9150_getLostArbitration                        src/MPU9150.o
MPU9150_getMasterClockSpeed                       src/MPU9150.o
MPU9150_getMotion6                                src/MPU9150.o
MPU9150_getMotion9                                src/MPU9150.o
MPU9150_getMotionDetectionCounterDecrement        src/MPU9150.o
MPU9150_getMotionDetectionDuration                src/MPU9150.o
MPU9150_getMotionDetectionThreshold               src/MPU9150.o
MPU9150_getMultiMasterEnabled                     src/MPU9150.o
MPU9150_getOTPBankValid                           src/MPU9150.o
MPU9150_getPassthroughStatus                      src/MPU9150.o
MPU9150_getRate                                   src/MPU9150.o
MPU9150_getRotation                               src/MPU9150.o
MPU9150_getRotationX                              src/MPU9150.o
MPU9150_getRotationY                              src/MPU9150.o
MPU9150_getRotationZ                              src/MPU9150.o
MPU9150_getSlate4InputByte                        src/MPU9150.o
MPU9150_getSlave0FIFOEnabled                      src/MPU9150.o
MPU9150_getSlave0Nack                             src/MPU9150.o
MPU9150_getSlave1FIFOEnabled                      src/MPU9150.o
MPU9150_getSlave1Nack                             src/MPU9150.o
MPU9150_getSlave2FIFOEnabled                      src/MPU9150.o
MPU9150_getSlave2Nack                             src/MPU9150.o
MPU9150_getSlave3FIFOEnabled                      src/MPU9150.o
MPU9150_getSlave3Nack                             src/MPU9150.o
MPU9150_getSlave4Address                          src/MPU9150.o
MPU9150_getSlave4Enabled                          src/MPU9150.o
MPU9150_getSlave4InterruptEnabled                 src/MPU9150.o
MPU9150_getSlave4IsDone                           src/MPU9150.o
MPU9150_getSlave4MasterDelay                      src/MPU9150.o
MPU9150_getSlave4Nack                             src/MPU9150.o
MPU9150_getSlave4Register                         src/MPU9150.o
MPU9150_getSlave4WriteMode                        src/MPU9150.o
MPU9150_getSlaveAddress                           src/MPU9150.o
MPU9150_getSlaveDataLength                        src/MPU9150.o
MPU9150_getSlaveDelayEnabled                      src/MPU9150.o
MPU9150_getSlaveEnabled                           src/MPU9150.o
MPU9150_getSlaveReadWriteTransitionEnabled        src/MPU9150.o
MPU9150_getSlaveRegister                          src/MPU9150.o
MPU9150_getSlaveWordByteSwap                      src/MPU9150.o
MPU9150_getSlaveWordGroupOffset                   src/MPU9150.o
MPU9150_getSlaveWriteMode                         src/MPU9150.o
MPU9150_getSleepEnabled                           src/MPU9150.o
MPU9150_getStandbyXAccelEnabled                   src/MPU9150.o
MPU9150_getStandbyXGyroEnabled                    src/MPU9150.o
MPU9150_getStandbyYAccelEnabled                   src/MPU9150.o
MPU9150_getStandbyYGyroEnabled                    src/MPU9150.o
MPU9150_getStandbyZAccelEnabled                   src/MPU9150.o
MPU9150_getStandbyZGyroEnabled                    src/MPU9150.o
MPU9150_getTempFIFOEnabled                        src/MPU9150.o
MPU9150_getTempSensorEnabled                      src/MPU9150.o
MPU9150_getTemperature                            src/MPU9150.o
MPU9150_getWaitForExternalSensorEnabled           src/MPU9150.o
MPU9150_getWakeCycleEnabled                       src/MPU9150.o
MPU9150_getWakeFrequency                          src/MPU9150.o
MPU9150_getXAccelOffset                           src/MPU9150.o
MPU9150_getXFineGain                              src/MPU9150.o
MPU9150_getXGyroFIFOEnabled                       src/MPU9150.o
MPU9150_getXGyroOffset                            src/MPU9150.o
MPU9150_getXGyroOffsetUser                        src/MPU9150.o
MPU9150_getXNegMotionDetected                     src/MPU9150.o
MPU9150_getXPosMotionDetected                     src/MPU9150.o
MPU9150_getYAccelOffset                           src/MPU9150.o
MPU9150_getYFineGain                              src/MPU9150.o
MPU9150_getYGyroFIFOEnabled                       src/MPU9150.o
MPU9150_getYGyroOffset                            src/MPU9150.o
MPU9150_getYGyroOffsetUser                        src/MPU9150.o
MPU9150_getYNegMotionDetected                     src/MPU9150.o
MPU9150_getYPosMotionDetected                     src/MPU9150.o
MPU9150_getZAccelOffset                           src/MPU9150.o
MPU9150_getZFineGain                              src/MPU9150.o
MPU9150_getZGyroFIFOEnabled                       src/MPU9150.o
MPU9150_getZGyroOffset                            src/MPU9150.o
MPU9150_getZGyroOffsetUser                        src/MPU9150.o
MPU9150_getZNegMotionDetected                     src/MPU9150.o
MPU9150_getZPosMotionDetected                     src/MPU9150.o
MPU9150_getZeroMotionDetected                     src/MPU9150.o
MPU9150_getZeroMotionDetectionDuration            src/MPU9150.o
MPU9150_getZeroMotionDetectionThreshold           src/MPU9150.o
MPU9150_initialize                                src/MPU9150.o
MPU9150_readMemoryByte                            src/MPU9150.o
MPU9150_reset                                     src/MPU9150.o
MPU9150_resetAccelerometerPath                    src/MPU9150.o
MPU9150_resetDMP                                  src/MPU9150.o
MPU9150_resetFIFO                                 src/MPU9150.o
MPU9150_resetGyroscopePath                        src/MPU9150.o
MPU9150_resetI2CMaster                            src/MPU9150.o
MPU9150_resetSensors                              src/MPU9150.o
MPU9150_resetTemperaturePath                      src/MPU9150.o
MPU9150_setAccelFIFOEnabled                       src/MPU9150.o
MPU9150_setAccelXSelfTest                         src/MPU9150.o
MPU9150_setAccelYSelfTest                         src/MPU9150.o
MPU9150_setAccelZSelfTest                         src/MPU9150.o
MPU9150_setAccelerometerPowerOnDelay              src/MPU9150.o
MPU9150_setAuxVDDIOLevel                          src/MPU9150.o
MPU9150_setClockOutputEnabled                     src/MPU9150.o
MPU9150_setClockSource                            src/MPU9150.o
MPU9150_setDHPFMode                               src/MPU9150.o
MPU9150_setDLPFMode                               src/MPU9150.o
MPU9150_setDMPConfig1                             src/MPU9150.o
MPU9150_setDMPConfig2                             src/MPU9150.o
MPU9150_setDMPEnabled                             src/MPU9150.o
MPU9150_setDeviceID                               src/MPU9150.o
MPU9150_setExternalFrameSync                      src/MPU9150.o
MPU9150_setExternalShadowDelayEnabled             src/MPU9150.o
MPU9150_setFIFOByte                               src/MPU9150.o
MPU9150_setFIFOEnabled                            src/MPU9150.o
MPU9150_setFSyncInterruptEnabled                  src/MPU9150.o
MPU9150_setFSyncInterruptLevel                    src/MPU9150.o
MPU9150_setFreefallDetectionCounterDecrement      src/MPU9150.o
MPU9150_setFreefallDetectionDuration              src/MPU9150.o
MPU9150_setFreefallDetectionThreshold             src/MPU9150.o
MPU9150_setFullScaleAccelRange                    src/MPU9150.o
MPU9150_setFullScaleGyroRange                     src/MPU9150.o
MPU9150_setI2CBypassEnabled                       src/MPU9150.o
MPU9150_setI2CMasterModeEnabled                   src/MPU9150.o
MPU9150_setIntDMPEnabled                          src/MPU9150.o
MPU9150_setIntDataReadyEnabled                    src/MPU9150.o
MPU9150_setIntEnabled                             src/MPU9150.o
MPU9150_setIntFIFOMPU9150_bufferOverflowEnabled   src/MPU9150.o
MPU9150_setIntFreefallEnabled                     src/MPU9150.o
MPU9150_setIntI2CMasterEnabled                    src/MPU9150.o
MPU9150_setIntMotionEnabled                       src/MPU9150.o
MPU9150_setIntPLLReadyEnabled                     src/MPU9150.o
MPU9150_setIntZeroMotionEnabled                   src/MPU9150.o
MPU9150_setInterruptDrive                         src/MPU9150.o
MPU9150_setInterruptLatch                         src/MPU9150.o
MPU9150_setInterruptLatchClear                    src/MPU9150.o
MPU9150_setInterruptMode                          src/MPU9150.o
MPU9150_setMasterClockSpeed                       src/MPU9150.o
MPU9150_setMemoryBank                             src/MPU9150.o
MPU9150_setMemoryStartAddress                     src/MPU9150.o
MPU9150_setMotionDetectionCounterDecrement        src/MPU9150.o
MPU9150_setMotionDetectionDuration                src/MPU9150.o
MPU9150_setMotionDetectionThreshold               src/MPU9150.o
MPU9150_setMultiMasterEnabled                     src/MPU9150.o
MPU9150_setOTPBankValid                           src/MPU9150.o
MPU9150_setRate                                   src/MPU9150.o
MPU9150_setSlave0FIFOEnabled                      src/MPU9150.o
MPU9150_setSlave1FIFOEnabled                      src/MPU9150.o
MPU9150_setSlave2FIFOEnabled                      src/MPU9150.o
MPU9150_setSlave3FIFOEnabled                      src/MPU9150.o
MPU9150_setSlave4Address                          src/MPU9150.o
MPU9150_setSlave4Enabled                          src/MPU9150.o
MPU9150_setSlave4InterruptEnabled                 src/MPU9150.o
MPU9150_setSlave4MasterDelay                      src/MPU9150.o
MPU9150_setSlave4OutputByte                       src/MPU9150.o
MPU9150_setSlave4Register                         src/MPU9150.o
MPU9150_setSlave4WriteMode                        src/MPU9150.o
MPU9150_setSlaveAddress                           src/MPU9150.o
MPU9150_setSlaveDataLength                        src/MPU9150.o
MPU9150_setSlaveDelayEnabled                      src/MPU9150.o
MPU9150_setSlaveEnabled                           src/MPU9150.o
MPU9150_setSlaveOutputByte                        src/MPU9150.o
MPU9150_setSlaveReadWriteTransitionEnabled        src/MPU9150.o
MPU9150_setSlaveRegister                          src/MPU9150.o
MPU9150_setSlaveWordByteSwap                      src/MPU9150.o
MPU9150_setSlaveWordGroupOffset                   src/MPU9150.o
MPU9150_setSlaveWriteMode                         src/MPU9150.o
MPU9150_setSleepEnabled                           src/MPU9150.o
MPU9150_setStandbyXAccelEnabled                   src/MPU9150.o
MPU9150_setStandbyXGyroEnabled                    src/MPU9150.o
MPU9150_setStandbyYAccelEnabled                   src/MPU9150.o
MPU9150_setStandbyYGyroEnabled                    src/MPU9150.o
MPU9150_setStandbyZAccelEnabled                   src/MPU9150.o
MPU9150_setStandbyZGyroEnabled                    src/MPU9150.o
MPU9150_setTempFIFOEnabled                        src/MPU9150.o
MPU9150_setTempSensorEnabled                      src/MPU9150.o
MPU9150_setWaitForExternalSensorEnabled           src/MPU9150.o
MPU9150_setWakeCycleEnabled                       src/MPU9150.o
MPU9150_setWakeFrequency                          src/MPU9150.o
MPU9150_setXAccelOffset                           src/MPU9150.o
MPU9150_setXFineGain                              src/MPU9150.o
MPU9150_setXGyroFIFOEnabled                       src/MPU9150.o
MPU9150_setXGyroOffset                            src/MPU9150.o
MPU9150_setXGyroOffsetUser                        src/MPU9150.o
MPU9150_setYAccelOffset                           src/MPU9150.o
MPU9150_setYFineGain                              src/MPU9150.o
MPU9150_setYGyroFIFOEnabled                       src/MPU9150.o
MPU9150_setYGyroOffset                            src/MPU9150.o
MPU9150_setYGyroOffsetUser                        src/MPU9150.o
MPU9150_setZAccelOffset                           src/MPU9150.o
MPU9150_setZFineGain                              src/MPU9150.o
MPU9150_setZGyroFIFOEnabled                       src/MPU9150.o
MPU9150_setZGyroOffset                            src/MPU9150.o
MPU9150_setZGyroOffsetUser                        src/MPU9150.o
MPU9150_setZeroMotionDetectionDuration            src/MPU9150.o
MPU9150_setZeroMotionDetectionThreshold           src/MPU9150.o
MPU9150_switchSPIEnabled                          src/MPU9150.o
MPU9150_testConnection                            src/MPU9150.o
MPU9150_writeMemoryByte                           src/MPU9150.o
MemManage_Handler                                 src/asf/sam/utils/cmsis/sam3s8/source/templates/exceptions.o
                                                  src/asf/sam/utils/cmsis/sam3s8/source/templates/gcc/startup_sam3sd8.o
NMI_Handler                                       src/asf/sam/utils/cmsis/sam3s8/source/templates/exceptions.o
                                                  src/asf/sam/utils/cmsis/sam3s8/source/templates/gcc/startup_sam3sd8.o
PIOA_Handler                                      src/asf/sam/drivers/pio/pio_handler.o
                                                  src/asf/sam/utils/cmsis/sam3s8/source/templates/exceptions.o
                                                  src/asf/sam/utils/cmsis/sam3s8/source/templates/gcc/startup_sam3sd8.o
PIOB_Handler                                      src/asf/sam/drivers/pio/pio_handler.o
                                                  src/asf/sam/utils/cmsis/sam3s8/source/templates/exceptions.o
                                                  src/asf/sam/utils/cmsis/sam3s8/source/templates/gcc/startup_sam3sd8.o
PMC_Handler                                       src/asf/sam/utils/cmsis/sam3s8/source/templates/exceptions.o
                                                  src/asf/sam/utils/cmsis/sam3s8/source/templates/gcc/startup_sam3sd8.o
PWM_Handler                                       src/pwmb.o
                                                  src/asf/sam/utils/cmsis/sam3s8/source/templates/exceptions.o
                                                  src/asf/sam/utils/cmsis/sam3s8/source/templates/gcc/startup_sam3sd8.o
PWM_init                                          src/pwmb.o
                                                  src/stdio_usb_example.o
PendSV_Handler                                    src/asf/sam/utils/cmsis/sam3s8/source/templates/exceptions.o
                                                  src/asf/sam/utils/cmsis/sam3s8/source/templates/gcc/startup_sam3sd8.o
RSTC_Handler                                      src/asf/sam/utils/cmsis/sam3s8/source/templates/exceptions.o
                                                  src/asf/sam/utils/cmsis/sam3s8/source/templates/gcc/startup_sam3sd8.o
RTC_Handler                                       src/rtc.o
                                                  src/asf/sam/utils/cmsis/sam3s8/source/templates/exceptions.o
                                                  src/asf/sam/utils/cmsis/sam3s8/source/templates/gcc/startup_sam3sd8.o
RTT_Handler                                       src/asf/sam/utils/cmsis/sam3s8/source/templates/exceptions.o
                                                  src/asf/sam/utils/cmsis/sam3s8/source/templates/gcc/startup_sam3sd8.o
Reset_Handler                                     src/asf/sam/utils/cmsis/sam3s8/source/templates/gcc/startup_sam3sd8.o
                                                  src/asf/sam/utils/cmsis/sam3s8/source/templates/exceptions.o
SPI_Handler                                       src/asf/sam/utils/cmsis/sam3s8/source/templates/exceptions.o
                                                  src/asf/sam/utils/cmsis/sam3s8/source/templates/gcc/startup_sam3sd8.o
SSC_Handler                                       src/asf/sam/utils/cmsis/sam3s8/source/templates/exceptions.o
                                                  src/asf/sam/utils/cmsis/sam3s8/source/templates/gcc/startup_sam3sd8.o
SUPC_Handler                                      src/asf/sam/utils/cmsis/sam3s8/source/templates/exceptions.o
                                                  src/asf/sam/utils/cmsis/sam3s8/source/templates/gcc/startup_sam3sd8.o
SVC_Handler                                       src/asf/sam/utils/cmsis/sam3s8/source/templates/exceptions.o
                                                  src/asf/sam/utils/cmsis/sam3s8/source/templates/gcc/startup_sam3sd8.o
Script                                            src/zeppelin_fc.o
SysTick_Handler                                   src/zeppelin_fc.o
                                                  src/asf/sam/utils/cmsis/sam3s8/source/templates/exceptions.o
                                                  src/asf/sam/utils/cmsis/sam3s8/source/templates/gcc/startup_sam3sd8.o
SystemCoreClock                                   src/asf/sam/utils/cmsis/sam3s8/source/templates/system_sam3sd8.o
SystemCoreClockUpdate                             src/asf/sam/utils/cmsis/sam3s8/source/templates/system_sam3sd8.o
                                                  src/asf/common/services/clock/sam3s/sysclk.o
SystemInit                                        src/asf/sam/utils/cmsis/sam3s8/source/templates/system_sam3sd8.o
TC0_Handler                                       src/asf/sam/utils/cmsis/sam3s8/source/templates/exceptions.o
                                                  src/asf/sam/utils/cmsis/sam3s8/source/templates/gcc/startup_sam3sd8.o
TC1_Handler                                       src/asf/sam/utils/cmsis/sam3s8/source/templates/exceptions.o
                                                  src/asf/sam/utils/cmsis/sam3s8/source/templates/gcc/startup_sam3sd8.o
TC2_Handler                                       src/asf/sam/utils/cmsis/sam3s8/source/templates/exceptions.o
                                                  src/asf/sam/utils/cmsis/sam3s8/source/templates/gcc/startup_sam3sd8.o
TWI0_Handler                                      src/asf/sam/utils/cmsis/sam3s8/source/templates/exceptions.o
                                                  src/asf/sam/utils/cmsis/sam3s8/source/templates/gcc/startup_sam3sd8.o
TWI1_Handler                                      src/asf/sam/utils/cmsis/sam3s8/source/templates/exceptions.o
                                                  src/asf/sam/utils/cmsis/sam3s8/source/templates/gcc/startup_sam3sd8.o
UART0_Handler                                     src/asf/sam/utils/cmsis/sam3s8/source/templates/exceptions.o
                                                  src/asf/sam/utils/cmsis/sam3s8/source/templates/gcc/startup_sam3sd8.o
UART1_Handler                                     src/asf/sam/utils/cmsis/sam3s8/source/templates/exceptions.o
                                                  src/asf/sam/utils/cmsis/sam3s8/source/templates/gcc/startup_sam3sd8.o
UDP_Handler                                       src/asf/sam/drivers/udp/udp_device.o
                                                  src/asf/sam/utils/cmsis/sam3s8/source/templates/exceptions.o
                                                  src/asf/sam/utils/cmsis/sam3s8/source/templates/gcc/startup_sam3sd8.o
USART0_Handler                                    src/asf/sam/utils/cmsis/sam3s8/source/templates/exceptions.o
                                                  src/asf/sam/utils/cmsis/sam3s8/source/templates/gcc/startup_sam3sd8.o
USART1_Handler                                    src/asf/sam/utils/cmsis/sam3s8/source/templates/exceptions.o
                                                  src/asf/sam/utils/cmsis/sam3s8/source/templates/gcc/startup_sam3sd8.o
UsageFault_Handler                                src/asf/sam/utils/cmsis/sam3s8/source/templates/exceptions.o
                                                  src/asf/sam/utils/cmsis/sam3s8/source/templates/gcc/startup_sam3sd8.o
WDT_Handler                                       src/asf/sam/utils/cmsis/sam3s8/source/templates/exceptions.o
                                                  src/asf/sam/utils/cmsis/sam3s8/source/templates/gcc/startup_sam3sd8.o
ZP_Button                                         src/zeppelin_fc.o
ZP_ButtonHandler                                  src/zeppelin_fc.o
ZP_CreateLogFile                                  src/zeppelin_fc.o
                                                  src/stdio_usb_example.o
ZP_Init                                           src/zeppelin_fc.o
                                                  src/stdio_usb_example.o
ZP_Loop                                           src/zeppelin_fc.o
                                                  src/stdio_usb_example.o
ZP_Scan_Scripts                                   src/zeppelin_fc.o
_ITM_deregisterTMCloneTable                       c:/program files (x86)/atmel/atmel studio 6.0/extensions/atmel/armgcc/3.3.1.128/armgcctoolchain/bin/../lib/gcc/arm-none-eabi/4.7.0/thumb/crtbegin.o
_ITM_registerTMCloneTable                         c:/program files (x86)/atmel/atmel studio 6.0/extensions/atmel/armgcc/3.3.1.128/armgcctoolchain/bin/../lib/gcc/arm-none-eabi/4.7.0/thumb/crtbegin.o
_Jv_RegisterClasses                               c:/program files (x86)/atmel/atmel studio 6.0/extensions/atmel/armgcc/3.3.1.128/armgcctoolchain/bin/../lib/gcc/arm-none-eabi/4.7.0/thumb/crtbegin.o
_PathLocale                                       c:/program files (x86)/atmel/atmel studio 6.0/extensions/atmel/armgcc/3.3.1.128/armgcctoolchain/bin/../lib/gcc/arm-none-eabi/4.7.0/../../../../arm-none-eabi/lib/thumb\libc.a(lib_a-locale.o)
_Unwind_Backtrace                                 c:/program files (x86)/atmel/atmel studio 6.0/extensions/atmel/armgcc/3.3.1.128/armgcctoolchain/bin/../lib/gcc/arm-none-eabi/4.7.0/thumb\libgcc.a(libunwind.o)
_Unwind_Complete                                  c:/program files (x86)/atmel/atmel studio 6.0/extensions/atmel/armgcc/3.3.1.128/armgcctoolchain/bin/../lib/gcc/arm-none-eabi/4.7.0/thumb\libgcc.a(unwind-arm.o)
_Unwind_DeleteException                           c:/program files (x86)/atmel/atmel studio 6.0/extensions/atmel/armgcc/3.3.1.128/armgcctoolchain/bin/../lib/gcc/arm-none-eabi/4.7.0/thumb\libgcc.a(unwind-arm.o)
_Unwind_ForcedUnwind                              c:/program files (x86)/atmel/atmel studio 6.0/extensions/atmel/armgcc/3.3.1.128/armgcctoolchain/bin/../lib/gcc/arm-none-eabi/4.7.0/thumb\libgcc.a(libunwind.o)
_Unwind_GetCFA                                    c:/program files (x86)/atmel/atmel studio 6.0/extensions/atmel/armgcc/3.3.1.128/armgcctoolchain/bin/../lib/gcc/arm-none-eabi/4.7.0/thumb\libgcc.a(unwind-arm.o)
_Unwind_GetDataRelBase                            c:/program files (x86)/atmel/atmel studio 6.0/extensions/atmel/armgcc/3.3.1.128/armgcctoolchain/bin/../lib/gcc/arm-none-eabi/4.7.0/thumb\libgcc.a(pr-support.o)
_Unwind_GetLanguageSpecificData                   c:/program files (x86)/atmel/atmel studio 6.0/extensions/atmel/armgcc/3.3.1.128/armgcctoolchain/bin/../lib/gcc/arm-none-eabi/4.7.0/thumb\libgcc.a(pr-support.o)
_Unwind_GetRegionStart                            c:/program files (x86)/atmel/atmel studio 6.0/extensions/atmel/armgcc/3.3.1.128/armgcctoolchain/bin/../lib/gcc/arm-none-eabi/4.7.0/thumb\libgcc.a(pr-support.o)
_Unwind_GetTextRelBase                            c:/program files (x86)/atmel/atmel studio 6.0/extensions/atmel/armgcc/3.3.1.128/armgcctoolchain/bin/../lib/gcc/arm-none-eabi/4.7.0/thumb\libgcc.a(pr-support.o)
_Unwind_RaiseException                            c:/program files (x86)/atmel/atmel studio 6.0/extensions/atmel/armgcc/3.3.1.128/armgcctoolchain/bin/../lib/gcc/arm-none-eabi/4.7.0/thumb\libgcc.a(libunwind.o)
_Unwind_Resume                                    c:/program files (x86)/atmel/atmel studio 6.0/extensions/atmel/armgcc/3.3.1.128/armgcctoolchain/bin/../lib/gcc/arm-none-eabi/4.7.0/thumb\libgcc.a(libunwind.o)
_Unwind_Resume_or_Rethrow                         c:/program files (x86)/atmel/atmel studio 6.0/extensions/atmel/armgcc/3.3.1.128/armgcctoolchain/bin/../lib/gcc/arm-none-eabi/4.7.0/thumb\libgcc.a(libunwind.o)
_Unwind_VRS_Get                                   c:/program files (x86)/atmel/atmel studio 6.0/extensions/atmel/armgcc/3.3.1.128/armgcctoolchain/bin/../lib/gcc/arm-none-eabi/4.7.0/thumb\libgcc.a(unwind-arm.o)
                                                  c:/program files (x86)/atmel/atmel studio 6.0/extensions/atmel/armgcc/3.3.1.128/armgcctoolchain/bin/../lib/gcc/arm-none-eabi/4.7.0/thumb\libgcc.a(pr-support.o)
_Unwind_VRS_Pop                                   c:/program files (x86)/atmel/atmel studio 6.0/extensions/atmel/armgcc/3.3.1.128/armgcctoolchain/bin/../lib/gcc/arm-none-eabi/4.7.0/thumb\libgcc.a(unwind-arm.o)
                                                  c:/program files (x86)/atmel/atmel studio 6.0/extensions/atmel/armgcc/3.3.1.128/armgcctoolchain/bin/../lib/gcc/arm-none-eabi/4.7.0/thumb\libgcc.a(pr-support.o)
_Unwind_VRS_Set                                   c:/program files (x86)/atmel/atmel studio 6.0/extensions/atmel/armgcc/3.3.1.128/armgcctoolchain/bin/../lib/gcc/arm-none-eabi/4.7.0/thumb\libgcc.a(unwind-arm.o)
                                                  c:/program files (x86)/atmel/atmel studio 6.0/extensions/atmel/armgcc/3.3.1.128/armgcctoolchain/bin/../lib/gcc/arm-none-eabi/4.7.0/thumb\libgcc.a(pr-support.o)
__TMC_END__                                       c:/program files (x86)/atmel/atmel studio 6.0/extensions/atmel/armgcc/3.3.1.128/armgcctoolchain/bin/../lib/gcc/arm-none-eabi/4.7.0/thumb/crtend.o
                                                  c:/program files (x86)/atmel/atmel studio 6.0/extensions/atmel/armgcc/3.3.1.128/armgcctoolchain/bin/../lib/gcc/arm-none-eabi/4.7.0/thumb/crtbegin.o
___Unwind_Backtrace                               c:/program files (x86)/atmel/atmel studio 6.0/extensions/atmel/armgcc/3.3.1.128/armgcctoolchain/bin/../lib/gcc/arm-none-eabi/4.7.0/thumb\libgcc.a(libunwind.o)
___Unwind_ForcedUnwind                            c:/program files (x86)/atmel/atmel studio 6.0/extensions/atmel/armgcc/3.3.1.128/armgcctoolchain/bin/../lib/gcc/arm-none-eabi/4.7.0/thumb\libgcc.a(libunwind.o)
___Unwind_RaiseException                          c:/program files (x86)/atmel/atmel studio 6.0/extensions/atmel/armgcc/3.3.1.128/armgcctoolchain/bin/../lib/gcc/arm-none-eabi/4.7.0/thumb\libgcc.a(libunwind.o)
___Unwind_Resume                                  c:/program files (x86)/atmel/atmel studio 6.0/extensions/atmel/armgcc/3.3.1.128/armgcctoolchain/bin/../lib/gcc/arm-none-eabi/4.7.0/thumb\libgcc.a(libunwind.o)
___Unwind_Resume_or_Rethrow                       c:/program files (x86)/atmel/atmel studio 6.0/extensions/atmel/armgcc/3.3.1.128/armgcctoolchain/bin/../lib/gcc/arm-none-eabi/4.7.0/thumb\libgcc.a(libunwind.o)
__aeabi_idiv0                                     c:/program files (x86)/atmel/atmel studio 6.0/extensions/atmel/armgcc/3.3.1.128/armgcctoolchain/bin/../lib/gcc/arm-none-eabi/4.7.0/thumb\libgcc.a(_dvmd_tls.o)
__aeabi_ldiv0                                     c:/program files (x86)/atmel/atmel studio 6.0/extensions/atmel/armgcc/3.3.1.128/armgcctoolchain/bin/../lib/gcc/arm-none-eabi/4.7.0/thumb\libgcc.a(_dvmd_tls.o)
                                                  c:/program files (x86)/atmel/atmel studio 6.0/extensions/atmel/armgcc/3.3.1.128/armgcctoolchain/bin/../lib/gcc/arm-none-eabi/4.7.0/thumb\libgcc.a(_aeabi_uldivmod.o)
__aeabi_uldivmod                                  c:/program files (x86)/atmel/atmel studio 6.0/extensions/atmel/armgcc/3.3.1.128/armgcctoolchain/bin/../lib/gcc/arm-none-eabi/4.7.0/thumb\libgcc.a(_aeabi_uldivmod.o)
                                                  c:/program files (x86)/atmel/atmel studio 6.0/extensions/atmel/armgcc/3.3.1.128/armgcctoolchain/bin/../lib/gcc/arm-none-eabi/4.7.0/../../../../arm-none-eabi/lib/thumb\libc.a(lib_a-svfiprintf.o)
                                                  c:/program files (x86)/atmel/atmel studio 6.0/extensions/atmel/armgcc/3.3.1.128/armgcctoolchain/bin/../lib/gcc/arm-none-eabi/4.7.0/../../../../arm-none-eabi/lib/thumb\libc.a(lib_a-vfprintf.o)
                                                  c:/program files (x86)/atmel/atmel studio 6.0/extensions/atmel/armgcc/3.3.1.128/armgcctoolchain/bin/../lib/gcc/arm-none-eabi/4.7.0/../../../../arm-none-eabi/lib/thumb\libc.a(lib_a-vfiprintf.o)
                                                  c:/program files (x86)/atmel/atmel studio 6.0/extensions/atmel/armgcc/3.3.1.128/armgcctoolchain/bin/../lib/gcc/arm-none-eabi/4.7.0/../../../../arm-none-eabi/lib/thumb\libc.a(lib_a-svfprintf.o)
__aeabi_unwind_cpp_pr0                            c:/program files (x86)/atmel/atmel studio 6.0/extensions/atmel/armgcc/3.3.1.128/armgcctoolchain/bin/../lib/gcc/arm-none-eabi/4.7.0/thumb\libgcc.a(unwind-arm.o)
                                                  c:/program files (x86)/atmel/atmel studio 6.0/extensions/atmel/armgcc/3.3.1.128/armgcctoolchain/bin/../lib/gcc/arm-none-eabi/4.7.0/thumb\libgcc.a(pr-support.o)
                                                  c:/program files (x86)/atmel/atmel studio 6.0/extensions/atmel/armgcc/3.3.1.128/armgcctoolchain/bin/../lib/gcc/arm-none-eabi/4.7.0/thumb\libgcc.a(_udivdi3.o)
                                                  c:/program files (x86)/atmel/atmel studio 6.0/extensions/atmel/armgcc/3.3.1.128/armgcctoolchain/bin/../lib/gcc/arm-none-eabi/4.7.0/thumb\libgcc.a(_divdi3.o)
__aeabi_unwind_cpp_pr1                            c:/program files (x86)/atmel/atmel studio 6.0/extensions/atmel/armgcc/3.3.1.128/armgcctoolchain/bin/../lib/gcc/arm-none-eabi/4.7.0/thumb\libgcc.a(unwind-arm.o)
                                                  c:/program files (x86)/atmel/atmel studio 6.0/extensions/atmel/armgcc/3.3.1.128/armgcctoolchain/bin/../lib/gcc/arm-none-eabi/4.7.0/thumb\libgcc.a(pr-support.o)
__aeabi_unwind_cpp_pr2                            c:/program files (x86)/atmel/atmel studio 6.0/extensions/atmel/armgcc/3.3.1.128/armgcctoolchain/bin/../lib/gcc/arm-none-eabi/4.7.0/thumb\libgcc.a(unwind-arm.o)
__ascii_wctomb                                    c:/program files (x86)/atmel/atmel studio 6.0/extensions/atmel/armgcc/3.3.1.128/armgcctoolchain/bin/../lib/gcc/arm-none-eabi/4.7.0/../../../../arm-none-eabi/lib/thumb\libc.a(lib_a-wctomb_r.o)
__assert                                          c:/program files (x86)/atmel/atmel studio 6.0/extensions/atmel/armgcc/3.3.1.128/armgcctoolchain/bin/../lib/gcc/arm-none-eabi/4.7.0/../../../../arm-none-eabi/lib/thumb\libc.a(lib_a-assert.o)
__assert_func                                     c:/program files (x86)/atmel/atmel studio 6.0/extensions/atmel/armgcc/3.3.1.128/armgcctoolchain/bin/../lib/gcc/arm-none-eabi/4.7.0/../../../../arm-none-eabi/lib/thumb\libc.a(lib_a-assert.o)
                                                  src/asf/sam/services/flash_efc/flash_efc.o
__bss_end__                                       c:/program files (x86)/atmel/atmel studio 6.0/extensions/atmel/armgcc/3.3.1.128/armgcctoolchain/bin/../lib/gcc/arm-none-eabi/4.7.0/../../../../arm-none-eabi/lib/thumb/crt0.o
__bss_start__                                     c:/program files (x86)/atmel/atmel studio 6.0/extensions/atmel/armgcc/3.3.1.128/armgcctoolchain/bin/../lib/gcc/arm-none-eabi/4.7.0/../../../../arm-none-eabi/lib/thumb/crt0.o
__call_exitprocs                                  c:/program files (x86)/atmel/atmel studio 6.0/extensions/atmel/armgcc/3.3.1.128/armgcctoolchain/bin/../lib/gcc/arm-none-eabi/4.7.0/../../../../arm-none-eabi/lib/thumb\libc.a(lib_a-__call_atexit.o)
                                                  c:/program files (x86)/atmel/atmel studio 6.0/extensions/atmel/armgcc/3.3.1.128/armgcctoolchain/bin/../lib/gcc/arm-none-eabi/4.7.0/../../../../arm-none-eabi/lib/thumb\libc.a(lib_a-exit.o)
__cxa_begin_cleanup                               c:/program files (x86)/atmel/atmel studio 6.0/extensions/atmel/armgcc/3.3.1.128/armgcctoolchain/bin/../lib/gcc/arm-none-eabi/4.7.0/thumb\libgcc.a(unwind-arm.o)
__cxa_call_unexpected                             c:/program files (x86)/atmel/atmel studio 6.0/extensions/atmel/armgcc/3.3.1.128/armgcctoolchain/bin/../lib/gcc/arm-none-eabi/4.7.0/thumb\libgcc.a(unwind-arm.o)
__cxa_type_match                                  c:/program files (x86)/atmel/atmel studio 6.0/extensions/atmel/armgcc/3.3.1.128/armgcctoolchain/bin/../lib/gcc/arm-none-eabi/4.7.0/thumb\libgcc.a(unwind-arm.o)
__deregister_frame_info                           c:/program files (x86)/atmel/atmel studio 6.0/extensions/atmel/armgcc/3.3.1.128/armgcctoolchain/bin/../lib/gcc/arm-none-eabi/4.7.0/thumb/crtbegin.o
__divdi3                                          c:/program files (x86)/atmel/atmel studio 6.0/extensions/atmel/armgcc/3.3.1.128/armgcctoolchain/bin/../lib/gcc/arm-none-eabi/4.7.0/thumb\libgcc.a(_divdi3.o)
                                                  c:/program files (x86)/atmel/atmel studio 6.0/extensions/atmel/armgcc/3.3.1.128/armgcctoolchain/bin/../lib/gcc/arm-none-eabi/4.7.0/thumb\libgcc.a(bpabi.o)
__dso_handle                                      c:/program files (x86)/atmel/atmel studio 6.0/extensions/atmel/armgcc/3.3.1.128/armgcctoolchain/bin/../lib/gcc/arm-none-eabi/4.7.0/thumb/crtbegin.o
__exidx_end                                       c:/program files (x86)/atmel/atmel studio 6.0/extensions/atmel/armgcc/3.3.1.128/armgcctoolchain/bin/../lib/gcc/arm-none-eabi/4.7.0/thumb\libgcc.a(unwind-arm.o)
__exidx_start                                     c:/program files (x86)/atmel/atmel studio 6.0/extensions/atmel/armgcc/3.3.1.128/armgcctoolchain/bin/../lib/gcc/arm-none-eabi/4.7.0/thumb\libgcc.a(unwind-arm.o)
__fini_array_end                                  c:/program files (x86)/atmel/atmel studio 6.0/extensions/atmel/armgcc/3.3.1.128/armgcctoolchain/bin/../lib/gcc/arm-none-eabi/4.7.0/../../../../arm-none-eabi/lib/thumb\libc.a(lib_a-fini.o)
__fini_array_start                                c:/program files (x86)/atmel/atmel studio 6.0/extensions/atmel/armgcc/3.3.1.128/armgcctoolchain/bin/../lib/gcc/arm-none-eabi/4.7.0/../../../../arm-none-eabi/lib/thumb\libc.a(lib_a-fini.o)
__fp_lock_all                                     c:/program files (x86)/atmel/atmel studio 6.0/extensions/atmel/armgcc/3.3.1.128/armgcctoolchain/bin/../lib/gcc/arm-none-eabi/4.7.0/../../../../arm-none-eabi/lib/thumb\libc.a(lib_a-findfp.o)
__fp_unlock_all                                   c:/program files (x86)/atmel/atmel studio 6.0/extensions/atmel/armgcc/3.3.1.128/armgcctoolchain/bin/../lib/gcc/arm-none-eabi/4.7.0/../../../../arm-none-eabi/lib/thumb\libc.a(lib_a-findfp.o)
__gnu_Unwind_Backtrace                            c:/program files (x86)/atmel/atmel studio 6.0/extensions/atmel/armgcc/3.3.1.128/armgcctoolchain/bin/../lib/gcc/arm-none-eabi/4.7.0/thumb\libgcc.a(unwind-arm.o)
                                                  c:/program files (x86)/atmel/atmel studio 6.0/extensions/atmel/armgcc/3.3.1.128/armgcctoolchain/bin/../lib/gcc/arm-none-eabi/4.7.0/thumb\libgcc.a(libunwind.o)
__gnu_Unwind_Find_exidx                           c:/program files (x86)/atmel/atmel studio 6.0/extensions/atmel/armgcc/3.3.1.128/armgcctoolchain/bin/../lib/gcc/arm-none-eabi/4.7.0/thumb\libgcc.a(unwind-arm.o)
__gnu_Unwind_ForcedUnwind                         c:/program files (x86)/atmel/atmel studio 6.0/extensions/atmel/armgcc/3.3.1.128/armgcctoolchain/bin/../lib/gcc/arm-none-eabi/4.7.0/thumb\libgcc.a(unwind-arm.o)
                                                  c:/program files (x86)/atmel/atmel studio 6.0/extensions/atmel/armgcc/3.3.1.128/armgcctoolchain/bin/../lib/gcc/arm-none-eabi/4.7.0/thumb\libgcc.a(libunwind.o)
__gnu_Unwind_RaiseException                       c:/program files (x86)/atmel/atmel studio 6.0/extensions/atmel/armgcc/3.3.1.128/armgcctoolchain/bin/../lib/gcc/arm-none-eabi/4.7.0/thumb\libgcc.a(unwind-arm.o)
                                                  c:/program files (x86)/atmel/atmel studio 6.0/extensions/atmel/armgcc/3.3.1.128/armgcctoolchain/bin/../lib/gcc/arm-none-eabi/4.7.0/thumb\libgcc.a(libunwind.o)
__gnu_Unwind_Restore_VFP                          c:/program files (x86)/atmel/atmel studio 6.0/extensions/atmel/armgcc/3.3.1.128/armgcctoolchain/bin/../lib/gcc/arm-none-eabi/4.7.0/thumb\libgcc.a(libunwind.o)
                                                  c:/program files (x86)/atmel/atmel studio 6.0/extensions/atmel/armgcc/3.3.1.128/armgcctoolchain/bin/../lib/gcc/arm-none-eabi/4.7.0/thumb\libgcc.a(unwind-arm.o)
__gnu_Unwind_Restore_VFP_D                        c:/program files (x86)/atmel/atmel studio 6.0/extensions/atmel/armgcc/3.3.1.128/armgcctoolchain/bin/../lib/gcc/arm-none-eabi/4.7.0/thumb\libgcc.a(libunwind.o)
                                                  c:/program files (x86)/atmel/atmel studio 6.0/extensions/atmel/armgcc/3.3.1.128/armgcctoolchain/bin/../lib/gcc/arm-none-eabi/4.7.0/thumb\libgcc.a(unwind-arm.o)
__gnu_Unwind_Restore_VFP_D_16_to_31               c:/program files (x86)/atmel/atmel studio 6.0/extensions/atmel/armgcc/3.3.1.128/armgcctoolchain/bin/../lib/gcc/arm-none-eabi/4.7.0/thumb\libgcc.a(libunwind.o)
                                                  c:/program files (x86)/atmel/atmel studio 6.0/extensions/atmel/armgcc/3.3.1.128/armgcctoolchain/bin/../lib/gcc/arm-none-eabi/4.7.0/thumb\libgcc.a(unwind-arm.o)
__gnu_Unwind_Restore_WMMXC                        c:/program files (x86)/atmel/atmel studio 6.0/extensions/atmel/armgcc/3.3.1.128/armgcctoolchain/bin/../lib/gcc/arm-none-eabi/4.7.0/thumb\libgcc.a(libunwind.o)
                                                  c:/program files (x86)/atmel/atmel studio 6.0/extensions/atmel/armgcc/3.3.1.128/armgcctoolchain/bin/../lib/gcc/arm-none-eabi/4.7.0/thumb\libgcc.a(unwind-arm.o)
__gnu_Unwind_Restore_WMMXD                        c:/program files (x86)/atmel/atmel studio 6.0/extensions/atmel/armgcc/3.3.1.128/armgcctoolchain/bin/../lib/gcc/arm-none-eabi/4.7.0/thumb\libgcc.a(libunwind.o)
                                                  c:/program files (x86)/atmel/atmel studio 6.0/extensions/atmel/armgcc/3.3.1.128/armgcctoolchain/bin/../lib/gcc/arm-none-eabi/4.7.0/thumb\libgcc.a(unwind-arm.o)
__gnu_Unwind_Resume                               c:/program files (x86)/atmel/atmel studio 6.0/extensions/atmel/armgcc/3.3.1.128/armgcctoolchain/bin/../lib/gcc/arm-none-eabi/4.7.0/thumb\libgcc.a(unwind-arm.o)
                                                  c:/program files (x86)/atmel/atmel studio 6.0/extensions/atmel/armgcc/3.3.1.128/armgcctoolchain/bin/../lib/gcc/arm-none-eabi/4.7.0/thumb\libgcc.a(libunwind.o)
__gnu_Unwind_Resume_or_Rethrow                    c:/program files (x86)/atmel/atmel studio 6.0/extensions/atmel/armgcc/3.3.1.128/armgcctoolchain/bin/../lib/gcc/arm-none-eabi/4.7.0/thumb\libgcc.a(unwind-arm.o)
                                                  c:/program files (x86)/atmel/atmel studio 6.0/extensions/atmel/armgcc/3.3.1.128/armgcctoolchain/bin/../lib/gcc/arm-none-eabi/4.7.0/thumb\libgcc.a(libunwind.o)
__gnu_Unwind_Save_VFP                             c:/program files (x86)/atmel/atmel studio 6.0/extensions/atmel/armgcc/3.3.1.128/armgcctoolchain/bin/../lib/gcc/arm-none-eabi/4.7.0/thumb\libgcc.a(libunwind.o)
                                                  c:/program files (x86)/atmel/atmel studio 6.0/extensions/atmel/armgcc/3.3.1.128/armgcctoolchain/bin/../lib/gcc/arm-none-eabi/4.7.0/thumb\libgcc.a(unwind-arm.o)
__gnu_Unwind_Save_VFP_D                           c:/program files (x86)/atmel/atmel studio 6.0/extensions/atmel/armgcc/3.3.1.128/armgcctoolchain/bin/../lib/gcc/arm-none-eabi/4.7.0/thumb\libgcc.a(libunwind.o)
                                                  c:/program files (x86)/atmel/atmel studio 6.0/extensions/atmel/armgcc/3.3.1.128/armgcctoolchain/bin/../lib/gcc/arm-none-eabi/4.7.0/thumb\libgcc.a(unwind-arm.o)
__gnu_Unwind_Save_VFP_D_16_to_31                  c:/program files (x86)/atmel/atmel studio 6.0/extensions/atmel/armgcc/3.3.1.128/armgcctoolchain/bin/../lib/gcc/arm-none-eabi/4.7.0/thumb\libgcc.a(libunwind.o)
                                                  c:/program files (x86)/atmel/atmel studio 6.0/extensions/atmel/armgcc/3.3.1.128/armgcctoolchain/bin/../lib/gcc/arm-none-eabi/4.7.0/thumb\libgcc.a(unwind-arm.o)
__gnu_Unwind_Save_WMMXC                           c:/program files (x86)/atmel/atmel studio 6.0/extensions/atmel/armgcc/3.3.1.128/armgcctoolchain/bin/../lib/gcc/arm-none-eabi/4.7.0/thumb\libgcc.a(libunwind.o)
                                                  c:/program files (x86)/atmel/atmel studio 6.0/extensions/atmel/armgcc/3.3.1.128/armgcctoolchain/bin/../lib/gcc/arm-none-eabi/4.7.0/thumb\libgcc.a(unwind-arm.o)
__gnu_Unwind_Save_WMMXD                           c:/program files (x86)/atmel/atmel studio 6.0/extensions/atmel/armgcc/3.3.1.128/armgcctoolchain/bin/../lib/gcc/arm-none-eabi/4.7.0/thumb\libgcc.a(libunwind.o)
                                                  c:/program files (x86)/atmel/atmel studio 6.0/extensions/atmel/armgcc/3.3.1.128/armgcctoolchain/bin/../lib/gcc/arm-none-eabi/4.7.0/thumb\libgcc.a(unwind-arm.o)
__gnu_ldivmod_helper                              c:/program files (x86)/atmel/atmel studio 6.0/extensions/atmel/armgcc/3.3.1.128/armgcctoolchain/bin/../lib/gcc/arm-none-eabi/4.7.0/thumb\libgcc.a(bpabi.o)
__gnu_uldivmod_helper                             c:/program files (x86)/atmel/atmel studio 6.0/extensions/atmel/armgcc/3.3.1.128/armgcctoolchain/bin/../lib/gcc/arm-none-eabi/4.7.0/thumb\libgcc.a(bpabi.o)
                                                  c:/program files (x86)/atmel/atmel studio 6.0/extensions/atmel/armgcc/3.3.1.128/armgcctoolchain/bin/../lib/gcc/arm-none-eabi/4.7.0/thumb\libgcc.a(_aeabi_uldivmod.o)
__gnu_unwind_execute                              c:/program files (x86)/atmel/atmel studio 6.0/extensions/atmel/armgcc/3.3.1.128/armgcctoolchain/bin/../lib/gcc/arm-none-eabi/4.7.0/thumb\libgcc.a(pr-support.o)
                                                  c:/program files (x86)/atmel/atmel studio 6.0/extensions/atmel/armgcc/3.3.1.128/armgcctoolchain/bin/../lib/gcc/arm-none-eabi/4.7.0/thumb\libgcc.a(unwind-arm.o)
__gnu_unwind_frame                                c:/program files (x86)/atmel/atmel studio 6.0/extensions/atmel/armgcc/3.3.1.128/armgcctoolchain/bin/../lib/gcc/arm-none-eabi/4.7.0/thumb\libgcc.a(pr-support.o)
__init_array_end                                  c:/program files (x86)/atmel/atmel studio 6.0/extensions/atmel/armgcc/3.3.1.128/armgcctoolchain/bin/../lib/gcc/arm-none-eabi/4.7.0/../../../../arm-none-eabi/lib/thumb\libc.a(lib_a-init.o)
__init_array_start                                c:/program files (x86)/atmel/atmel studio 6.0/extensions/atmel/armgcc/3.3.1.128/armgcctoolchain/bin/../lib/gcc/arm-none-eabi/4.7.0/../../../../arm-none-eabi/lib/thumb\libc.a(lib_a-init.o)
__libc_fini                                       c:/program files (x86)/atmel/atmel studio 6.0/extensions/atmel/armgcc/3.3.1.128/armgcctoolchain/bin/../lib/gcc/arm-none-eabi/4.7.0/../../../../arm-none-eabi/lib/thumb\libc.a(lib_a-__call_atexit.o)
__libc_fini_array                                 c:/program files (x86)/atmel/atmel studio 6.0/extensions/atmel/armgcc/3.3.1.128/armgcctoolchain/bin/../lib/gcc/arm-none-eabi/4.7.0/../../../../arm-none-eabi/lib/thumb\libc.a(lib_a-fini.o)
                                                  c:/program files (x86)/atmel/atmel studio 6.0/extensions/atmel/armgcc/3.3.1.128/armgcctoolchain/bin/../lib/gcc/arm-none-eabi/4.7.0/../../../../arm-none-eabi/lib/thumb\libc.a(lib_a-__call_atexit.o)
                                                  c:/program files (x86)/atmel/atmel studio 6.0/extensions/atmel/armgcc/3.3.1.128/armgcctoolchain/bin/../lib/gcc/arm-none-eabi/4.7.0/../../../../arm-none-eabi/lib/thumb/crt0.o
__libc_init_array                                 c:/program files (x86)/atmel/atmel studio 6.0/extensions/atmel/armgcc/3.3.1.128/armgcctoolchain/bin/../lib/gcc/arm-none-eabi/4.7.0/../../../../arm-none-eabi/lib/thumb\libc.a(lib_a-init.o)
                                                  src/asf/sam/utils/cmsis/sam3s8/source/templates/gcc/startup_sam3sd8.o
                                                  c:/program files (x86)/atmel/atmel studio 6.0/extensions/atmel/armgcc/3.3.1.128/armgcctoolchain/bin/../lib/gcc/arm-none-eabi/4.7.0/../../../../arm-none-eabi/lib/thumb/crt0.o
__locale_charset                                  c:/program files (x86)/atmel/atmel studio 6.0/extensions/atmel/armgcc/3.3.1.128/armgcctoolchain/bin/../lib/gcc/arm-none-eabi/4.7.0/../../../../arm-none-eabi/lib/thumb\libc.a(lib_a-locale.o)
                                                  c:/program files (x86)/atmel/atmel studio 6.0/extensions/atmel/armgcc/3.3.1.128/armgcctoolchain/bin/../lib/gcc/arm-none-eabi/4.7.0/../../../../arm-none-eabi/lib/thumb\libc.a(lib_a-wctomb_r.o)
                                                  c:/program files (x86)/atmel/atmel studio 6.0/extensions/atmel/armgcc/3.3.1.128/armgcctoolchain/bin/../lib/gcc/arm-none-eabi/4.7.0/../../../../arm-none-eabi/lib/thumb\libc.a(lib_a-wcrtomb.o)
__locale_cjk_lang                                 c:/program files (x86)/atmel/atmel studio 6.0/extensions/atmel/armgcc/3.3.1.128/armgcctoolchain/bin/../lib/gcc/arm-none-eabi/4.7.0/../../../../arm-none-eabi/lib/thumb\libc.a(lib_a-locale.o)
__locale_mb_cur_max                               c:/program files (x86)/atmel/atmel studio 6.0/extensions/atmel/armgcc/3.3.1.128/armgcctoolchain/bin/../lib/gcc/arm-none-eabi/4.7.0/../../../../arm-none-eabi/lib/thumb\libc.a(lib_a-locale.o)
                                                  c:/program files (x86)/atmel/atmel studio 6.0/extensions/atmel/armgcc/3.3.1.128/armgcctoolchain/bin/../lib/gcc/arm-none-eabi/4.7.0/../../../../arm-none-eabi/lib/thumb\libc.a(lib_a-fputwc.o)
__locale_msgcharset                               c:/program files (x86)/atmel/atmel studio 6.0/extensions/atmel/armgcc/3.3.1.128/armgcctoolchain/bin/../lib/gcc/arm-none-eabi/4.7.0/../../../../arm-none-eabi/lib/thumb\libc.a(lib_a-locale.o)
__malloc_av_                                      c:/program files (x86)/atmel/atmel studio 6.0/extensions/atmel/armgcc/3.3.1.128/armgcctoolchain/bin/../lib/gcc/arm-none-eabi/4.7.0/../../../../arm-none-eabi/lib/thumb\libc.a(lib_a-mallocr.o)
                                                  c:/program files (x86)/atmel/atmel studio 6.0/extensions/atmel/armgcc/3.3.1.128/armgcctoolchain/bin/../lib/gcc/arm-none-eabi/4.7.0/../../../../arm-none-eabi/lib/thumb\libc.a(lib_a-reallocr.o)
                                                  c:/program files (x86)/atmel/atmel studio 6.0/extensions/atmel/armgcc/3.3.1.128/armgcctoolchain/bin/../lib/gcc/arm-none-eabi/4.7.0/../../../../arm-none-eabi/lib/thumb\libc.a(lib_a-freer.o)
__malloc_current_mallinfo                         c:/program files (x86)/atmel/atmel studio 6.0/extensions/atmel/armgcc/3.3.1.128/armgcctoolchain/bin/../lib/gcc/arm-none-eabi/4.7.0/../../../../arm-none-eabi/lib/thumb\libc.a(lib_a-mallocr.o)
                                                  c:/program files (x86)/atmel/atmel studio 6.0/extensions/atmel/armgcc/3.3.1.128/armgcctoolchain/bin/../lib/gcc/arm-none-eabi/4.7.0/../../../../arm-none-eabi/lib/thumb\libc.a(lib_a-freer.o)
__malloc_lock                                     c:/program files (x86)/atmel/atmel studio 6.0/extensions/atmel/armgcc/3.3.1.128/armgcctoolchain/bin/../lib/gcc/arm-none-eabi/4.7.0/../../../../arm-none-eabi/lib/thumb\libc.a(lib_a-mlock.o)
                                                  c:/program files (x86)/atmel/atmel studio 6.0/extensions/atmel/armgcc/3.3.1.128/armgcctoolchain/bin/../lib/gcc/arm-none-eabi/4.7.0/../../../../arm-none-eabi/lib/thumb\libc.a(lib_a-reallocr.o)
                                                  c:/program files (x86)/atmel/atmel studio 6.0/extensions/atmel/armgcc/3.3.1.128/armgcctoolchain/bin/../lib/gcc/arm-none-eabi/4.7.0/../../../../arm-none-eabi/lib/thumb\libc.a(lib_a-mallocr.o)
                                                  c:/program files (x86)/atmel/atmel studio 6.0/extensions/atmel/armgcc/3.3.1.128/armgcctoolchain/bin/../lib/gcc/arm-none-eabi/4.7.0/../../../../arm-none-eabi/lib/thumb\libc.a(lib_a-freer.o)
__malloc_max_sbrked_mem                           c:/program files (x86)/atmel/atmel studio 6.0/extensions/atmel/armgcc/3.3.1.128/armgcctoolchain/bin/../lib/gcc/arm-none-eabi/4.7.0/../../../../arm-none-eabi/lib/thumb\libc.a(lib_a-mallocr.o)
__malloc_max_total_mem                            c:/program files (x86)/atmel/atmel studio 6.0/extensions/atmel/armgcc/3.3.1.128/armgcctoolchain/bin/../lib/gcc/arm-none-eabi/4.7.0/../../../../arm-none-eabi/lib/thumb\libc.a(lib_a-mallocr.o)
__malloc_sbrk_base                                c:/program files (x86)/atmel/atmel studio 6.0/extensions/atmel/armgcc/3.3.1.128/armgcctoolchain/bin/../lib/gcc/arm-none-eabi/4.7.0/../../../../arm-none-eabi/lib/thumb\libc.a(lib_a-mallocr.o)
                                                  c:/program files (x86)/atmel/atmel studio 6.0/extensions/atmel/armgcc/3.3.1.128/armgcctoolchain/bin/../lib/gcc/arm-none-eabi/4.7.0/../../../../arm-none-eabi/lib/thumb\libc.a(lib_a-freer.o)
__malloc_top_pad                                  c:/program files (x86)/atmel/atmel studio 6.0/extensions/atmel/armgcc/3.3.1.128/armgcctoolchain/bin/../lib/gcc/arm-none-eabi/4.7.0/../../../../arm-none-eabi/lib/thumb\libc.a(lib_a-mallocr.o)
                                                  c:/program files (x86)/atmel/atmel studio 6.0/extensions/atmel/armgcc/3.3.1.128/armgcctoolchain/bin/../lib/gcc/arm-none-eabi/4.7.0/../../../../arm-none-eabi/lib/thumb\libc.a(lib_a-freer.o)
__malloc_trim_threshold                           c:/program files (x86)/atmel/atmel studio 6.0/extensions/atmel/armgcc/3.3.1.128/armgcctoolchain/bin/../lib/gcc/arm-none-eabi/4.7.0/../../../../arm-none-eabi/lib/thumb\libc.a(lib_a-mallocr.o)
                                                  c:/program files (x86)/atmel/atmel studio 6.0/extensions/atmel/armgcc/3.3.1.128/armgcctoolchain/bin/../lib/gcc/arm-none-eabi/4.7.0/../../../../arm-none-eabi/lib/thumb\libc.a(lib_a-freer.o)
__malloc_unlock                                   c:/program files (x86)/atmel/atmel studio 6.0/extensions/atmel/armgcc/3.3.1.128/armgcctoolchain/bin/../lib/gcc/arm-none-eabi/4.7.0/../../../../arm-none-eabi/lib/thumb\libc.a(lib_a-mlock.o)
                                                  c:/program files (x86)/atmel/atmel studio 6.0/extensions/atmel/armgcc/3.3.1.128/armgcctoolchain/bin/../lib/gcc/arm-none-eabi/4.7.0/../../../../arm-none-eabi/lib/thumb\libc.a(lib_a-reallocr.o)
                                                  c:/program files (x86)/atmel/atmel studio 6.0/extensions/atmel/armgcc/3.3.1.128/armgcctoolchain/bin/../lib/gcc/arm-none-eabi/4.7.0/../../../../arm-none-eabi/lib/thumb\libc.a(lib_a-mallocr.o)
                                                  c:/program files (x86)/atmel/atmel studio 6.0/extensions/atmel/armgcc/3.3.1.128/armgcctoolchain/bin/../lib/gcc/arm-none-eabi/4.7.0/../../../../arm-none-eabi/lib/thumb\libc.a(lib_a-freer.o)
__mb_cur_max                                      c:/program files (x86)/atmel/atmel studio 6.0/extensions/atmel/armgcc/3.3.1.128/armgcctoolchain/bin/../lib/gcc/arm-none-eabi/4.7.0/../../../../arm-none-eabi/lib/thumb\libc.a(lib_a-locale.o)
__mlocale_changed                                 c:/program files (x86)/atmel/atmel studio 6.0/extensions/atmel/armgcc/3.3.1.128/armgcctoolchain/bin/../lib/gcc/arm-none-eabi/4.7.0/../../../../arm-none-eabi/lib/thumb\libc.a(lib_a-locale.o)
__nlocale_changed                                 c:/program files (x86)/atmel/atmel studio 6.0/extensions/atmel/armgcc/3.3.1.128/armgcctoolchain/bin/../lib/gcc/arm-none-eabi/4.7.0/../../../../arm-none-eabi/lib/thumb\libc.a(lib_a-locale.o)
__preinit_array_end                               c:/program files (x86)/atmel/atmel studio 6.0/extensions/atmel/armgcc/3.3.1.128/armgcctoolchain/bin/../lib/gcc/arm-none-eabi/4.7.0/../../../../arm-none-eabi/lib/thumb\libc.a(lib_a-init.o)
__preinit_array_start                             c:/program files (x86)/atmel/atmel studio 6.0/extensions/atmel/armgcc/3.3.1.128/armgcctoolchain/bin/../lib/gcc/arm-none-eabi/4.7.0/../../../../arm-none-eabi/lib/thumb\libc.a(lib_a-init.o)
__register_exitproc                               c:/program files (x86)/atmel/atmel studio 6.0/extensions/atmel/armgcc/3.3.1.128/armgcctoolchain/bin/../lib/gcc/arm-none-eabi/4.7.0/../../../../arm-none-eabi/lib/thumb\libc.a(lib_a-__atexit.o)
                                                  c:/program files (x86)/atmel/atmel studio 6.0/extensions/atmel/armgcc/3.3.1.128/armgcctoolchain/bin/../lib/gcc/arm-none-eabi/4.7.0/../../../../arm-none-eabi/lib/thumb\libc.a(lib_a-atexit.o)
__register_frame_info                             c:/program files (x86)/atmel/atmel studio 6.0/extensions/atmel/armgcc/3.3.1.128/armgcctoolchain/bin/../lib/gcc/arm-none-eabi/4.7.0/thumb/crtbegin.o
__restore_core_regs                               c:/program files (x86)/atmel/atmel studio 6.0/extensions/atmel/armgcc/3.3.1.128/armgcctoolchain/bin/../lib/gcc/arm-none-eabi/4.7.0/thumb\libgcc.a(libunwind.o)
__sclose                                          c:/program files (x86)/atmel/atmel studio 6.0/extensions/atmel/armgcc/3.3.1.128/armgcctoolchain/bin/../lib/gcc/arm-none-eabi/4.7.0/../../../../arm-none-eabi/lib/thumb\libc.a(lib_a-stdio.o)
                                                  c:/program files (x86)/atmel/atmel studio 6.0/extensions/atmel/armgcc/3.3.1.128/armgcctoolchain/bin/../lib/gcc/arm-none-eabi/4.7.0/../../../../arm-none-eabi/lib/thumb\libc.a(lib_a-findfp.o)
__seofread                                        c:/program files (x86)/atmel/atmel studio 6.0/extensions/atmel/armgcc/3.3.1.128/armgcctoolchain/bin/../lib/gcc/arm-none-eabi/4.7.0/../../../../arm-none-eabi/lib/thumb\libc.a(lib_a-stdio.o)
__sfmoreglue                                      c:/program files (x86)/atmel/atmel studio 6.0/extensions/atmel/armgcc/3.3.1.128/armgcctoolchain/bin/../lib/gcc/arm-none-eabi/4.7.0/../../../../arm-none-eabi/lib/thumb\libc.a(lib_a-findfp.o)
__sfp                                             c:/program files (x86)/atmel/atmel studio 6.0/extensions/atmel/armgcc/3.3.1.128/armgcctoolchain/bin/../lib/gcc/arm-none-eabi/4.7.0/../../../../arm-none-eabi/lib/thumb\libc.a(lib_a-findfp.o)
__sfp_lock_acquire                                c:/program files (x86)/atmel/atmel studio 6.0/extensions/atmel/armgcc/3.3.1.128/armgcctoolchain/bin/../lib/gcc/arm-none-eabi/4.7.0/../../../../arm-none-eabi/lib/thumb\libc.a(lib_a-findfp.o)
                                                  c:/program files (x86)/atmel/atmel studio 6.0/extensions/atmel/armgcc/3.3.1.128/armgcctoolchain/bin/../lib/gcc/arm-none-eabi/4.7.0/../../../../arm-none-eabi/lib/thumb\libc.a(lib_a-fclose.o)
                                                  c:/program files (x86)/atmel/atmel studio 6.0/extensions/atmel/armgcc/3.3.1.128/armgcctoolchain/bin/../lib/gcc/arm-none-eabi/4.7.0/../../../../arm-none-eabi/lib/thumb\libc.a(lib_a-fwalk.o)
__sfp_lock_release                                c:/program files (x86)/atmel/atmel studio 6.0/extensions/atmel/armgcc/3.3.1.128/armgcctoolchain/bin/../lib/gcc/arm-none-eabi/4.7.0/../../../../arm-none-eabi/lib/thumb\libc.a(lib_a-findfp.o)
                                                  c:/program files (x86)/atmel/atmel studio 6.0/extensions/atmel/armgcc/3.3.1.128/armgcctoolchain/bin/../lib/gcc/arm-none-eabi/4.7.0/../../../../arm-none-eabi/lib/thumb\libc.a(lib_a-fclose.o)
                                                  c:/program files (x86)/atmel/atmel studio 6.0/extensions/atmel/armgcc/3.3.1.128/armgcctoolchain/bin/../lib/gcc/arm-none-eabi/4.7.0/../../../../arm-none-eabi/lib/thumb\libc.a(lib_a-fwalk.o)
__sfvwrite_r                                      c:/program files (x86)/atmel/atmel studio 6.0/extensions/atmel/armgcc/3.3.1.128/armgcctoolchain/bin/../lib/gcc/arm-none-eabi/4.7.0/../../../../arm-none-eabi/lib/thumb\libc.a(lib_a-fvwrite.o)
                                                  c:/program files (x86)/atmel/atmel studio 6.0/extensions/atmel/armgcc/3.3.1.128/armgcctoolchain/bin/../lib/gcc/arm-none-eabi/4.7.0/../../../../arm-none-eabi/lib/thumb\libc.a(lib_a-vfiprintf.o)
                                                  c:/program files (x86)/atmel/atmel studio 6.0/extensions/atmel/armgcc/3.3.1.128/armgcctoolchain/bin/../lib/gcc/arm-none-eabi/4.7.0/../../../../arm-none-eabi/lib/thumb\libc.a(lib_a-puts.o)
__sigtramp                                        c:/program files (x86)/atmel/atmel studio 6.0/extensions/atmel/armgcc/3.3.1.128/armgcctoolchain/bin/../lib/gcc/arm-none-eabi/4.7.0/../../../../arm-none-eabi/lib/thumb\libc.a(lib_a-signal.o)
__sigtramp_r                                      c:/program files (x86)/atmel/atmel studio 6.0/extensions/atmel/armgcc/3.3.1.128/armgcctoolchain/bin/../lib/gcc/arm-none-eabi/4.7.0/../../../../arm-none-eabi/lib/thumb\libc.a(lib_a-signal.o)
__sinit                                           c:/program files (x86)/atmel/atmel studio 6.0/extensions/atmel/armgcc/3.3.1.128/armgcctoolchain/bin/../lib/gcc/arm-none-eabi/4.7.0/../../../../arm-none-eabi/lib/thumb\libc.a(lib_a-findfp.o)
                                                  c:/program files (x86)/atmel/atmel studio 6.0/extensions/atmel/armgcc/3.3.1.128/armgcctoolchain/bin/../lib/gcc/arm-none-eabi/4.7.0/../../../../arm-none-eabi/lib/thumb\libc.a(lib_a-fclose.o)
                                                  c:/program files (x86)/atmel/atmel studio 6.0/extensions/atmel/armgcc/3.3.1.128/armgcctoolchain/bin/../lib/gcc/arm-none-eabi/4.7.0/../../../../arm-none-eabi/lib/thumb\libc.a(lib_a-wbuf.o)
                                                  c:/program files (x86)/atmel/atmel studio 6.0/extensions/atmel/armgcc/3.3.1.128/armgcctoolchain/bin/../lib/gcc/arm-none-eabi/4.7.0/../../../../arm-none-eabi/lib/thumb\libc.a(lib_a-fputwc.o)
                                                  c:/program files (x86)/atmel/atmel studio 6.0/extensions/atmel/armgcc/3.3.1.128/armgcctoolchain/bin/../lib/gcc/arm-none-eabi/4.7.0/../../../../arm-none-eabi/lib/thumb\libc.a(lib_a-fflush.o)
                                                  c:/program files (x86)/atmel/atmel studio 6.0/extensions/atmel/armgcc/3.3.1.128/armgcctoolchain/bin/../lib/gcc/arm-none-eabi/4.7.0/../../../../arm-none-eabi/lib/thumb\libc.a(lib_a-wsetup.o)
                                                  c:/program files (x86)/atmel/atmel studio 6.0/extensions/atmel/armgcc/3.3.1.128/armgcctoolchain/bin/../lib/gcc/arm-none-eabi/4.7.0/../../../../arm-none-eabi/lib/thumb\libc.a(lib_a-vfprintf.o)
                                                  c:/program files (x86)/atmel/atmel studio 6.0/extensions/atmel/armgcc/3.3.1.128/armgcctoolchain/bin/../lib/gcc/arm-none-eabi/4.7.0/../../../../arm-none-eabi/lib/thumb\libc.a(lib_a-vfiprintf.o)
                                                  c:/program files (x86)/atmel/atmel studio 6.0/extensions/atmel/armgcc/3.3.1.128/armgcctoolchain/bin/../lib/gcc/arm-none-eabi/4.7.0/../../../../arm-none-eabi/lib/thumb\libc.a(lib_a-setvbuf.o)
__sinit_lock_acquire                              c:/program files (x86)/atmel/atmel studio 6.0/extensions/atmel/armgcc/3.3.1.128/armgcctoolchain/bin/../lib/gcc/arm-none-eabi/4.7.0/../../../../arm-none-eabi/lib/thumb\libc.a(lib_a-findfp.o)
__sinit_lock_release                              c:/program files (x86)/atmel/atmel studio 6.0/extensions/atmel/armgcc/3.3.1.128/armgcctoolchain/bin/../lib/gcc/arm-none-eabi/4.7.0/../../../../arm-none-eabi/lib/thumb\libc.a(lib_a-findfp.o)
__smakebuf_r                                      c:/program files (x86)/atmel/atmel studio 6.0/extensions/atmel/armgcc/3.3.1.128/armgcctoolchain/bin/../lib/gcc/arm-none-eabi/4.7.0/../../../../arm-none-eabi/lib/thumb\libc.a(lib_a-makebuf.o)
                                                  c:/program files (x86)/atmel/atmel studio 6.0/extensions/atmel/armgcc/3.3.1.128/armgcctoolchain/bin/../lib/gcc/arm-none-eabi/4.7.0/../../../../arm-none-eabi/lib/thumb\libc.a(lib_a-wsetup.o)
__sprint_r                                        c:/program files (x86)/atmel/atmel studio 6.0/extensions/atmel/armgcc/3.3.1.128/armgcctoolchain/bin/../lib/gcc/arm-none-eabi/4.7.0/../../../../arm-none-eabi/lib/thumb\libc.a(lib_a-vfiprintf.o)
                                                  c:/program files (x86)/atmel/atmel studio 6.0/extensions/atmel/armgcc/3.3.1.128/armgcctoolchain/bin/../lib/gcc/arm-none-eabi/4.7.0/../../../../arm-none-eabi/lib/thumb\libc.a(lib_a-vfprintf.o)
__sread                                           c:/program files (x86)/atmel/atmel studio 6.0/extensions/atmel/armgcc/3.3.1.128/armgcctoolchain/bin/../lib/gcc/arm-none-eabi/4.7.0/../../../../arm-none-eabi/lib/thumb\libc.a(lib_a-stdio.o)
                                                  c:/program files (x86)/atmel/atmel studio 6.0/extensions/atmel/armgcc/3.3.1.128/armgcctoolchain/bin/../lib/gcc/arm-none-eabi/4.7.0/../../../../arm-none-eabi/lib/thumb\libc.a(lib_a-findfp.o)
__sseek                                           c:/program files (x86)/atmel/atmel studio 6.0/extensions/atmel/armgcc/3.3.1.128/armgcctoolchain/bin/../lib/gcc/arm-none-eabi/4.7.0/../../../../arm-none-eabi/lib/thumb\libc.a(lib_a-stdio.o)
                                                  c:/program files (x86)/atmel/atmel studio 6.0/extensions/atmel/armgcc/3.3.1.128/armgcctoolchain/bin/../lib/gcc/arm-none-eabi/4.7.0/../../../../arm-none-eabi/lib/thumb\libc.a(lib_a-makebuf.o)
                                                  c:/program files (x86)/atmel/atmel studio 6.0/extensions/atmel/armgcc/3.3.1.128/armgcctoolchain/bin/../lib/gcc/arm-none-eabi/4.7.0/../../../../arm-none-eabi/lib/thumb\libc.a(lib_a-findfp.o)
__ssprint_r                                       c:/program files (x86)/atmel/atmel studio 6.0/extensions/atmel/armgcc/3.3.1.128/armgcctoolchain/bin/../lib/gcc/arm-none-eabi/4.7.0/../../../../arm-none-eabi/lib/thumb\libc.a(lib_a-svfiprintf.o)
                                                  c:/program files (x86)/atmel/atmel studio 6.0/extensions/atmel/armgcc/3.3.1.128/armgcctoolchain/bin/../lib/gcc/arm-none-eabi/4.7.0/../../../../arm-none-eabi/lib/thumb\libc.a(lib_a-svfprintf.o)
__stack                                           c:/program files (x86)/atmel/atmel studio 6.0/extensions/atmel/armgcc/3.3.1.128/armgcctoolchain/bin/../lib/gcc/arm-none-eabi/4.7.0/../../../../arm-none-eabi/lib/thumb/crt0.o
__swbuf                                           c:/program files (x86)/atmel/atmel studio 6.0/extensions/atmel/armgcc/3.3.1.128/armgcctoolchain/bin/../lib/gcc/arm-none-eabi/4.7.0/../../../../arm-none-eabi/lib/thumb\libc.a(lib_a-wbuf.o)
__swbuf_r                                         c:/program files (x86)/atmel/atmel studio 6.0/extensions/atmel/armgcc/3.3.1.128/armgcctoolchain/bin/../lib/gcc/arm-none-eabi/4.7.0/../../../../arm-none-eabi/lib/thumb\libc.a(lib_a-wbuf.o)
                                                  c:/program files (x86)/atmel/atmel studio 6.0/extensions/atmel/armgcc/3.3.1.128/armgcctoolchain/bin/../lib/gcc/arm-none-eabi/4.7.0/../../../../arm-none-eabi/lib/thumb\libc.a(lib_a-fputwc.o)
__swrite                                          c:/program files (x86)/atmel/atmel studio 6.0/extensions/atmel/armgcc/3.3.1.128/armgcctoolchain/bin/../lib/gcc/arm-none-eabi/4.7.0/../../../../arm-none-eabi/lib/thumb\libc.a(lib_a-stdio.o)
                                                  c:/program files (x86)/atmel/atmel studio 6.0/extensions/atmel/armgcc/3.3.1.128/armgcctoolchain/bin/../lib/gcc/arm-none-eabi/4.7.0/../../../../arm-none-eabi/lib/thumb\libc.a(lib_a-findfp.o)
__swsetup_r                                       c:/program files (x86)/atmel/atmel studio 6.0/extensions/atmel/armgcc/3.3.1.128/armgcctoolchain/bin/../lib/gcc/arm-none-eabi/4.7.0/../../../../arm-none-eabi/lib/thumb\libc.a(lib_a-wsetup.o)
                                                  c:/program files (x86)/atmel/atmel studio 6.0/extensions/atmel/armgcc/3.3.1.128/armgcctoolchain/bin/../lib/gcc/arm-none-eabi/4.7.0/../../../../arm-none-eabi/lib/thumb\libc.a(lib_a-wbuf.o)
                                                  c:/program files (x86)/atmel/atmel studio 6.0/extensions/atmel/armgcc/3.3.1.128/armgcctoolchain/bin/../lib/gcc/arm-none-eabi/4.7.0/../../../../arm-none-eabi/lib/thumb\libc.a(lib_a-fvwrite.o)
                                                  c:/program files (x86)/atmel/atmel studio 6.0/extensions/atmel/armgcc/3.3.1.128/armgcctoolchain/bin/../lib/gcc/arm-none-eabi/4.7.0/../../../../arm-none-eabi/lib/thumb\libc.a(lib_a-vfprintf.o)
                                                  c:/program files (x86)/atmel/atmel studio 6.0/extensions/atmel/armgcc/3.3.1.128/armgcctoolchain/bin/../lib/gcc/arm-none-eabi/4.7.0/../../../../arm-none-eabi/lib/thumb\libc.a(lib_a-vfiprintf.o)
__udivdi3                                         c:/program files (x86)/atmel/atmel studio 6.0/extensions/atmel/armgcc/3.3.1.128/armgcctoolchain/bin/../lib/gcc/arm-none-eabi/4.7.0/thumb\libgcc.a(_udivdi3.o)
                                                  c:/program files (x86)/atmel/atmel studio 6.0/extensions/atmel/armgcc/3.3.1.128/armgcctoolchain/bin/../lib/gcc/arm-none-eabi/4.7.0/thumb\libgcc.a(bpabi.o)
__wctomb                                          c:/program files (x86)/atmel/atmel studio 6.0/extensions/atmel/armgcc/3.3.1.128/armgcctoolchain/bin/../lib/gcc/arm-none-eabi/4.7.0/../../../../arm-none-eabi/lib/thumb\libc.a(lib_a-wctomb_r.o)
                                                  c:/program files (x86)/atmel/atmel studio 6.0/extensions/atmel/armgcc/3.3.1.128/armgcctoolchain/bin/../lib/gcc/arm-none-eabi/4.7.0/../../../../arm-none-eabi/lib/thumb\libc.a(lib_a-wcrtomb.o)
_cleanup                                          c:/program files (x86)/atmel/atmel studio 6.0/extensions/atmel/armgcc/3.3.1.128/armgcctoolchain/bin/../lib/gcc/arm-none-eabi/4.7.0/../../../../arm-none-eabi/lib/thumb\libc.a(lib_a-findfp.o)
_cleanup_r                                        c:/program files (x86)/atmel/atmel studio 6.0/extensions/atmel/armgcc/3.3.1.128/armgcctoolchain/bin/../lib/gcc/arm-none-eabi/4.7.0/../../../../arm-none-eabi/lib/thumb\libc.a(lib_a-findfp.o)
                                                  c:/program files (x86)/atmel/atmel studio 6.0/extensions/atmel/armgcc/3.3.1.128/armgcctoolchain/bin/../lib/gcc/arm-none-eabi/4.7.0/../../../../arm-none-eabi/lib/thumb\libc.a(lib_a-makebuf.o)
                                                  c:/program files (x86)/atmel/atmel studio 6.0/extensions/atmel/armgcc/3.3.1.128/armgcctoolchain/bin/../lib/gcc/arm-none-eabi/4.7.0/../../../../arm-none-eabi/lib/thumb\libc.a(lib_a-setvbuf.o)
_close                                            src/asf/sam/utils/syscalls/gcc/syscalls.o
                                                  c:/program files (x86)/atmel/atmel studio 6.0/extensions/atmel/armgcc/3.3.1.128/armgcctoolchain/bin/../lib/gcc/arm-none-eabi/4.7.0/../../../../arm-none-eabi/lib/thumb\libc.a(lib_a-closer.o)
_close_r                                          c:/program files (x86)/atmel/atmel studio 6.0/extensions/atmel/armgcc/3.3.1.128/armgcctoolchain/bin/../lib/gcc/arm-none-eabi/4.7.0/../../../../arm-none-eabi/lib/thumb\libc.a(lib_a-closer.o)
                                                  c:/program files (x86)/atmel/atmel studio 6.0/extensions/atmel/armgcc/3.3.1.128/armgcctoolchain/bin/../lib/gcc/arm-none-eabi/4.7.0/../../../../arm-none-eabi/lib/thumb\libc.a(lib_a-stdio.o)
_end                                              src/asf/sam/utils/syscalls/gcc/syscalls.o
_erelocate                                        src/asf/sam/utils/cmsis/sam3s8/source/templates/gcc/startup_sam3sd8.o
_estack                                           src/asf/sam/utils/cmsis/sam3s8/source/templates/gcc/startup_sam3sd8.o
_etext                                            src/asf/sam/utils/cmsis/sam3s8/source/templates/gcc/startup_sam3sd8.o
_exit                                             src/asf/sam/utils/syscalls/gcc/syscalls.o
                                                  c:/program files (x86)/atmel/atmel studio 6.0/extensions/atmel/armgcc/3.3.1.128/armgcctoolchain/bin/../lib/gcc/arm-none-eabi/4.7.0/../../../../arm-none-eabi/lib/thumb\libc.a(lib_a-abort.o)
                                                  c:/program files (x86)/atmel/atmel studio 6.0/extensions/atmel/armgcc/3.3.1.128/armgcctoolchain/bin/../lib/gcc/arm-none-eabi/4.7.0/../../../../arm-none-eabi/lib/thumb\libc.a(lib_a-exit.o)
_ezero                                            src/asf/sam/utils/cmsis/sam3s8/source/templates/gcc/startup_sam3sd8.o
_fclose_r                                         c:/program files (x86)/atmel/atmel studio 6.0/extensions/atmel/armgcc/3.3.1.128/armgcctoolchain/bin/../lib/gcc/arm-none-eabi/4.7.0/../../../../arm-none-eabi/lib/thumb\libc.a(lib_a-fclose.o)
_fflush_r                                         c:/program files (x86)/atmel/atmel studio 6.0/extensions/atmel/armgcc/3.3.1.128/armgcctoolchain/bin/../lib/gcc/arm-none-eabi/4.7.0/../../../../arm-none-eabi/lib/thumb\libc.a(lib_a-fflush.o)
                                                  c:/program files (x86)/atmel/atmel studio 6.0/extensions/atmel/armgcc/3.3.1.128/armgcctoolchain/bin/../lib/gcc/arm-none-eabi/4.7.0/../../../../arm-none-eabi/lib/thumb\libc.a(lib_a-fclose.o)
                                                  c:/program files (x86)/atmel/atmel studio 6.0/extensions/atmel/armgcc/3.3.1.128/armgcctoolchain/bin/../lib/gcc/arm-none-eabi/4.7.0/../../../../arm-none-eabi/lib/thumb\libc.a(lib_a-wbuf.o)
                                                  c:/program files (x86)/atmel/atmel studio 6.0/extensions/atmel/armgcc/3.3.1.128/armgcctoolchain/bin/../lib/gcc/arm-none-eabi/4.7.0/../../../../arm-none-eabi/lib/thumb\libc.a(lib_a-fvwrite.o)
                                                  c:/program files (x86)/atmel/atmel studio 6.0/extensions/atmel/armgcc/3.3.1.128/armgcctoolchain/bin/../lib/gcc/arm-none-eabi/4.7.0/../../../../arm-none-eabi/lib/thumb\libc.a(lib_a-vfprintf.o)
                                                  c:/program files (x86)/atmel/atmel studio 6.0/extensions/atmel/armgcc/3.3.1.128/armgcctoolchain/bin/../lib/gcc/arm-none-eabi/4.7.0/../../../../arm-none-eabi/lib/thumb\libc.a(lib_a-vfiprintf.o)
                                                  c:/program files (x86)/atmel/atmel studio 6.0/extensions/atmel/armgcc/3.3.1.128/armgcctoolchain/bin/../lib/gcc/arm-none-eabi/4.7.0/../../../../arm-none-eabi/lib/thumb\libc.a(lib_a-setvbuf.o)
_fini                                             c:/program files (x86)/atmel/atmel studio 6.0/extensions/atmel/armgcc/3.3.1.128/armgcctoolchain/bin/../lib/gcc/arm-none-eabi/4.7.0/thumb/crti.o
                                                  c:/program files (x86)/atmel/atmel studio 6.0/extensions/atmel/armgcc/3.3.1.128/armgcctoolchain/bin/../lib/gcc/arm-none-eabi/4.7.0/../../../../arm-none-eabi/lib/thumb\libc.a(lib_a-fini.o)
_fiprintf_r                                       c:/program files (x86)/atmel/atmel studio 6.0/extensions/atmel/armgcc/3.3.1.128/armgcctoolchain/bin/../lib/gcc/arm-none-eabi/4.7.0/../../../../arm-none-eabi/lib/thumb\libc.a(lib_a-fiprintf.o)
_fputwc_r                                         c:/program files (x86)/atmel/atmel studio 6.0/extensions/atmel/armgcc/3.3.1.128/armgcctoolchain/bin/../lib/gcc/arm-none-eabi/4.7.0/../../../../arm-none-eabi/lib/thumb\libc.a(lib_a-fputwc.o)
                                                  c:/program files (x86)/atmel/atmel studio 6.0/extensions/atmel/armgcc/3.3.1.128/armgcctoolchain/bin/../lib/gcc/arm-none-eabi/4.7.0/../../../../arm-none-eabi/lib/thumb\libc.a(lib_a-vfiprintf.o)
_free_r                                           c:/program files (x86)/atmel/atmel studio 6.0/extensions/atmel/armgcc/3.3.1.128/armgcctoolchain/bin/../lib/gcc/arm-none-eabi/4.7.0/../../../../arm-none-eabi/lib/thumb\libc.a(lib_a-freer.o)
                                                  c:/program files (x86)/atmel/atmel studio 6.0/extensions/atmel/armgcc/3.3.1.128/armgcctoolchain/bin/../lib/gcc/arm-none-eabi/4.7.0/../../../../arm-none-eabi/lib/thumb\libc.a(lib_a-reent.o)
                                                  c:/program files (x86)/atmel/atmel studio 6.0/extensions/atmel/armgcc/3.3.1.128/armgcctoolchain/bin/../lib/gcc/arm-none-eabi/4.7.0/../../../../arm-none-eabi/lib/thumb\libc.a(lib_a-fclose.o)
                                                  c:/program files (x86)/atmel/atmel studio 6.0/extensions/atmel/armgcc/3.3.1.128/armgcctoolchain/bin/../lib/gcc/arm-none-eabi/4.7.0/../../../../arm-none-eabi/lib/thumb\libc.a(lib_a-svfiprintf.o)
                                                  c:/program files (x86)/atmel/atmel studio 6.0/extensions/atmel/armgcc/3.3.1.128/armgcctoolchain/bin/../lib/gcc/arm-none-eabi/4.7.0/../../../../arm-none-eabi/lib/thumb\libc.a(lib_a-reallocr.o)
                                                  c:/program files (x86)/atmel/atmel studio 6.0/extensions/atmel/armgcc/3.3.1.128/armgcctoolchain/bin/../lib/gcc/arm-none-eabi/4.7.0/../../../../arm-none-eabi/lib/thumb\libc.a(lib_a-mallocr.o)
                                                  c:/program files (x86)/atmel/atmel studio 6.0/extensions/atmel/armgcc/3.3.1.128/armgcctoolchain/bin/../lib/gcc/arm-none-eabi/4.7.0/../../../../arm-none-eabi/lib/thumb\libc.a(lib_a-malloc.o)
                                                  c:/program files (x86)/atmel/atmel studio 6.0/extensions/atmel/armgcc/3.3.1.128/armgcctoolchain/bin/../lib/gcc/arm-none-eabi/4.7.0/../../../../arm-none-eabi/lib/thumb\libc.a(lib_a-fvwrite.o)
                                                  c:/program files (x86)/atmel/atmel studio 6.0/extensions/atmel/armgcc/3.3.1.128/armgcctoolchain/bin/../lib/gcc/arm-none-eabi/4.7.0/../../../../arm-none-eabi/lib/thumb\libc.a(lib_a-fflush.o)
                                                  c:/program files (x86)/atmel/atmel studio 6.0/extensions/atmel/armgcc/3.3.1.128/armgcctoolchain/bin/../lib/gcc/arm-none-eabi/4.7.0/../../../../arm-none-eabi/lib/thumb\libc.a(lib_a-wsetup.o)
                                                  c:/program files (x86)/atmel/atmel studio 6.0/extensions/atmel/armgcc/3.3.1.128/armgcctoolchain/bin/../lib/gcc/arm-none-eabi/4.7.0/../../../../arm-none-eabi/lib/thumb\libc.a(lib_a-setvbuf.o)
_fstat                                            src/asf/sam/utils/syscalls/gcc/syscalls.o
                                                  c:/program files (x86)/atmel/atmel studio 6.0/extensions/atmel/armgcc/3.3.1.128/armgcctoolchain/bin/../lib/gcc/arm-none-eabi/4.7.0/../../../../arm-none-eabi/lib/thumb\libc.a(lib_a-fstatr.o)
_fstat_r                                          c:/program files (x86)/atmel/atmel studio 6.0/extensions/atmel/armgcc/3.3.1.128/armgcctoolchain/bin/../lib/gcc/arm-none-eabi/4.7.0/../../../../arm-none-eabi/lib/thumb\libc.a(lib_a-fstatr.o)
                                                  c:/program files (x86)/atmel/atmel studio 6.0/extensions/atmel/armgcc/3.3.1.128/armgcctoolchain/bin/../lib/gcc/arm-none-eabi/4.7.0/../../../../arm-none-eabi/lib/thumb\libc.a(lib_a-makebuf.o)
_fwalk                                            c:/program files (x86)/atmel/atmel studio 6.0/extensions/atmel/armgcc/3.3.1.128/armgcctoolchain/bin/../lib/gcc/arm-none-eabi/4.7.0/../../../../arm-none-eabi/lib/thumb\libc.a(lib_a-fwalk.o)
                                                  c:/program files (x86)/atmel/atmel studio 6.0/extensions/atmel/armgcc/3.3.1.128/armgcctoolchain/bin/../lib/gcc/arm-none-eabi/4.7.0/../../../../arm-none-eabi/lib/thumb\libc.a(lib_a-findfp.o)
_fwalk_reent                                      c:/program files (x86)/atmel/atmel studio 6.0/extensions/atmel/armgcc/3.3.1.128/armgcctoolchain/bin/../lib/gcc/arm-none-eabi/4.7.0/../../../../arm-none-eabi/lib/thumb\libc.a(lib_a-fwalk.o)
                                                  c:/program files (x86)/atmel/atmel studio 6.0/extensions/atmel/armgcc/3.3.1.128/armgcctoolchain/bin/../lib/gcc/arm-none-eabi/4.7.0/../../../../arm-none-eabi/lib/thumb\libc.a(lib_a-fflush.o)
_getpid                                           src/asf/sam/utils/syscalls/gcc/syscalls.o
                                                  c:/program files (x86)/atmel/atmel studio 6.0/extensions/atmel/armgcc/3.3.1.128/armgcctoolchain/bin/../lib/gcc/arm-none-eabi/4.7.0/../../../../arm-none-eabi/lib/thumb\libc.a(lib_a-signalr.o)
_getpid_r                                         c:/program files (x86)/atmel/atmel studio 6.0/extensions/atmel/armgcc/3.3.1.128/armgcctoolchain/bin/../lib/gcc/arm-none-eabi/4.7.0/../../../../arm-none-eabi/lib/thumb\libc.a(lib_a-signalr.o)
                                                  c:/program files (x86)/atmel/atmel studio 6.0/extensions/atmel/armgcc/3.3.1.128/armgcctoolchain/bin/../lib/gcc/arm-none-eabi/4.7.0/../../../../arm-none-eabi/lib/thumb\libc.a(lib_a-signal.o)
_global_impure_ptr                                c:/program files (x86)/atmel/atmel studio 6.0/extensions/atmel/armgcc/3.3.1.128/armgcctoolchain/bin/../lib/gcc/arm-none-eabi/4.7.0/../../../../arm-none-eabi/lib/thumb\libc.a(lib_a-impure.o)
                                                  c:/program files (x86)/atmel/atmel studio 6.0/extensions/atmel/armgcc/3.3.1.128/armgcctoolchain/bin/../lib/gcc/arm-none-eabi/4.7.0/../../../../arm-none-eabi/lib/thumb\libc.a(lib_a-findfp.o)
                                                  c:/program files (x86)/atmel/atmel studio 6.0/extensions/atmel/armgcc/3.3.1.128/armgcctoolchain/bin/../lib/gcc/arm-none-eabi/4.7.0/../../../../arm-none-eabi/lib/thumb\libc.a(lib_a-fflush.o)
                                                  c:/program files (x86)/atmel/atmel studio 6.0/extensions/atmel/armgcc/3.3.1.128/armgcctoolchain/bin/../lib/gcc/arm-none-eabi/4.7.0/../../../../arm-none-eabi/lib/thumb\libc.a(lib_a-__call_atexit.o)
                                                  c:/program files (x86)/atmel/atmel studio 6.0/extensions/atmel/armgcc/3.3.1.128/armgcctoolchain/bin/../lib/gcc/arm-none-eabi/4.7.0/../../../../arm-none-eabi/lib/thumb\libc.a(lib_a-__atexit.o)
                                                  c:/program files (x86)/atmel/atmel studio 6.0/extensions/atmel/armgcc/3.3.1.128/armgcctoolchain/bin/../lib/gcc/arm-none-eabi/4.7.0/../../../../arm-none-eabi/lib/thumb\libc.a(lib_a-exit.o)
_impure_ptr                                       c:/program files (x86)/atmel/atmel studio 6.0/extensions/atmel/armgcc/3.3.1.128/armgcctoolchain/bin/../lib/gcc/arm-none-eabi/4.7.0/../../../../arm-none-eabi/lib/thumb\libc.a(lib_a-impure.o)
                                                  c:/program files (x86)/atmel/atmel studio 6.0/extensions/atmel/armgcc/3.3.1.128/armgcctoolchain/bin/../lib/gcc/arm-none-eabi/4.7.0/../../../../arm-none-eabi/lib/thumb\libc.a(lib_a-reent.o)
                                                  c:/program files (x86)/atmel/atmel studio 6.0/extensions/atmel/armgcc/3.3.1.128/armgcctoolchain/bin/../lib/gcc/arm-none-eabi/4.7.0/../../../../arm-none-eabi/lib/thumb\libc.a(lib_a-fclose.o)
                                                  c:/program files (x86)/atmel/atmel studio 6.0/extensions/atmel/armgcc/3.3.1.128/armgcctoolchain/bin/../lib/gcc/arm-none-eabi/4.7.0/../../../../arm-none-eabi/lib/thumb\libc.a(lib_a-wcrtomb.o)
                                                  c:/program files (x86)/atmel/atmel studio 6.0/extensions/atmel/armgcc/3.3.1.128/armgcctoolchain/bin/../lib/gcc/arm-none-eabi/4.7.0/../../../../arm-none-eabi/lib/thumb\libc.a(lib_a-wbuf.o)
                                                  c:/program files (x86)/atmel/atmel studio 6.0/extensions/atmel/armgcc/3.3.1.128/armgcctoolchain/bin/../lib/gcc/arm-none-eabi/4.7.0/../../../../arm-none-eabi/lib/thumb\libc.a(lib_a-signal.o)
                                                  c:/program files (x86)/atmel/atmel studio 6.0/extensions/atmel/armgcc/3.3.1.128/armgcctoolchain/bin/../lib/gcc/arm-none-eabi/4.7.0/../../../../arm-none-eabi/lib/thumb\libc.a(lib_a-malloc.o)
                                                  c:/program files (x86)/atmel/atmel studio 6.0/extensions/atmel/armgcc/3.3.1.128/armgcctoolchain/bin/../lib/gcc/arm-none-eabi/4.7.0/../../../../arm-none-eabi/lib/thumb\libc.a(lib_a-locale.o)
                                                  c:/program files (x86)/atmel/atmel studio 6.0/extensions/atmel/armgcc/3.3.1.128/armgcctoolchain/bin/../lib/gcc/arm-none-eabi/4.7.0/../../../../arm-none-eabi/lib/thumb\libc.a(lib_a-fputwc.o)
                                                  c:/program files (x86)/atmel/atmel studio 6.0/extensions/atmel/armgcc/3.3.1.128/armgcctoolchain/bin/../lib/gcc/arm-none-eabi/4.7.0/../../../../arm-none-eabi/lib/thumb\libc.a(lib_a-findfp.o)
                                                  c:/program files (x86)/atmel/atmel studio 6.0/extensions/atmel/armgcc/3.3.1.128/armgcctoolchain/bin/../lib/gcc/arm-none-eabi/4.7.0/../../../../arm-none-eabi/lib/thumb\libc.a(lib_a-fflush.o)
                                                  c:/program files (x86)/atmel/atmel studio 6.0/extensions/atmel/armgcc/3.3.1.128/armgcctoolchain/bin/../lib/gcc/arm-none-eabi/4.7.0/../../../../arm-none-eabi/lib/thumb\libc.a(lib_a-wsetup.o)
                                                  c:/program files (x86)/atmel/atmel studio 6.0/extensions/atmel/armgcc/3.3.1.128/armgcctoolchain/bin/../lib/gcc/arm-none-eabi/4.7.0/../../../../arm-none-eabi/lib/thumb\libc.a(lib_a-vfprintf.o)
                                                  c:/program files (x86)/atmel/atmel studio 6.0/extensions/atmel/armgcc/3.3.1.128/armgcctoolchain/bin/../lib/gcc/arm-none-eabi/4.7.0/../../../../arm-none-eabi/lib/thumb\libc.a(lib_a-vfiprintf.o)
                                                  c:/program files (x86)/atmel/atmel studio 6.0/extensions/atmel/armgcc/3.3.1.128/armgcctoolchain/bin/../lib/gcc/arm-none-eabi/4.7.0/../../../../arm-none-eabi/lib/thumb\libc.a(lib_a-sprintf.o)
                                                  c:/program files (x86)/atmel/atmel studio 6.0/extensions/atmel/armgcc/3.3.1.128/armgcctoolchain/bin/../lib/gcc/arm-none-eabi/4.7.0/../../../../arm-none-eabi/lib/thumb\libc.a(lib_a-setvbuf.o)
                                                  c:/program files (x86)/atmel/atmel studio 6.0/extensions/atmel/armgcc/3.3.1.128/armgcctoolchain/bin/../lib/gcc/arm-none-eabi/4.7.0/../../../../arm-none-eabi/lib/thumb\libc.a(lib_a-puts.o)
                                                  c:/program files (x86)/atmel/atmel studio 6.0/extensions/atmel/armgcc/3.3.1.128/armgcctoolchain/bin/../lib/gcc/arm-none-eabi/4.7.0/../../../../arm-none-eabi/lib/thumb\libc.a(lib_a-printf.o)
                                                  c:/program files (x86)/atmel/atmel studio 6.0/extensions/atmel/armgcc/3.3.1.128/armgcctoolchain/bin/../lib/gcc/arm-none-eabi/4.7.0/../../../../arm-none-eabi/lib/thumb\libc.a(lib_a-fiprintf.o)
                                                  c:/program files (x86)/atmel/atmel studio 6.0/extensions/atmel/armgcc/3.3.1.128/armgcctoolchain/bin/../lib/gcc/arm-none-eabi/4.7.0/../../../../arm-none-eabi/lib/thumb\libc.a(lib_a-assert.o)
                                                  src/asf/common/utils/stdio/stdio_usb/stdio_usb.o
_init                                             c:/program files (x86)/atmel/atmel studio 6.0/extensions/atmel/armgcc/3.3.1.128/armgcctoolchain/bin/../lib/gcc/arm-none-eabi/4.7.0/thumb/crti.o
                                                  c:/program files (x86)/atmel/atmel studio 6.0/extensions/atmel/armgcc/3.3.1.128/armgcctoolchain/bin/../lib/gcc/arm-none-eabi/4.7.0/../../../../arm-none-eabi/lib/thumb\libc.a(lib_a-init.o)
_init_signal                                      c:/program files (x86)/atmel/atmel studio 6.0/extensions/atmel/armgcc/3.3.1.128/armgcctoolchain/bin/../lib/gcc/arm-none-eabi/4.7.0/../../../../arm-none-eabi/lib/thumb\libc.a(lib_a-signal.o)
_init_signal_r                                    c:/program files (x86)/atmel/atmel studio 6.0/extensions/atmel/armgcc/3.3.1.128/armgcctoolchain/bin/../lib/gcc/arm-none-eabi/4.7.0/../../../../arm-none-eabi/lib/thumb\libc.a(lib_a-signal.o)
_isatty                                           src/asf/sam/utils/syscalls/gcc/syscalls.o
                                                  c:/program files (x86)/atmel/atmel studio 6.0/extensions/atmel/armgcc/3.3.1.128/armgcctoolchain/bin/../lib/gcc/arm-none-eabi/4.7.0/../../../../arm-none-eabi/lib/thumb\libc.a(lib_a-isattyr.o)
_isatty_r                                         c:/program files (x86)/atmel/atmel studio 6.0/extensions/atmel/armgcc/3.3.1.128/armgcctoolchain/bin/../lib/gcc/arm-none-eabi/4.7.0/../../../../arm-none-eabi/lib/thumb\libc.a(lib_a-isattyr.o)
                                                  c:/program files (x86)/atmel/atmel studio 6.0/extensions/atmel/armgcc/3.3.1.128/armgcctoolchain/bin/../lib/gcc/arm-none-eabi/4.7.0/../../../../arm-none-eabi/lib/thumb\libc.a(lib_a-makebuf.o)
_kill                                             src/asf/sam/utils/syscalls/gcc/syscalls.o
                                                  c:/program files (x86)/atmel/atmel studio 6.0/extensions/atmel/armgcc/3.3.1.128/armgcctoolchain/bin/../lib/gcc/arm-none-eabi/4.7.0/../../../../arm-none-eabi/lib/thumb\libc.a(lib_a-signalr.o)
_kill_r                                           c:/program files (x86)/atmel/atmel studio 6.0/extensions/atmel/armgcc/3.3.1.128/armgcctoolchain/bin/../lib/gcc/arm-none-eabi/4.7.0/../../../../arm-none-eabi/lib/thumb\libc.a(lib_a-signalr.o)
                                                  c:/program files (x86)/atmel/atmel studio 6.0/extensions/atmel/armgcc/3.3.1.128/armgcctoolchain/bin/../lib/gcc/arm-none-eabi/4.7.0/../../../../arm-none-eabi/lib/thumb\libc.a(lib_a-signal.o)
_localeconv_r                                     c:/program files (x86)/atmel/atmel studio 6.0/extensions/atmel/armgcc/3.3.1.128/armgcctoolchain/bin/../lib/gcc/arm-none-eabi/4.7.0/../../../../arm-none-eabi/lib/thumb\libc.a(lib_a-locale.o)
_lseek                                            src/asf/sam/utils/syscalls/gcc/syscalls.o
                                                  c:/program files (x86)/atmel/atmel studio 6.0/extensions/atmel/armgcc/3.3.1.128/armgcctoolchain/bin/../lib/gcc/arm-none-eabi/4.7.0/../../../../arm-none-eabi/lib/thumb\libc.a(lib_a-lseekr.o)
_lseek_r                                          c:/program files (x86)/atmel/atmel studio 6.0/extensions/atmel/armgcc/3.3.1.128/armgcctoolchain/bin/../lib/gcc/arm-none-eabi/4.7.0/../../../../arm-none-eabi/lib/thumb\libc.a(lib_a-lseekr.o)
                                                  c:/program files (x86)/atmel/atmel studio 6.0/extensions/atmel/armgcc/3.3.1.128/armgcctoolchain/bin/../lib/gcc/arm-none-eabi/4.7.0/../../../../arm-none-eabi/lib/thumb\libc.a(lib_a-stdio.o)
_mainCRTStartup                                   c:/program files (x86)/atmel/atmel studio 6.0/extensions/atmel/armgcc/3.3.1.128/armgcctoolchain/bin/../lib/gcc/arm-none-eabi/4.7.0/../../../../arm-none-eabi/lib/thumb/crt0.o
_malloc_r                                         c:/program files (x86)/atmel/atmel studio 6.0/extensions/atmel/armgcc/3.3.1.128/armgcctoolchain/bin/../lib/gcc/arm-none-eabi/4.7.0/../../../../arm-none-eabi/lib/thumb\libc.a(lib_a-mallocr.o)
                                                  c:/program files (x86)/atmel/atmel studio 6.0/extensions/atmel/armgcc/3.3.1.128/armgcctoolchain/bin/../lib/gcc/arm-none-eabi/4.7.0/../../../../arm-none-eabi/lib/thumb\libc.a(lib_a-svfiprintf.o)
                                                  c:/program files (x86)/atmel/atmel studio 6.0/extensions/atmel/armgcc/3.3.1.128/armgcctoolchain/bin/../lib/gcc/arm-none-eabi/4.7.0/../../../../arm-none-eabi/lib/thumb\libc.a(lib_a-signal.o)
                                                  c:/program files (x86)/atmel/atmel studio 6.0/extensions/atmel/armgcc/3.3.1.128/armgcctoolchain/bin/../lib/gcc/arm-none-eabi/4.7.0/../../../../arm-none-eabi/lib/thumb\libc.a(lib_a-reallocr.o)
                                                  c:/program files (x86)/atmel/atmel studio 6.0/extensions/atmel/armgcc/3.3.1.128/armgcctoolchain/bin/../lib/gcc/arm-none-eabi/4.7.0/../../../../arm-none-eabi/lib/thumb\libc.a(lib_a-malloc.o)
                                                  c:/program files (x86)/atmel/atmel studio 6.0/extensions/atmel/armgcc/3.3.1.128/armgcctoolchain/bin/../lib/gcc/arm-none-eabi/4.7.0/../../../../arm-none-eabi/lib/thumb\libc.a(lib_a-makebuf.o)
                                                  c:/program files (x86)/atmel/atmel studio 6.0/extensions/atmel/armgcc/3.3.1.128/armgcctoolchain/bin/../lib/gcc/arm-none-eabi/4.7.0/../../../../arm-none-eabi/lib/thumb\libc.a(lib_a-fvwrite.o)
                                                  c:/program files (x86)/atmel/atmel studio 6.0/extensions/atmel/armgcc/3.3.1.128/armgcctoolchain/bin/../lib/gcc/arm-none-eabi/4.7.0/../../../../arm-none-eabi/lib/thumb\libc.a(lib_a-findfp.o)
                                                  c:/program files (x86)/atmel/atmel studio 6.0/extensions/atmel/armgcc/3.3.1.128/armgcctoolchain/bin/../lib/gcc/arm-none-eabi/4.7.0/../../../../arm-none-eabi/lib/thumb\libc.a(lib_a-svfprintf.o)
_malloc_trim_r                                    c:/program files (x86)/atmel/atmel studio 6.0/extensions/atmel/armgcc/3.3.1.128/armgcctoolchain/bin/../lib/gcc/arm-none-eabi/4.7.0/../../../../arm-none-eabi/lib/thumb\libc.a(lib_a-freer.o)
_printf_r                                         c:/program files (x86)/atmel/atmel studio 6.0/extensions/atmel/armgcc/3.3.1.128/armgcctoolchain/bin/../lib/gcc/arm-none-eabi/4.7.0/../../../../arm-none-eabi/lib/thumb\libc.a(lib_a-printf.o)
_puts_r                                           c:/program files (x86)/atmel/atmel studio 6.0/extensions/atmel/armgcc/3.3.1.128/armgcctoolchain/bin/../lib/gcc/arm-none-eabi/4.7.0/../../../../arm-none-eabi/lib/thumb\libc.a(lib_a-puts.o)
_raise_r                                          c:/program files (x86)/atmel/atmel studio 6.0/extensions/atmel/armgcc/3.3.1.128/armgcctoolchain/bin/../lib/gcc/arm-none-eabi/4.7.0/../../../../arm-none-eabi/lib/thumb\libc.a(lib_a-signal.o)
_read                                             src/asf/common/utils/stdio/read.o
                                                  c:/program files (x86)/atmel/atmel studio 6.0/extensions/atmel/armgcc/3.3.1.128/armgcctoolchain/bin/../lib/gcc/arm-none-eabi/4.7.0/../../../../arm-none-eabi/lib/thumb\libc.a(lib_a-readr.o)
_read_r                                           c:/program files (x86)/atmel/atmel studio 6.0/extensions/atmel/armgcc/3.3.1.128/armgcctoolchain/bin/../lib/gcc/arm-none-eabi/4.7.0/../../../../arm-none-eabi/lib/thumb\libc.a(lib_a-readr.o)
                                                  c:/program files (x86)/atmel/atmel studio 6.0/extensions/atmel/armgcc/3.3.1.128/armgcctoolchain/bin/../lib/gcc/arm-none-eabi/4.7.0/../../../../arm-none-eabi/lib/thumb\libc.a(lib_a-stdio.o)
_realloc_r                                        c:/program files (x86)/atmel/atmel studio 6.0/extensions/atmel/armgcc/3.3.1.128/armgcctoolchain/bin/../lib/gcc/arm-none-eabi/4.7.0/../../../../arm-none-eabi/lib/thumb\libc.a(lib_a-reallocr.o)
                                                  c:/program files (x86)/atmel/atmel studio 6.0/extensions/atmel/armgcc/3.3.1.128/armgcctoolchain/bin/../lib/gcc/arm-none-eabi/4.7.0/../../../../arm-none-eabi/lib/thumb\libc.a(lib_a-svfiprintf.o)
                                                  c:/program files (x86)/atmel/atmel studio 6.0/extensions/atmel/armgcc/3.3.1.128/armgcctoolchain/bin/../lib/gcc/arm-none-eabi/4.7.0/../../../../arm-none-eabi/lib/thumb\libc.a(lib_a-fvwrite.o)
_reclaim_reent                                    c:/program files (x86)/atmel/atmel studio 6.0/extensions/atmel/armgcc/3.3.1.128/armgcctoolchain/bin/../lib/gcc/arm-none-eabi/4.7.0/../../../../arm-none-eabi/lib/thumb\libc.a(lib_a-reent.o)
_sbrk                                             src/asf/sam/utils/syscalls/gcc/syscalls.o
                                                  c:/program files (x86)/atmel/atmel studio 6.0/extensions/atmel/armgcc/3.3.1.128/armgcctoolchain/bin/../lib/gcc/arm-none-eabi/4.7.0/../../../../arm-none-eabi/lib/thumb\libc.a(lib_a-sbrkr.o)
_sbrk_r                                           c:/program files (x86)/atmel/atmel studio 6.0/extensions/atmel/armgcc/3.3.1.128/armgcctoolchain/bin/../lib/gcc/arm-none-eabi/4.7.0/../../../../arm-none-eabi/lib/thumb\libc.a(lib_a-sbrkr.o)
                                                  c:/program files (x86)/atmel/atmel studio 6.0/extensions/atmel/armgcc/3.3.1.128/armgcctoolchain/bin/../lib/gcc/arm-none-eabi/4.7.0/../../../../arm-none-eabi/lib/thumb\libc.a(lib_a-mallocr.o)
                                                  c:/program files (x86)/atmel/atmel studio 6.0/extensions/atmel/armgcc/3.3.1.128/armgcctoolchain/bin/../lib/gcc/arm-none-eabi/4.7.0/../../../../arm-none-eabi/lib/thumb\libc.a(lib_a-freer.o)
_setlocale_r                                      c:/program files (x86)/atmel/atmel studio 6.0/extensions/atmel/armgcc/3.3.1.128/armgcctoolchain/bin/../lib/gcc/arm-none-eabi/4.7.0/../../../../arm-none-eabi/lib/thumb\libc.a(lib_a-locale.o)
_sfixed                                           src/asf/sam/utils/cmsis/sam3s8/source/templates/gcc/startup_sam3sd8.o
_signal_r                                         c:/program files (x86)/atmel/atmel studio 6.0/extensions/atmel/armgcc/3.3.1.128/armgcctoolchain/bin/../lib/gcc/arm-none-eabi/4.7.0/../../../../arm-none-eabi/lib/thumb\libc.a(lib_a-signal.o)
_sprintf_r                                        c:/program files (x86)/atmel/atmel studio 6.0/extensions/atmel/armgcc/3.3.1.128/armgcctoolchain/bin/../lib/gcc/arm-none-eabi/4.7.0/../../../../arm-none-eabi/lib/thumb\libc.a(lib_a-sprintf.o)
_srelocate                                        src/asf/sam/utils/cmsis/sam3s8/source/templates/gcc/startup_sam3sd8.o
_start                                            c:/program files (x86)/atmel/atmel studio 6.0/extensions/atmel/armgcc/3.3.1.128/armgcctoolchain/bin/../lib/gcc/arm-none-eabi/4.7.0/../../../../arm-none-eabi/lib/thumb/crt0.o
_svfiprintf_r                                     c:/program files (x86)/atmel/atmel studio 6.0/extensions/atmel/armgcc/3.3.1.128/armgcctoolchain/bin/../lib/gcc/arm-none-eabi/4.7.0/../../../../arm-none-eabi/lib/thumb\libc.a(lib_a-svfiprintf.o)
_svfprintf_r                                      c:/program files (x86)/atmel/atmel studio 6.0/extensions/atmel/armgcc/3.3.1.128/armgcctoolchain/bin/../lib/gcc/arm-none-eabi/4.7.0/../../../../arm-none-eabi/lib/thumb\libc.a(lib_a-svfprintf.o)
                                                  c:/program files (x86)/atmel/atmel studio 6.0/extensions/atmel/armgcc/3.3.1.128/armgcctoolchain/bin/../lib/gcc/arm-none-eabi/4.7.0/../../../../arm-none-eabi/lib/thumb\libc.a(lib_a-sprintf.o)
_szero                                            src/asf/sam/utils/cmsis/sam3s8/source/templates/gcc/startup_sam3sd8.o
_vfiprintf_r                                      c:/program files (x86)/atmel/atmel studio 6.0/extensions/atmel/armgcc/3.3.1.128/armgcctoolchain/bin/../lib/gcc/arm-none-eabi/4.7.0/../../../../arm-none-eabi/lib/thumb\libc.a(lib_a-vfiprintf.o)
                                                  c:/program files (x86)/atmel/atmel studio 6.0/extensions/atmel/armgcc/3.3.1.128/armgcctoolchain/bin/../lib/gcc/arm-none-eabi/4.7.0/../../../../arm-none-eabi/lib/thumb\libc.a(lib_a-fiprintf.o)
_vfprintf_r                                       c:/program files (x86)/atmel/atmel studio 6.0/extensions/atmel/armgcc/3.3.1.128/armgcctoolchain/bin/../lib/gcc/arm-none-eabi/4.7.0/../../../../arm-none-eabi/lib/thumb\libc.a(lib_a-vfprintf.o)
                                                  c:/program files (x86)/atmel/atmel studio 6.0/extensions/atmel/armgcc/3.3.1.128/armgcctoolchain/bin/../lib/gcc/arm-none-eabi/4.7.0/../../../../arm-none-eabi/lib/thumb\libc.a(lib_a-printf.o)
_wcrtomb_r                                        c:/program files (x86)/atmel/atmel studio 6.0/extensions/atmel/armgcc/3.3.1.128/armgcctoolchain/bin/../lib/gcc/arm-none-eabi/4.7.0/../../../../arm-none-eabi/lib/thumb\libc.a(lib_a-wcrtomb.o)
                                                  c:/program files (x86)/atmel/atmel studio 6.0/extensions/atmel/armgcc/3.3.1.128/armgcctoolchain/bin/../lib/gcc/arm-none-eabi/4.7.0/../../../../arm-none-eabi/lib/thumb\libc.a(lib_a-fputwc.o)
_wctomb_r                                         c:/program files (x86)/atmel/atmel studio 6.0/extensions/atmel/armgcc/3.3.1.128/armgcctoolchain/bin/../lib/gcc/arm-none-eabi/4.7.0/../../../../arm-none-eabi/lib/thumb\libc.a(lib_a-wctomb_r.o)
_wrapup_reent                                     c:/program files (x86)/atmel/atmel studio 6.0/extensions/atmel/armgcc/3.3.1.128/armgcctoolchain/bin/../lib/gcc/arm-none-eabi/4.7.0/../../../../arm-none-eabi/lib/thumb\libc.a(lib_a-reent.o)
_write                                            src/asf/common/utils/stdio/write.o
                                                  c:/program files (x86)/atmel/atmel studio 6.0/extensions/atmel/armgcc/3.3.1.128/armgcctoolchain/bin/../lib/gcc/arm-none-eabi/4.7.0/../../../../arm-none-eabi/lib/thumb\libc.a(lib_a-writer.o)
_write_r                                          c:/program files (x86)/atmel/atmel studio 6.0/extensions/atmel/armgcc/3.3.1.128/armgcctoolchain/bin/../lib/gcc/arm-none-eabi/4.7.0/../../../../arm-none-eabi/lib/thumb\libc.a(lib_a-writer.o)
                                                  c:/program files (x86)/atmel/atmel studio 6.0/extensions/atmel/armgcc/3.3.1.128/armgcctoolchain/bin/../lib/gcc/arm-none-eabi/4.7.0/../../../../arm-none-eabi/lib/thumb\libc.a(lib_a-stdio.o)
abort                                             c:/program files (x86)/atmel/atmel studio 6.0/extensions/atmel/armgcc/3.3.1.128/armgcctoolchain/bin/../lib/gcc/arm-none-eabi/4.7.0/../../../../arm-none-eabi/lib/thumb\libc.a(lib_a-abort.o)
                                                  c:/program files (x86)/atmel/atmel studio 6.0/extensions/atmel/armgcc/3.3.1.128/armgcctoolchain/bin/../lib/gcc/arm-none-eabi/4.7.0/thumb\libgcc.a(pr-support.o)
                                                  c:/program files (x86)/atmel/atmel studio 6.0/extensions/atmel/armgcc/3.3.1.128/armgcctoolchain/bin/../lib/gcc/arm-none-eabi/4.7.0/thumb\libgcc.a(unwind-arm.o)
                                                  c:/program files (x86)/atmel/atmel studio 6.0/extensions/atmel/armgcc/3.3.1.128/armgcctoolchain/bin/../lib/gcc/arm-none-eabi/4.7.0/../../../../arm-none-eabi/lib/thumb\libc.a(lib_a-assert.o)
atexit                                            c:/program files (x86)/atmel/atmel studio 6.0/extensions/atmel/armgcc/3.3.1.128/armgcctoolchain/bin/../lib/gcc/arm-none-eabi/4.7.0/../../../../arm-none-eabi/lib/thumb\libc.a(lib_a-atexit.o)
                                                  c:/program files (x86)/atmel/atmel studio 6.0/extensions/atmel/armgcc/3.3.1.128/armgcctoolchain/bin/../lib/gcc/arm-none-eabi/4.7.0/../../../../arm-none-eabi/lib/thumb\libc.a(lib_a-__call_atexit.o)
                                                  c:/program files (x86)/atmel/atmel studio 6.0/extensions/atmel/armgcc/3.3.1.128/armgcctoolchain/bin/../lib/gcc/arm-none-eabi/4.7.0/../../../../arm-none-eabi/lib/thumb/crt0.o
bTemp                                             src/zeppelin_fc.o
board_init                                        src/asf/sam/boards/sam3s_ek/init.o
                                                  src/stdio_usb_example.o
bw                                                src/zeppelin_fc.o
chipid_read                                       src/asf/sam/drivers/chipid/chipid.o
chipid_read_arch                                  src/asf/sam/drivers/chipid/chipid.o
chipid_read_extchipid                             src/asf/sam/drivers/chipid/chipid.o
chipid_read_nvpm2size                             src/asf/sam/drivers/chipid/chipid.o
chipid_read_nvpmsize                              src/asf/sam/drivers/chipid/chipid.o
chipid_read_nvpmtype                              src/asf/sam/drivers/chipid/chipid.o
chipid_read_processor                             src/asf/sam/drivers/chipid/chipid.o
chipid_read_sramsize                              src/asf/sam/drivers/chipid/chipid.o
chipid_read_version                               src/asf/sam/drivers/chipid/chipid.o
cleanup_glue                                      c:/program files (x86)/atmel/atmel studio 6.0/extensions/atmel/armgcc/3.3.1.128/armgcctoolchain/bin/../lib/gcc/arm-none-eabi/4.7.0/../../../../arm-none-eabi/lib/thumb\libc.a(lib_a-reent.o)
die                                               src/zeppelin_fc.o
dir                                               src/zeppelin_fc.o
disk_initialize                                   src/asf/thirdparty/fatfs/fatfs-port-r0.09/diskio.o
                                                  src/asf/thirdparty/fatfs/fatfs-r0.09/src/ff.o
disk_ioctl                                        src/asf/thirdparty/fatfs/fatfs-port-r0.09/diskio.o
                                                  src/asf/thirdparty/fatfs/fatfs-r0.09/src/ff.o
disk_read                                         src/asf/thirdparty/fatfs/fatfs-port-r0.09/diskio.o
                                                  src/asf/thirdparty/fatfs/fatfs-r0.09/src/ff.o
disk_status                                       src/asf/thirdparty/fatfs/fatfs-port-r0.09/diskio.o
                                                  src/asf/thirdparty/fatfs/fatfs-r0.09/src/ff.o
disk_write                                        src/asf/thirdparty/fatfs/fatfs-port-r0.09/diskio.o
                                                  src/asf/thirdparty/fatfs/fatfs-r0.09/src/ff.o
efc_disable_frdy_interrupt                        src/asf/sam/drivers/efc/efc.o
efc_enable_frdy_interrupt                         src/asf/sam/drivers/efc/efc.o
efc_get_flash_access_mode                         src/asf/sam/drivers/efc/efc.o
efc_get_result                                    src/asf/sam/drivers/efc/efc.o
                                                  src/asf/sam/services/flash_efc/flash_efc.o
efc_get_status                                    src/asf/sam/drivers/efc/efc.o
efc_get_wait_state                                src/asf/sam/drivers/efc/efc.o
                                                  src/asf/sam/services/flash_efc/flash_efc.o
efc_init                                          src/asf/sam/drivers/efc/efc.o
                                                  src/asf/sam/services/flash_efc/flash_efc.o
efc_perform_command                               src/asf/sam/drivers/efc/efc.o
                                                  src/asf/sam/services/flash_efc/flash_efc.o
efc_perform_fcr                                   src/asf/sam/drivers/efc/efc.o
efc_perform_read_sequence                         src/asf/sam/drivers/efc/efc.o
                                                  src/asf/sam/services/flash_efc/flash_efc.o
efc_set_flash_access_mode                         src/asf/sam/drivers/efc/efc.o
efc_set_wait_state                                src/asf/sam/drivers/efc/efc.o
                                                  src/asf/sam/services/flash_efc/flash_efc.o
efc_write_fmr                                     src/asf/sam/drivers/efc/efc.o
errno                                             c:/program files (x86)/atmel/atmel studio 6.0/extensions/atmel/armgcc/3.3.1.128/armgcctoolchain/bin/../lib/gcc/arm-none-eabi/4.7.0/../../../../arm-none-eabi/lib/thumb\libc.a(lib_a-reent.o)
                                                  c:/program files (x86)/atmel/atmel studio 6.0/extensions/atmel/armgcc/3.3.1.128/armgcctoolchain/bin/../lib/gcc/arm-none-eabi/4.7.0/../../../../arm-none-eabi/lib/thumb\libc.a(lib_a-readr.o)
                                                  c:/program files (x86)/atmel/atmel studio 6.0/extensions/atmel/armgcc/3.3.1.128/armgcctoolchain/bin/../lib/gcc/arm-none-eabi/4.7.0/../../../../arm-none-eabi/lib/thumb\libc.a(lib_a-lseekr.o)
                                                  c:/program files (x86)/atmel/atmel studio 6.0/extensions/atmel/armgcc/3.3.1.128/armgcctoolchain/bin/../lib/gcc/arm-none-eabi/4.7.0/../../../../arm-none-eabi/lib/thumb\libc.a(lib_a-isattyr.o)
                                                  c:/program files (x86)/atmel/atmel studio 6.0/extensions/atmel/armgcc/3.3.1.128/armgcctoolchain/bin/../lib/gcc/arm-none-eabi/4.7.0/../../../../arm-none-eabi/lib/thumb\libc.a(lib_a-fstatr.o)
                                                  c:/program files (x86)/atmel/atmel studio 6.0/extensions/atmel/armgcc/3.3.1.128/armgcctoolchain/bin/../lib/gcc/arm-none-eabi/4.7.0/../../../../arm-none-eabi/lib/thumb\libc.a(lib_a-closer.o)
                                                  c:/program files (x86)/atmel/atmel studio 6.0/extensions/atmel/armgcc/3.3.1.128/armgcctoolchain/bin/../lib/gcc/arm-none-eabi/4.7.0/../../../../arm-none-eabi/lib/thumb\libc.a(lib_a-writer.o)
                                                  c:/program files (x86)/atmel/atmel studio 6.0/extensions/atmel/armgcc/3.3.1.128/armgcctoolchain/bin/../lib/gcc/arm-none-eabi/4.7.0/../../../../arm-none-eabi/lib/thumb\libc.a(lib_a-signalr.o)
                                                  c:/program files (x86)/atmel/atmel studio 6.0/extensions/atmel/armgcc/3.3.1.128/armgcctoolchain/bin/../lib/gcc/arm-none-eabi/4.7.0/../../../../arm-none-eabi/lib/thumb\libc.a(lib_a-sbrkr.o)
exception_table                                   src/asf/sam/utils/cmsis/sam3s8/source/templates/gcc/startup_sam3sd8.o
exit                                              c:/program files (x86)/atmel/atmel studio 6.0/extensions/atmel/armgcc/3.3.1.128/armgcctoolchain/bin/../lib/gcc/arm-none-eabi/4.7.0/../../../../arm-none-eabi/lib/thumb\libc.a(lib_a-exit.o)
                                                  c:/program files (x86)/atmel/atmel studio 6.0/extensions/atmel/armgcc/3.3.1.128/armgcctoolchain/bin/../lib/gcc/arm-none-eabi/4.7.0/../../../../arm-none-eabi/lib/thumb/crt0.o
f_chmod                                           src/asf/thirdparty/fatfs/fatfs-r0.09/src/ff.o
f_close                                           src/asf/thirdparty/fatfs/fatfs-r0.09/src/ff.o
f_getfree                                         src/asf/thirdparty/fatfs/fatfs-r0.09/src/ff.o
f_gets                                            src/asf/thirdparty/fatfs/fatfs-r0.09/src/ff.o
f_log                                             src/zeppelin_fc.o
f_lseek                                           src/asf/thirdparty/fatfs/fatfs-r0.09/src/ff.o
f_mkdir                                           src/asf/thirdparty/fatfs/fatfs-r0.09/src/ff.o
                                                  src/zeppelin_fc.o
f_mount                                           src/asf/thirdparty/fatfs/fatfs-r0.09/src/ff.o
                                                  src/zeppelin_fc.o
f_open                                            src/asf/thirdparty/fatfs/fatfs-r0.09/src/ff.o
                                                  src/zeppelin_fc.o
f_opendir                                         src/asf/thirdparty/fatfs/fatfs-r0.09/src/ff.o
                                                  src/zeppelin_fc.o
f_printf                                          src/asf/thirdparty/fatfs/fatfs-r0.09/src/ff.o
f_putc                                            src/asf/thirdparty/fatfs/fatfs-r0.09/src/ff.o
f_puts                                            src/asf/thirdparty/fatfs/fatfs-r0.09/src/ff.o
                                                  src/zeppelin_fc.o
f_read                                            src/asf/thirdparty/fatfs/fatfs-r0.09/src/ff.o
f_readdir                                         src/asf/thirdparty/fatfs/fatfs-r0.09/src/ff.o
f_rename                                          src/asf/thirdparty/fatfs/fatfs-r0.09/src/ff.o
f_script                                          src/zeppelin_fc.o
f_stat                                            src/asf/thirdparty/fatfs/fatfs-r0.09/src/ff.o
f_sync                                            src/asf/thirdparty/fatfs/fatfs-r0.09/src/ff.o
                                                  src/zeppelin_fc.o
f_truncate                                        src/asf/thirdparty/fatfs/fatfs-r0.09/src/ff.o
f_unlink                                          src/asf/thirdparty/fatfs/fatfs-r0.09/src/ff.o
f_utime                                           src/asf/thirdparty/fatfs/fatfs-r0.09/src/ff.o
f_write                                           src/asf/thirdparty/fatfs/fatfs-r0.09/src/ff.o
                                                  src/zeppelin_fc.o
fclose                                            c:/program files (x86)/atmel/atmel studio 6.0/extensions/atmel/armgcc/3.3.1.128/armgcctoolchain/bin/../lib/gcc/arm-none-eabi/4.7.0/../../../../arm-none-eabi/lib/thumb\libc.a(lib_a-fclose.o)
                                                  c:/program files (x86)/atmel/atmel studio 6.0/extensions/atmel/armgcc/3.3.1.128/armgcctoolchain/bin/../lib/gcc/arm-none-eabi/4.7.0/../../../../arm-none-eabi/lib/thumb\libc.a(lib_a-findfp.o)
ff_convert                                        src/asf/thirdparty/fatfs/fatfs-r0.09/src/option/ccsbcs.o
                                                  src/asf/thirdparty/fatfs/fatfs-r0.09/src/ff.o
ff_wtoupper                                       src/asf/thirdparty/fatfs/fatfs-r0.09/src/option/ccsbcs.o
                                                  src/asf/thirdparty/fatfs/fatfs-r0.09/src/ff.o
fflush                                            c:/program files (x86)/atmel/atmel studio 6.0/extensions/atmel/armgcc/3.3.1.128/armgcctoolchain/bin/../lib/gcc/arm-none-eabi/4.7.0/../../../../arm-none-eabi/lib/thumb\libc.a(lib_a-fflush.o)
file_name                                         src/zeppelin_fc.o
file_object                                       src/zeppelin_fc.o
fiprintf                                          c:/program files (x86)/atmel/atmel studio 6.0/extensions/atmel/armgcc/3.3.1.128/armgcctoolchain/bin/../lib/gcc/arm-none-eabi/4.7.0/../../../../arm-none-eabi/lib/thumb\libc.a(lib_a-fiprintf.o)
                                                  c:/program files (x86)/atmel/atmel studio 6.0/extensions/atmel/armgcc/3.3.1.128/armgcctoolchain/bin/../lib/gcc/arm-none-eabi/4.7.0/../../../../arm-none-eabi/lib/thumb\libc.a(lib_a-assert.o)
flash_clear_gpnvm                                 src/asf/sam/services/flash_efc/flash_efc.o
flash_enable_security_bit                         src/asf/sam/services/flash_efc/flash_efc.o
flash_erase_all                                   src/asf/sam/services/flash_efc/flash_efc.o
flash_get_descriptor                              src/asf/sam/services/flash_efc/flash_efc.o
flash_get_page_count                              src/asf/sam/services/flash_efc/flash_efc.o
flash_get_page_count_per_region                   src/asf/sam/services/flash_efc/flash_efc.o
flash_get_region_count                            src/asf/sam/services/flash_efc/flash_efc.o
flash_get_wait_state                              src/asf/sam/services/flash_efc/flash_efc.o
flash_init                                        src/asf/sam/services/flash_efc/flash_efc.o
flash_is_gpnvm_set                                src/asf/sam/services/flash_efc/flash_efc.o
flash_is_locked                                   src/asf/sam/services/flash_efc/flash_efc.o
flash_is_security_bit_enabled                     src/asf/sam/services/flash_efc/flash_efc.o
flash_lock                                        src/asf/sam/services/flash_efc/flash_efc.o
flash_read_unique_id                              src/asf/sam/services/flash_efc/flash_efc.o
flash_set_gpnvm                                   src/asf/sam/services/flash_efc/flash_efc.o
flash_set_wait_state                              src/asf/sam/services/flash_efc/flash_efc.o
flash_set_wait_state_adaptively                   src/asf/sam/services/flash_efc/flash_efc.o
flash_unlock                                      src/asf/sam/services/flash_efc/flash_efc.o
flash_write                                       src/asf/sam/services/flash_efc/flash_efc.o
fno                                               src/zeppelin_fc.o
fputwc                                            c:/program files (x86)/atmel/atmel studio 6.0/extensions/atmel/armgcc/3.3.1.128/armgcctoolchain/bin/../lib/gcc/arm-none-eabi/4.7.0/../../../../arm-none-eabi/lib/thumb\libc.a(lib_a-fputwc.o)
free                                              c:/program files (x86)/atmel/atmel studio 6.0/extensions/atmel/armgcc/3.3.1.128/armgcctoolchain/bin/../lib/gcc/arm-none-eabi/4.7.0/../../../../arm-none-eabi/lib/thumb\libc.a(lib_a-malloc.o)
                                                  c:/program files (x86)/atmel/atmel studio 6.0/extensions/atmel/armgcc/3.3.1.128/armgcctoolchain/bin/../lib/gcc/arm-none-eabi/4.7.0/../../../../arm-none-eabi/lib/thumb\libc.a(lib_a-__call_atexit.o)
fs                                                src/zeppelin_fc.o
g_interrupt_enabled                               src/asf/common/utils/interrupt/interrupt_sam_nvic.o
                                                  src/stdio_usb_example.o
                                                  src/asf/sam/drivers/udp/udp_device.o
                                                  src/asf/common/services/usb/class/cdc/device/udi_cdc.o
get_cur_lun                                       src/asf/common/services/storage/ctrl_access/ctrl_access.o
get_fattime                                       src/asf/thirdparty/fatfs/fatfs-port-r0.09/sam/fattime.o
                                                  src/asf/thirdparty/fatfs/fatfs-r0.09/src/ff.o
get_nb_lun                                        src/asf/common/services/storage/ctrl_access/ctrl_access.o
hardware_init_hook                                c:/program files (x86)/atmel/atmel studio 6.0/extensions/atmel/armgcc/3.3.1.128/armgcctoolchain/bin/../lib/gcc/arm-none-eabi/4.7.0/../../../../arm-none-eabi/lib/thumb/crt0.o
hsmci_adtc_start                                  src/asf/sam/drivers/hsmci/hsmci.o
                                                  src/asf/common/components/memory/sd_mmc/sd_mmc.o
hsmci_adtc_stop                                   src/asf/sam/drivers/hsmci/hsmci.o
hsmci_deselect_device                             src/asf/sam/drivers/hsmci/hsmci.o
                                                  src/asf/common/components/memory/sd_mmc/sd_mmc.o
hsmci_get_bus_width                               src/asf/sam/drivers/hsmci/hsmci.o
                                                  src/asf/common/components/memory/sd_mmc/sd_mmc.o
hsmci_get_response                                src/asf/sam/drivers/hsmci/hsmci.o
                                                  src/asf/common/components/memory/sd_mmc/sd_mmc.o
hsmci_get_response_128                            src/asf/sam/drivers/hsmci/hsmci.o
                                                  src/asf/common/components/memory/sd_mmc/sd_mmc.o
hsmci_init                                        src/asf/sam/drivers/hsmci/hsmci.o
                                                  src/asf/common/components/memory/sd_mmc/sd_mmc.o
hsmci_is_high_speed_capable                       src/asf/sam/drivers/hsmci/hsmci.o
                                                  src/asf/common/components/memory/sd_mmc/sd_mmc.o
hsmci_read_word                                   src/asf/sam/drivers/hsmci/hsmci.o
                                                  src/asf/common/components/memory/sd_mmc/sd_mmc.o
hsmci_select_device                               src/asf/sam/drivers/hsmci/hsmci.o
                                                  src/asf/common/components/memory/sd_mmc/sd_mmc.o
hsmci_send_clock                                  src/asf/sam/drivers/hsmci/hsmci.o
                                                  src/asf/common/components/memory/sd_mmc/sd_mmc.o
hsmci_send_cmd                                    src/asf/sam/drivers/hsmci/hsmci.o
                                                  src/asf/common/components/memory/sd_mmc/sd_mmc.o
hsmci_start_read_blocks                           src/asf/sam/drivers/hsmci/hsmci.o
                                                  src/asf/common/components/memory/sd_mmc/sd_mmc.o
hsmci_start_write_blocks                          src/asf/sam/drivers/hsmci/hsmci.o
                                                  src/asf/common/components/memory/sd_mmc/sd_mmc.o
hsmci_wait_end_of_read_blocks                     src/asf/sam/drivers/hsmci/hsmci.o
                                                  src/asf/common/components/memory/sd_mmc/sd_mmc.o
hsmci_wait_end_of_write_blocks                    src/asf/sam/drivers/hsmci/hsmci.o
                                                  src/asf/common/components/memory/sd_mmc/sd_mmc.o
hsmci_write_word                                  src/asf/sam/drivers/hsmci/hsmci.o
link                                              src/asf/sam/utils/syscalls/gcc/syscalls.o
localeconv                                        c:/program files (x86)/atmel/atmel studio 6.0/extensions/atmel/armgcc/3.3.1.128/armgcctoolchain/bin/../lib/gcc/arm-none-eabi/4.7.0/../../../../arm-none-eabi/lib/thumb\libc.a(lib_a-locale.o)
log                                               src/zeppelin_fc.o
main                                              src/stdio_usb_example.o
                                                  src/asf/sam/utils/cmsis/sam3s8/source/templates/gcc/startup_sam3sd8.o
                                                  c:/program files (x86)/atmel/atmel studio 6.0/extensions/atmel/armgcc/3.3.1.128/armgcctoolchain/bin/../lib/gcc/arm-none-eabi/4.7.0/../../../../arm-none-eabi/lib/thumb/crt0.o
malloc                                            c:/program files (x86)/atmel/atmel studio 6.0/extensions/atmel/armgcc/3.3.1.128/armgcctoolchain/bin/../lib/gcc/arm-none-eabi/4.7.0/../../../../arm-none-eabi/lib/thumb\libc.a(lib_a-malloc.o)
                                                  c:/program files (x86)/atmel/atmel studio 6.0/extensions/atmel/armgcc/3.3.1.128/armgcctoolchain/bin/../lib/gcc/arm-none-eabi/4.7.0/../../../../arm-none-eabi/lib/thumb\libc.a(lib_a-__atexit.o)
                                                  c:/program files (x86)/atmel/atmel studio 6.0/extensions/atmel/armgcc/3.3.1.128/armgcctoolchain/bin/../lib/gcc/arm-none-eabi/4.7.0/../../../../arm-none-eabi/lib/thumb\libc.a(lib_a-setvbuf.o)
mem_name                                          src/asf/common/services/storage/ctrl_access/ctrl_access.o
mem_read_capacity                                 src/asf/common/services/storage/ctrl_access/ctrl_access.o
                                                  src/asf/thirdparty/fatfs/fatfs-port-r0.09/diskio.o
mem_removal                                       src/asf/common/services/storage/ctrl_access/ctrl_access.o
mem_sector_size                                   src/asf/common/services/storage/ctrl_access/ctrl_access.o
                                                  src/asf/thirdparty/fatfs/fatfs-port-r0.09/diskio.o
mem_test_unit_ready                               src/asf/common/services/storage/ctrl_access/ctrl_access.o
                                                  src/asf/thirdparty/fatfs/fatfs-port-r0.09/diskio.o
mem_wr_protect                                    src/asf/common/services/storage/ctrl_access/ctrl_access.o
                                                  src/asf/thirdparty/fatfs/fatfs-port-r0.09/diskio.o
memchr                                            c:/program files (x86)/atmel/atmel studio 6.0/extensions/atmel/armgcc/3.3.1.128/armgcctoolchain/bin/../lib/gcc/arm-none-eabi/4.7.0/../../../../arm-none-eabi/lib/thumb\libc.a(lib_a-memchr.o)
                                                  c:/program files (x86)/atmel/atmel studio 6.0/extensions/atmel/armgcc/3.3.1.128/armgcctoolchain/bin/../lib/gcc/arm-none-eabi/4.7.0/../../../../arm-none-eabi/lib/thumb\libc.a(lib_a-svfiprintf.o)
                                                  c:/program files (x86)/atmel/atmel studio 6.0/extensions/atmel/armgcc/3.3.1.128/armgcctoolchain/bin/../lib/gcc/arm-none-eabi/4.7.0/../../../../arm-none-eabi/lib/thumb\libc.a(lib_a-fvwrite.o)
                                                  c:/program files (x86)/atmel/atmel studio 6.0/extensions/atmel/armgcc/3.3.1.128/armgcctoolchain/bin/../lib/gcc/arm-none-eabi/4.7.0/../../../../arm-none-eabi/lib/thumb\libc.a(lib_a-vfprintf.o)
                                                  c:/program files (x86)/atmel/atmel studio 6.0/extensions/atmel/armgcc/3.3.1.128/armgcctoolchain/bin/../lib/gcc/arm-none-eabi/4.7.0/../../../../arm-none-eabi/lib/thumb\libc.a(lib_a-vfiprintf.o)
                                                  c:/program files (x86)/atmel/atmel studio 6.0/extensions/atmel/armgcc/3.3.1.128/armgcctoolchain/bin/../lib/gcc/arm-none-eabi/4.7.0/../../../../arm-none-eabi/lib/thumb\libc.a(lib_a-svfprintf.o)
memcpy                                            c:/program files (x86)/atmel/atmel studio 6.0/extensions/atmel/armgcc/3.3.1.128/armgcctoolchain/bin/../lib/gcc/arm-none-eabi/4.7.0/../../../../arm-none-eabi/lib/thumb\libc.a(lib_a-memcpy.o)
                                                  c:/program files (x86)/atmel/atmel studio 6.0/extensions/atmel/armgcc/3.3.1.128/armgcctoolchain/bin/../lib/gcc/arm-none-eabi/4.7.0/thumb\libgcc.a(unwind-arm.o)
                                                  c:/program files (x86)/atmel/atmel studio 6.0/extensions/atmel/armgcc/3.3.1.128/armgcctoolchain/bin/../lib/gcc/arm-none-eabi/4.7.0/../../../../arm-none-eabi/lib/thumb\libc.a(lib_a-svfiprintf.o)
                                                  c:/program files (x86)/atmel/atmel studio 6.0/extensions/atmel/armgcc/3.3.1.128/armgcctoolchain/bin/../lib/gcc/arm-none-eabi/4.7.0/../../../../arm-none-eabi/lib/thumb\libc.a(lib_a-fvwrite.o)
                                                  src/asf/sam/services/flash_efc/flash_efc.o
                                                  src/asf/common/services/usb/class/cdc/device/udi_cdc.o
memmove                                           c:/program files (x86)/atmel/atmel studio 6.0/extensions/atmel/armgcc/3.3.1.128/armgcctoolchain/bin/../lib/gcc/arm-none-eabi/4.7.0/../../../../arm-none-eabi/lib/thumb\libc.a(lib_a-memmove.o)
                                                  c:/program files (x86)/atmel/atmel studio 6.0/extensions/atmel/armgcc/3.3.1.128/armgcctoolchain/bin/../lib/gcc/arm-none-eabi/4.7.0/../../../../arm-none-eabi/lib/thumb\libc.a(lib_a-svfiprintf.o)
                                                  c:/program files (x86)/atmel/atmel studio 6.0/extensions/atmel/armgcc/3.3.1.128/armgcctoolchain/bin/../lib/gcc/arm-none-eabi/4.7.0/../../../../arm-none-eabi/lib/thumb\libc.a(lib_a-reallocr.o)
                                                  c:/program files (x86)/atmel/atmel studio 6.0/extensions/atmel/armgcc/3.3.1.128/armgcctoolchain/bin/../lib/gcc/arm-none-eabi/4.7.0/../../../../arm-none-eabi/lib/thumb\libc.a(lib_a-fvwrite.o)
memory_2_ram                                      src/asf/common/services/storage/ctrl_access/ctrl_access.o
                                                  src/asf/thirdparty/fatfs/fatfs-port-r0.09/diskio.o
memset                                            c:/program files (x86)/atmel/atmel studio 6.0/extensions/atmel/armgcc/3.3.1.128/armgcctoolchain/bin/../lib/gcc/arm-none-eabi/4.7.0/../../../../arm-none-eabi/lib/thumb\libc.a(lib_a-memset.o)
                                                  c:/program files (x86)/atmel/atmel studio 6.0/extensions/atmel/armgcc/3.3.1.128/armgcctoolchain/bin/../lib/gcc/arm-none-eabi/4.7.0/../../../../arm-none-eabi/lib/thumb\libc.a(lib_a-findfp.o)
                                                  src/zeppelin_fc.o
                                                  src/I2CdevWrapper.o
                                                  c:/program files (x86)/atmel/atmel studio 6.0/extensions/atmel/armgcc/3.3.1.128/armgcctoolchain/bin/../lib/gcc/arm-none-eabi/4.7.0/../../../../arm-none-eabi/lib/thumb/crt0.o
mmc_trans_multipliers                             src/asf/common/components/memory/sd_mmc/sd_mmc.o
pdc_disable_transfer                              src/asf/sam/drivers/pdc/pdc.o
pdc_enable_transfer                               src/asf/sam/drivers/pdc/pdc.o
pdc_read_rx_counter                               src/asf/sam/drivers/pdc/pdc.o
pdc_read_rx_next_counter                          src/asf/sam/drivers/pdc/pdc.o
pdc_read_rx_next_ptr                              src/asf/sam/drivers/pdc/pdc.o
pdc_read_rx_ptr                                   src/asf/sam/drivers/pdc/pdc.o
pdc_read_status                                   src/asf/sam/drivers/pdc/pdc.o
pdc_read_tx_counter                               src/asf/sam/drivers/pdc/pdc.o
pdc_read_tx_next_counter                          src/asf/sam/drivers/pdc/pdc.o
pdc_read_tx_next_ptr                              src/asf/sam/drivers/pdc/pdc.o
pdc_read_tx_ptr                                   src/asf/sam/drivers/pdc/pdc.o
pdc_rx_clear_cnt                                  src/asf/sam/drivers/pdc/pdc.o
pdc_rx_init                                       src/asf/sam/drivers/pdc/pdc.o
pdc_tx_init                                       src/asf/sam/drivers/pdc/pdc.o
pio_capture_disable                               src/asf/sam/drivers/pio/pio.o
pio_capture_disable_interrupt                     src/asf/sam/drivers/pio/pio.o
pio_capture_enable                                src/asf/sam/drivers/pio/pio.o
pio_capture_enable_interrupt                      src/asf/sam/drivers/pio/pio.o
pio_capture_get_interrupt_mask                    src/asf/sam/drivers/pio/pio.o
pio_capture_get_interrupt_status                  src/asf/sam/drivers/pio/pio.o
pio_capture_get_pdc_base                          src/asf/sam/drivers/pio/pio.o
pio_capture_read                                  src/asf/sam/drivers/pio/pio.o
pio_capture_set_mode                              src/asf/sam/drivers/pio/pio.o
pio_clear                                         src/asf/sam/drivers/pio/pio.o
pio_configure                                     src/asf/sam/drivers/pio/pio.o
pio_configure_interrupt                           src/asf/sam/drivers/pio/pio.o
                                                  src/asf/sam/drivers/pio/pio_handler.o
pio_configure_pin                                 src/asf/sam/drivers/pio/pio.o
                                                  src/stdio_usb_example.o
                                                  src/asf/sam/boards/sam3s_ek/init.o
pio_configure_pin_group                           src/asf/sam/drivers/pio/pio.o
pio_disable_interrupt                             src/asf/sam/drivers/pio/pio.o
                                                  src/asf/sam/drivers/pio/pio_handler.o
pio_disable_output_write                          src/asf/sam/drivers/pio/pio.o
pio_disable_pin_interrupt                         src/asf/sam/drivers/pio/pio.o
pio_enable_interrupt                              src/asf/sam/drivers/pio/pio.o
pio_enable_output_write                           src/asf/sam/drivers/pio/pio.o
pio_enable_pin_interrupt                          src/asf/sam/drivers/pio/pio.o
pio_get                                           src/asf/sam/drivers/pio/pio.o
pio_get_interrupt_mask                            src/asf/sam/drivers/pio/pio.o
                                                  src/asf/sam/drivers/pio/pio_handler.o
pio_get_interrupt_status                          src/asf/sam/drivers/pio/pio.o
                                                  src/asf/sam/drivers/pio/pio_handler.o
pio_get_multi_driver_status                       src/asf/sam/drivers/pio/pio.o
pio_get_output_data_status                        src/asf/sam/drivers/pio/pio.o
pio_get_output_write_status                       src/asf/sam/drivers/pio/pio.o
pio_get_pin_group                                 src/asf/sam/drivers/pio/pio.o
pio_get_pin_group_id                              src/asf/sam/drivers/pio/pio.o
pio_get_pin_group_mask                            src/asf/sam/drivers/pio/pio.o
pio_get_pin_value                                 src/asf/sam/drivers/pio/pio.o
pio_get_schmitt_trigger                           src/asf/sam/drivers/pio/pio.o
pio_get_writeprotect_status                       src/asf/sam/drivers/pio/pio.o
pio_handler_process                               src/asf/sam/drivers/pio/pio_handler.o
pio_handler_set                                   src/asf/sam/drivers/pio/pio_handler.o
pio_handler_set_pin                               src/asf/sam/drivers/pio/pio_handler.o
pio_handler_set_priority                          src/asf/sam/drivers/pio/pio_handler.o
pio_pull_down                                     src/asf/sam/drivers/pio/pio.o
pio_pull_up                                       src/asf/sam/drivers/pio/pio.o
pio_set                                           src/asf/sam/drivers/pio/pio.o
pio_set_additional_interrupt_mode                 src/asf/sam/drivers/pio/pio.o
pio_set_debounce_filter                           src/asf/sam/drivers/pio/pio.o
pio_set_input                                     src/asf/sam/drivers/pio/pio.o
pio_set_multi_driver                              src/asf/sam/drivers/pio/pio.o
pio_set_output                                    src/asf/sam/drivers/pio/pio.o
pio_set_peripheral                                src/asf/sam/drivers/pio/pio.o
pio_set_pin_group_high                            src/asf/sam/drivers/pio/pio.o
pio_set_pin_group_low                             src/asf/sam/drivers/pio/pio.o
pio_set_pin_high                                  src/asf/sam/drivers/pio/pio.o
                                                  src/stdio_usb_example.o
pio_set_pin_low                                   src/asf/sam/drivers/pio/pio.o
pio_set_schmitt_trigger                           src/asf/sam/drivers/pio/pio.o
pio_set_writeprotect                              src/asf/sam/drivers/pio/pio.o
pio_sync_output_write                             src/asf/sam/drivers/pio/pio.o
pio_toggle_pin                                    src/asf/sam/drivers/pio/pio.o
pio_toggle_pin_group                              src/asf/sam/drivers/pio/pio.o
pmc_clr_fast_startup_input                        src/asf/sam/drivers/pmc/pmc.o
pmc_disable_all_pck                               src/asf/sam/drivers/pmc/pmc.o
pmc_disable_all_periph_clk                        src/asf/sam/drivers/pmc/pmc.o
pmc_disable_clock_failure_detector                src/asf/sam/drivers/pmc/pmc.o
pmc_disable_interrupt                             src/asf/sam/drivers/pmc/pmc.o
pmc_disable_pck                                   src/asf/sam/drivers/pmc/pmc.o
pmc_disable_periph_clk                            src/asf/sam/drivers/pmc/pmc.o
                                                  src/asf/sam/drivers/udp/udp_device.o
pmc_disable_pllack                                src/asf/sam/drivers/pmc/pmc.o
                                                  src/asf/common/services/clock/sam3s/sysclk.o
pmc_disable_pllbck                                src/asf/sam/drivers/pmc/pmc.o
                                                  src/asf/common/services/clock/sam3s/sysclk.o
pmc_disable_udpck                                 src/asf/sam/drivers/pmc/pmc.o
                                                  src/asf/common/services/clock/sam3s/sysclk.o
pmc_enable_all_pck                                src/asf/sam/drivers/pmc/pmc.o
pmc_enable_all_periph_clk                         src/asf/sam/drivers/pmc/pmc.o
pmc_enable_backupmode                             src/asf/sam/drivers/pmc/pmc.o
pmc_enable_clock_failure_detector                 src/asf/sam/drivers/pmc/pmc.o
pmc_enable_interrupt                              src/asf/sam/drivers/pmc/pmc.o
pmc_enable_pck                                    src/asf/sam/drivers/pmc/pmc.o
pmc_enable_periph_clk                             src/asf/sam/drivers/pmc/pmc.o
                                                  src/asf/sam/drivers/udp/udp_device.o
                                                  src/asf/sam/drivers/hsmci/hsmci.o
                                                  src/asf/common/components/memory/sd_mmc/sd_mmc.o
                                                  src/pwmb.o
                                                  src/I2CdevWrapper.o
pmc_enable_pllack                                 src/asf/sam/drivers/pmc/pmc.o
pmc_enable_pllbck                                 src/asf/sam/drivers/pmc/pmc.o
pmc_enable_sleepmode                              src/asf/sam/drivers/pmc/pmc.o
pmc_enable_udpck                                  src/asf/sam/drivers/pmc/pmc.o
                                                  src/asf/common/services/clock/sam3s/sysclk.o
pmc_enable_waitmode                               src/asf/sam/drivers/pmc/pmc.o
pmc_get_interrupt_mask                            src/asf/sam/drivers/pmc/pmc.o
pmc_get_status                                    src/asf/sam/drivers/pmc/pmc.o
pmc_get_writeprotect_status                       src/asf/sam/drivers/pmc/pmc.o
pmc_is_locked_pllack                              src/asf/sam/drivers/pmc/pmc.o
                                                  src/asf/common/services/clock/sam3s/sysclk.o
pmc_is_locked_pllbck                              src/asf/sam/drivers/pmc/pmc.o
                                                  src/asf/common/services/clock/sam3s/sysclk.o
pmc_is_pck_enabled                                src/asf/sam/drivers/pmc/pmc.o
pmc_is_periph_clk_enabled                         src/asf/sam/drivers/pmc/pmc.o
pmc_mck_set_prescaler                             src/asf/sam/drivers/pmc/pmc.o
                                                  src/asf/common/services/clock/sam3s/sysclk.o
pmc_mck_set_source                                src/asf/sam/drivers/pmc/pmc.o
                                                  src/asf/common/services/clock/sam3s/sysclk.o
pmc_osc_disable_fastrc                            src/asf/sam/drivers/pmc/pmc.o
pmc_osc_disable_xtal                              src/asf/sam/drivers/pmc/pmc.o
pmc_osc_enable_fastrc                             src/asf/sam/drivers/pmc/pmc.o
pmc_osc_is_ready_32kxtal                          src/asf/sam/drivers/pmc/pmc.o
pmc_osc_is_ready_mainck                           src/asf/sam/drivers/pmc/pmc.o
                                                  src/asf/common/services/clock/sam3s/sysclk.o
pmc_pck_set_prescaler                             src/asf/sam/drivers/pmc/pmc.o
pmc_pck_set_source                                src/asf/sam/drivers/pmc/pmc.o
pmc_set_fast_startup_input                        src/asf/sam/drivers/pmc/pmc.o
                                                  src/asf/sam/drivers/udp/udp_device.o
pmc_set_writeprotect                              src/asf/sam/drivers/pmc/pmc.o
pmc_switch_mainck_to_fastrc                       src/asf/sam/drivers/pmc/pmc.o
                                                  src/asf/common/services/clock/sam3s/sysclk.o
pmc_switch_mainck_to_xtal                         src/asf/sam/drivers/pmc/pmc.o
                                                  src/asf/common/services/clock/sam3s/sysclk.o
pmc_switch_mck_to_mainck                          src/asf/sam/drivers/pmc/pmc.o
pmc_switch_mck_to_pllack                          src/asf/sam/drivers/pmc/pmc.o
                                                  src/asf/common/services/clock/sam3s/sysclk.o
pmc_switch_mck_to_pllbck                          src/asf/sam/drivers/pmc/pmc.o
pmc_switch_mck_to_sclk                            src/asf/sam/drivers/pmc/pmc.o
pmc_switch_pck_to_mainck                          src/asf/sam/drivers/pmc/pmc.o
pmc_switch_pck_to_pllack                          src/asf/sam/drivers/pmc/pmc.o
pmc_switch_pck_to_pllbck                          src/asf/sam/drivers/pmc/pmc.o
pmc_switch_pck_to_sclk                            src/asf/sam/drivers/pmc/pmc.o
pmc_switch_sclk_to_32kxtal                        src/asf/sam/drivers/pmc/pmc.o
                                                  src/asf/common/services/clock/sam3s/sysclk.o
pmc_switch_udpck_to_pllack                        src/asf/sam/drivers/pmc/pmc.o
pmc_switch_udpck_to_pllbck                        src/asf/sam/drivers/pmc/pmc.o
                                                  src/asf/common/services/clock/sam3s/sysclk.o
portable_delay_cycles                             src/asf/common/services/delay/sam/cycle_counter.o
                                                  src/stdio_usb_example.o
                                                  src/asf/common/components/memory/sd_mmc/sd_mmc.o
                                                  src/MPU9150.o
printf                                            c:/program files (x86)/atmel/atmel studio 6.0/extensions/atmel/armgcc/3.3.1.128/armgcctoolchain/bin/../lib/gcc/arm-none-eabi/4.7.0/../../../../arm-none-eabi/lib/thumb\libc.a(lib_a-printf.o)
                                                  src/asf/sam/utils/syscalls/gcc/syscalls.o
                                                  src/asf/common/components/memory/sd_mmc/sd_mmc.o
                                                  src/zeppelin_fc.o
ptr_get                                           src/asf/common/utils/stdio/stdio_usb/stdio_usb.o
                                                  src/asf/common/utils/stdio/read.o
ptr_put                                           src/asf/common/utils/stdio/write.o
                                                  src/asf/common/utils/stdio/stdio_usb/stdio_usb.o
puts                                              c:/program files (x86)/atmel/atmel studio 6.0/extensions/atmel/armgcc/3.3.1.128/armgcctoolchain/bin/../lib/gcc/arm-none-eabi/4.7.0/../../../../arm-none-eabi/lib/thumb\libc.a(lib_a-puts.o)
                                                  src/zeppelin_fc.o
pwm_channel_disable                               src/asf/sam/drivers/pwm/pwm.o
                                                  src/pwmb.o
pwm_channel_disable_interrupt                     src/asf/sam/drivers/pwm/pwm.o
pwm_channel_enable                                src/asf/sam/drivers/pwm/pwm.o
                                                  src/pwmb.o
pwm_channel_enable_interrupt                      src/asf/sam/drivers/pwm/pwm.o
                                                  src/pwmb.o
pwm_channel_get_counter                           src/asf/sam/drivers/pwm/pwm.o
pwm_channel_get_interrupt_mask                    src/asf/sam/drivers/pwm/pwm.o
pwm_channel_get_interrupt_status                  src/asf/sam/drivers/pwm/pwm.o
                                                  src/pwmb.o
pwm_channel_get_status                            src/asf/sam/drivers/pwm/pwm.o
pwm_channel_init                                  src/asf/sam/drivers/pwm/pwm.o
                                                  src/pwmb.o
pwm_channel_update_dead_time                      src/asf/sam/drivers/pwm/pwm.o
pwm_channel_update_duty                           src/asf/sam/drivers/pwm/pwm.o
                                                  src/pwmb.o
pwm_channel_update_output                         src/asf/sam/drivers/pwm/pwm.o
pwm_channel_update_period                         src/asf/sam/drivers/pwm/pwm.o
pwm_cmp_change_setting                            src/asf/sam/drivers/pwm/pwm.o
pwm_cmp_disable_interrupt                         src/asf/sam/drivers/pwm/pwm.o
pwm_cmp_enable_interrupt                          src/asf/sam/drivers/pwm/pwm.o
pwm_cmp_get_period_counter                        src/asf/sam/drivers/pwm/pwm.o
pwm_cmp_get_update_counter                        src/asf/sam/drivers/pwm/pwm.o
pwm_cmp_init                                      src/asf/sam/drivers/pwm/pwm.o
pwm_disable_protect                               src/asf/sam/drivers/pwm/pwm.o
pwm_enable_protect                                src/asf/sam/drivers/pwm/pwm.o
pwm_fault_clear_status                            src/asf/sam/drivers/pwm/pwm.o
pwm_fault_get_input_level                         src/asf/sam/drivers/pwm/pwm.o
pwm_fault_get_status                              src/asf/sam/drivers/pwm/pwm.o
pwm_fault_init                                    src/asf/sam/drivers/pwm/pwm.o
pwm_get_interrupt_mask                            src/asf/sam/drivers/pwm/pwm.o
pwm_get_interrupt_status                          src/asf/sam/drivers/pwm/pwm.o
pwm_get_protect_status                            src/asf/sam/drivers/pwm/pwm.o
pwm_init                                          src/asf/sam/drivers/pwm/pwm.o
                                                  src/pwmb.o
pwm_pdc_disable_interrupt                         src/asf/sam/drivers/pwm/pwm.o
pwm_pdc_enable_interrupt                          src/asf/sam/drivers/pwm/pwm.o
pwm_pdc_set_request_mode                          src/asf/sam/drivers/pwm/pwm.o
pwm_stepper_motor_init                            src/asf/sam/drivers/pwm/pwm.o
pwm_sync_change_period                            src/asf/sam/drivers/pwm/pwm.o
pwm_sync_disable_interrupt                        src/asf/sam/drivers/pwm/pwm.o
pwm_sync_enable_interrupt                         src/asf/sam/drivers/pwm/pwm.o
pwm_sync_get_period_counter                       src/asf/sam/drivers/pwm/pwm.o
pwm_sync_init                                     src/asf/sam/drivers/pwm/pwm.o
pwm_sync_unlock_update                            src/asf/sam/drivers/pwm/pwm.o
raise                                             c:/program files (x86)/atmel/atmel studio 6.0/extensions/atmel/armgcc/3.3.1.128/armgcctoolchain/bin/../lib/gcc/arm-none-eabi/4.7.0/../../../../arm-none-eabi/lib/thumb\libc.a(lib_a-signal.o)
                                                  c:/program files (x86)/atmel/atmel studio 6.0/extensions/atmel/armgcc/3.3.1.128/armgcctoolchain/bin/../lib/gcc/arm-none-eabi/4.7.0/../../../../arm-none-eabi/lib/thumb\libc.a(lib_a-abort.o)
ram_2_memory                                      src/asf/common/services/storage/ctrl_access/ctrl_access.o
                                                  src/asf/thirdparty/fatfs/fatfs-port-r0.09/diskio.o
res                                               src/zeppelin_fc.o
restore_core_regs                                 c:/program files (x86)/atmel/atmel studio 6.0/extensions/atmel/armgcc/3.3.1.128/armgcctoolchain/bin/../lib/gcc/arm-none-eabi/4.7.0/thumb\libgcc.a(libunwind.o)
                                                  c:/program files (x86)/atmel/atmel studio 6.0/extensions/atmel/armgcc/3.3.1.128/armgcctoolchain/bin/../lib/gcc/arm-none-eabi/4.7.0/thumb\libgcc.a(unwind-arm.o)
rtc_clear_data_alarm                              src/asf/sam/drivers/rtc/rtc.o
rtc_clear_status                                  src/asf/sam/drivers/rtc/rtc.o
                                                  src/rtc.o
rtc_clear_time_alarm                              src/asf/sam/drivers/rtc/rtc.o
rtc_disable_interrupt                             src/asf/sam/drivers/rtc/rtc.o
                                                  src/rtc.o
rtc_enable_interrupt                              src/asf/sam/drivers/rtc/rtc.o
                                                  src/stdio_usb_example.o
                                                  src/rtc.o
rtc_get_date                                      src/asf/sam/drivers/rtc/rtc.o
                                                  src/asf/thirdparty/fatfs/fatfs-port-r0.09/sam/fattime.o
                                                  src/zeppelin_fc.o
rtc_get_hour_mode                                 src/asf/sam/drivers/rtc/rtc.o
rtc_get_interrupt_mask                            src/asf/sam/drivers/rtc/rtc.o
rtc_get_status                                    src/asf/sam/drivers/rtc/rtc.o
                                                  src/rtc.o
rtc_get_time                                      src/asf/sam/drivers/rtc/rtc.o
                                                  src/asf/thirdparty/fatfs/fatfs-port-r0.09/sam/fattime.o
                                                  src/zeppelin_fc.o
rtc_set_calendar_mode                             src/asf/sam/drivers/rtc/rtc.o
rtc_set_calibration                               src/asf/sam/drivers/rtc/rtc.o
rtc_set_date                                      src/asf/sam/drivers/rtc/rtc.o
rtc_set_date_alarm                                src/asf/sam/drivers/rtc/rtc.o
rtc_set_hour_mode                                 src/asf/sam/drivers/rtc/rtc.o
                                                  src/stdio_usb_example.o
rtc_set_pulse_parameter                           src/asf/sam/drivers/rtc/rtc.o
rtc_set_time                                      src/asf/sam/drivers/rtc/rtc.o
rtc_set_time_alarm                                src/asf/sam/drivers/rtc/rtc.o
rtc_set_waveform                                  src/asf/sam/drivers/rtc/rtc.o
sd_mmc_check                                      src/asf/common/components/memory/sd_mmc/sd_mmc.o
                                                  src/sd_mmc_mem.o
                                                  src/zeppelin_fc.o
sd_mmc_get_capacity                               src/asf/common/components/memory/sd_mmc/sd_mmc.o
                                                  src/sd_mmc_mem.o
sd_mmc_get_type                                   src/asf/common/components/memory/sd_mmc/sd_mmc.o
                                                  src/sd_mmc_mem.o
sd_mmc_get_version                                src/asf/common/components/memory/sd_mmc/sd_mmc.o
sd_mmc_init                                       src/asf/common/components/memory/sd_mmc/sd_mmc.o
                                                  src/zeppelin_fc.o
sd_mmc_init_read_blocks                           src/asf/common/components/memory/sd_mmc/sd_mmc.o
                                                  src/sd_mmc_mem.o
sd_mmc_init_write_blocks                          src/asf/common/components/memory/sd_mmc/sd_mmc.o
                                                  src/sd_mmc_mem.o
sd_mmc_is_write_protected                         src/asf/common/components/memory/sd_mmc/sd_mmc.o
                                                  src/sd_mmc_mem.o
sd_mmc_mem_2_ram                                  src/sd_mmc_mem.o
sd_mmc_mem_2_ram_0                                src/sd_mmc_mem.o
                                                  src/asf/common/services/storage/ctrl_access/ctrl_access.o
sd_mmc_mem_2_ram_1                                src/sd_mmc_mem.o
sd_mmc_nb_slot                                    src/asf/common/components/memory/sd_mmc/sd_mmc.o
sd_mmc_ram_2_mem                                  src/sd_mmc_mem.o
sd_mmc_ram_2_mem_0                                src/sd_mmc_mem.o
                                                  src/asf/common/services/storage/ctrl_access/ctrl_access.o
sd_mmc_ram_2_mem_1                                src/sd_mmc_mem.o
sd_mmc_read_capacity                              src/sd_mmc_mem.o
sd_mmc_read_capacity_0                            src/sd_mmc_mem.o
                                                  src/asf/common/services/storage/ctrl_access/ctrl_access.o
sd_mmc_read_capacity_1                            src/sd_mmc_mem.o
sd_mmc_removal                                    src/sd_mmc_mem.o
sd_mmc_removal_0                                  src/sd_mmc_mem.o
                                                  src/asf/common/services/storage/ctrl_access/ctrl_access.o
sd_mmc_removal_1                                  src/sd_mmc_mem.o
sd_mmc_start_read_blocks                          src/asf/common/components/memory/sd_mmc/sd_mmc.o
                                                  src/sd_mmc_mem.o
sd_mmc_start_write_blocks                         src/asf/common/components/memory/sd_mmc/sd_mmc.o
                                                  src/sd_mmc_mem.o
sd_mmc_test_unit_ready                            src/sd_mmc_mem.o
                                                  src/zeppelin_fc.o
sd_mmc_test_unit_ready_0                          src/sd_mmc_mem.o
                                                  src/asf/common/services/storage/ctrl_access/ctrl_access.o
sd_mmc_test_unit_ready_1                          src/sd_mmc_mem.o
sd_mmc_trans_units                                src/asf/common/components/memory/sd_mmc/sd_mmc.o
sd_mmc_wait_end_of_read_blocks                    src/asf/common/components/memory/sd_mmc/sd_mmc.o
                                                  src/sd_mmc_mem.o
sd_mmc_wait_end_of_write_blocks                   src/asf/common/components/memory/sd_mmc/sd_mmc.o
                                                  src/sd_mmc_mem.o
sd_mmc_wr_protect                                 src/sd_mmc_mem.o
sd_mmc_wr_protect_0                               src/sd_mmc_mem.o
                                                  src/asf/common/services/storage/ctrl_access/ctrl_access.o
sd_mmc_wr_protect_1                               src/sd_mmc_mem.o
sd_trans_multipliers                              src/asf/common/components/memory/sd_mmc/sd_mmc.o
setbuf                                            c:/program files (x86)/atmel/atmel studio 6.0/extensions/atmel/armgcc/3.3.1.128/armgcctoolchain/bin/../lib/gcc/arm-none-eabi/4.7.0/../../../../arm-none-eabi/lib/thumb\libc.a(lib_a-setbuf.o)
                                                  src/asf/common/utils/stdio/stdio_usb/stdio_usb.o
setlocale                                         c:/program files (x86)/atmel/atmel studio 6.0/extensions/atmel/armgcc/3.3.1.128/armgcctoolchain/bin/../lib/gcc/arm-none-eabi/4.7.0/../../../../arm-none-eabi/lib/thumb\libc.a(lib_a-locale.o)
setvbuf                                           c:/program files (x86)/atmel/atmel studio 6.0/extensions/atmel/armgcc/3.3.1.128/armgcctoolchain/bin/../lib/gcc/arm-none-eabi/4.7.0/../../../../arm-none-eabi/lib/thumb\libc.a(lib_a-setvbuf.o)
                                                  c:/program files (x86)/atmel/atmel studio 6.0/extensions/atmel/armgcc/3.3.1.128/armgcctoolchain/bin/../lib/gcc/arm-none-eabi/4.7.0/../../../../arm-none-eabi/lib/thumb\libc.a(lib_a-setbuf.o)
signal                                            c:/program files (x86)/atmel/atmel studio 6.0/extensions/atmel/armgcc/3.3.1.128/armgcctoolchain/bin/../lib/gcc/arm-none-eabi/4.7.0/../../../../arm-none-eabi/lib/thumb\libc.a(lib_a-signal.o)
sleepmgr_locks                                    src/asf/sam/drivers/udp/udp_device.o
                                                  src/asf/common/services/sleepmgr/sam/sleepmgr.o
software_init_hook                                c:/program files (x86)/atmel/atmel studio 6.0/extensions/atmel/armgcc/3.3.1.128/armgcctoolchain/bin/../lib/gcc/arm-none-eabi/4.7.0/../../../../arm-none-eabi/lib/thumb/crt0.o
sprintf                                           c:/program files (x86)/atmel/atmel studio 6.0/extensions/atmel/armgcc/3.3.1.128/armgcctoolchain/bin/../lib/gcc/arm-none-eabi/4.7.0/../../../../arm-none-eabi/lib/thumb\libc.a(lib_a-sprintf.o)
                                                  src/zeppelin_fc.o
start                                             c:/program files (x86)/atmel/atmel studio 6.0/extensions/atmel/armgcc/3.3.1.128/armgcctoolchain/bin/../lib/gcc/arm-none-eabi/4.7.0/../../../../arm-none-eabi/lib/thumb/crt0.o
status                                            src/zeppelin_fc.o
stdio_base                                        src/asf/common/utils/stdio/write.o
                                                  src/asf/common/utils/stdio/stdio_usb/stdio_usb.o
                                                  src/asf/common/utils/stdio/read.o
stdio_usb_disable                                 src/asf/common/utils/stdio/stdio_usb/stdio_usb.o
                                                  src/asf/common/services/usb/class/cdc/device/udi_cdc.o
stdio_usb_enable                                  src/asf/common/utils/stdio/stdio_usb/stdio_usb.o
                                                  src/asf/common/services/usb/class/cdc/device/udi_cdc.o
stdio_usb_getchar                                 src/asf/common/utils/stdio/stdio_usb/stdio_usb.o
stdio_usb_init                                    src/asf/common/utils/stdio/stdio_usb/stdio_usb.o
                                                  src/stdio_usb_example.o
stdio_usb_putchar                                 src/asf/common/utils/stdio/stdio_usb/stdio_usb.o
stdio_usb_vbus_event                              src/asf/common/utils/stdio/stdio_usb/stdio_usb.o
strcmp                                            c:/program files (x86)/atmel/atmel studio 6.0/extensions/atmel/armgcc/3.3.1.128/armgcctoolchain/bin/../lib/gcc/arm-none-eabi/4.7.0/../../../../arm-none-eabi/lib/thumb\libc.a(lib_a-strcmp.o)
                                                  c:/program files (x86)/atmel/atmel studio 6.0/extensions/atmel/armgcc/3.3.1.128/armgcctoolchain/bin/../lib/gcc/arm-none-eabi/4.7.0/../../../../arm-none-eabi/lib/thumb\libc.a(lib_a-locale.o)
strlen                                            c:/program files (x86)/atmel/atmel studio 6.0/extensions/atmel/armgcc/3.3.1.128/armgcctoolchain/bin/../lib/gcc/arm-none-eabi/4.7.0/../../../../arm-none-eabi/lib/thumb\libc.a(lib_a-strlen.o)
                                                  c:/program files (x86)/atmel/atmel studio 6.0/extensions/atmel/armgcc/3.3.1.128/armgcctoolchain/bin/../lib/gcc/arm-none-eabi/4.7.0/../../../../arm-none-eabi/lib/thumb\libc.a(lib_a-svfiprintf.o)
                                                  c:/program files (x86)/atmel/atmel studio 6.0/extensions/atmel/armgcc/3.3.1.128/armgcctoolchain/bin/../lib/gcc/arm-none-eabi/4.7.0/../../../../arm-none-eabi/lib/thumb\libc.a(lib_a-vfprintf.o)
                                                  c:/program files (x86)/atmel/atmel studio 6.0/extensions/atmel/armgcc/3.3.1.128/armgcctoolchain/bin/../lib/gcc/arm-none-eabi/4.7.0/../../../../arm-none-eabi/lib/thumb\libc.a(lib_a-vfiprintf.o)
                                                  c:/program files (x86)/atmel/atmel studio 6.0/extensions/atmel/armgcc/3.3.1.128/armgcctoolchain/bin/../lib/gcc/arm-none-eabi/4.7.0/../../../../arm-none-eabi/lib/thumb\libc.a(lib_a-svfprintf.o)
                                                  c:/program files (x86)/atmel/atmel studio 6.0/extensions/atmel/armgcc/3.3.1.128/armgcctoolchain/bin/../lib/gcc/arm-none-eabi/4.7.0/../../../../arm-none-eabi/lib/thumb\libc.a(lib_a-puts.o)
sysclk_disable_usb                                src/asf/common/services/clock/sam3s/sysclk.o
                                                  src/asf/sam/drivers/udp/udp_device.o
sysclk_enable_usb                                 src/asf/common/services/clock/sam3s/sysclk.o
                                                  src/asf/sam/drivers/udp/udp_device.o
sysclk_init                                       src/asf/common/services/clock/sam3s/sysclk.o
                                                  src/stdio_usb_example.o
sysclk_set_prescalers                             src/asf/common/services/clock/sam3s/sysclk.o
sysclk_set_source                                 src/asf/common/services/clock/sam3s/sysclk.o
system_init_flash                                 src/asf/sam/utils/cmsis/sam3s8/source/templates/system_sam3sd8.o
                                                  src/asf/common/services/clock/sam3s/sysclk.o
test_file_name                                    src/zeppelin_fc.o
tick                                              src/zeppelin_fc.o
twi_disable_interrupt                             src/asf/sam/drivers/twi/twi.o
twi_disable_master_mode                           src/asf/sam/drivers/twi/twi.o
twi_disable_slave_mode                            src/asf/sam/drivers/twi/twi.o
twi_enable_interrupt                              src/asf/sam/drivers/twi/twi.o
twi_enable_master_mode                            src/asf/sam/drivers/twi/twi.o
twi_enable_slave_mode                             src/asf/sam/drivers/twi/twi.o
twi_get_interrupt_mask                            src/asf/sam/drivers/twi/twi.o
twi_get_interrupt_status                          src/asf/sam/drivers/twi/twi.o
twi_get_pdc_base                                  src/asf/sam/drivers/twi/twi.o
twi_master_init                                   src/asf/sam/drivers/twi/twi.o
                                                  src/I2CdevWrapper.o
twi_master_read                                   src/asf/sam/drivers/twi/twi.o
                                                  src/I2CdevWrapper.o
twi_master_write                                  src/asf/sam/drivers/twi/twi.o
                                                  src/I2CdevWrapper.o
twi_probe                                         src/asf/sam/drivers/twi/twi.o
twi_read_byte                                     src/asf/sam/drivers/twi/twi.o
twi_reset                                         src/asf/sam/drivers/twi/twi.o
twi_set_speed                                     src/asf/sam/drivers/twi/twi.o
twi_slave_init                                    src/asf/sam/drivers/twi/twi.o
twi_slave_read                                    src/asf/sam/drivers/twi/twi.o
twi_slave_write                                   src/asf/sam/drivers/twi/twi.o
twi_write_byte                                    src/asf/sam/drivers/twi/twi.o
udc_config                                        src/asf/common/services/usb/class/cdc/device/udi_cdc_desc.o
                                                  src/asf/common/services/usb/udc/udc.o
udc_config_fs                                     src/asf/common/services/usb/class/cdc/device/udi_cdc_desc.o
udc_desc_fs                                       src/asf/common/services/usb/class/cdc/device/udi_cdc_desc.o
udc_device_desc                                   src/asf/common/services/usb/class/cdc/device/udi_cdc_desc.o
udc_get_interface_desc                            src/asf/common/services/usb/udc/udc.o
udc_process_setup                                 src/asf/common/services/usb/udc/udc.o
                                                  src/asf/sam/drivers/udp/udp_device.o
udc_reset                                         src/asf/common/services/usb/udc/udc.o
                                                  src/asf/sam/drivers/udp/udp_device.o
udc_sof_notify                                    src/asf/common/services/usb/udc/udc.o
                                                  src/asf/sam/drivers/udp/udp_device.o
udc_start                                         src/asf/common/services/usb/udc/udc.o
                                                  src/asf/common/utils/stdio/stdio_usb/stdio_usb.o
udc_stop                                          src/asf/common/services/usb/udc/udc.o
udd_attach                                        src/asf/sam/drivers/udp/udp_device.o
                                                  src/asf/common/utils/stdio/stdio_usb/stdio_usb.o
udd_detach                                        src/asf/sam/drivers/udp/udp_device.o
                                                  src/asf/common/utils/stdio/stdio_usb/stdio_usb.o
udd_disable                                       src/asf/sam/drivers/udp/udp_device.o
                                                  src/asf/common/services/usb/udc/udc.o
udd_enable                                        src/asf/sam/drivers/udp/udp_device.o
                                                  src/asf/common/services/usb/udc/udc.o
udd_ep_abort                                      src/asf/sam/drivers/udp/udp_device.o
                                                  src/asf/common/services/usb/udc/udc.o
udd_ep_alloc                                      src/asf/sam/drivers/udp/udp_device.o
                                                  src/asf/common/services/usb/udc/udc.o
udd_ep_clear_halt                                 src/asf/sam/drivers/udp/udp_device.o
                                                  src/asf/common/services/usb/udc/udc.o
udd_ep_free                                       src/asf/sam/drivers/udp/udp_device.o
                                                  src/asf/common/services/usb/udc/udc.o
udd_ep_is_halted                                  src/asf/sam/drivers/udp/udp_device.o
                                                  src/asf/common/services/usb/udc/udc.o
udd_ep_run                                        src/asf/sam/drivers/udp/udp_device.o
                                                  src/asf/common/services/usb/class/cdc/device/udi_cdc.o
udd_ep_set_halt                                   src/asf/sam/drivers/udp/udp_device.o
                                                  src/asf/common/services/usb/udc/udc.o
udd_ep_wait_stall_clear                           src/asf/sam/drivers/udp/udp_device.o
udd_g_ctrlreq                                     src/asf/sam/drivers/udp/udp_device.o
                                                  src/asf/common/services/usb/udc/udc.o
                                                  src/asf/common/services/usb/class/cdc/device/udi_cdc.o
udd_get_frame_number                              src/asf/sam/drivers/udp/udp_device.o
                                                  src/asf/common/services/usb/class/cdc/device/udi_cdc.o
udd_get_micro_frame_number                        src/asf/sam/drivers/udp/udp_device.o
                                                  src/asf/common/services/usb/class/cdc/device/udi_cdc.o
udd_getaddress                                    src/asf/sam/drivers/udp/udp_device.o
                                                  src/asf/common/services/usb/udc/udc.o
udd_include_vbus_monitoring                       src/asf/sam/drivers/udp/udp_device.o
                                                  src/asf/common/utils/stdio/stdio_usb/stdio_usb.o
udd_is_high_speed                                 src/asf/sam/drivers/udp/udp_device.o
                                                  src/asf/common/services/usb/class/cdc/device/udi_cdc.o
udd_send_remotewakeup                             src/asf/sam/drivers/udp/udp_device.o
udd_set_address                                   src/asf/sam/drivers/udp/udp_device.o
                                                  src/asf/common/services/usb/udc/udc.o
udd_set_setup_payload                             src/asf/sam/drivers/udp/udp_device.o
                                                  src/asf/common/services/usb/udc/udc.o
udi_api_cdc_comm                                  src/asf/common/services/usb/class/cdc/device/udi_cdc.o
                                                  src/asf/common/services/usb/class/cdc/device/udi_cdc_desc.o
udi_api_cdc_data                                  src/asf/common/services/usb/class/cdc/device/udi_cdc.o
                                                  src/asf/common/services/usb/class/cdc/device/udi_cdc_desc.o
udi_apis                                          src/asf/common/services/usb/class/cdc/device/udi_cdc_desc.o
udi_cdc_comm_disable                              src/asf/common/services/usb/class/cdc/device/udi_cdc.o
udi_cdc_comm_enable                               src/asf/common/services/usb/class/cdc/device/udi_cdc.o
udi_cdc_comm_setup                                src/asf/common/services/usb/class/cdc/device/udi_cdc.o
udi_cdc_ctrl_signal_dcd                           src/asf/common/services/usb/class/cdc/device/udi_cdc.o
udi_cdc_ctrl_signal_dsr                           src/asf/common/services/usb/class/cdc/device/udi_cdc.o
udi_cdc_data_disable                              src/asf/common/services/usb/class/cdc/device/udi_cdc.o
udi_cdc_data_enable                               src/asf/common/services/usb/class/cdc/device/udi_cdc.o
udi_cdc_data_setup                                src/asf/common/services/usb/class/cdc/device/udi_cdc.o
udi_cdc_data_sof_notify                           src/asf/common/services/usb/class/cdc/device/udi_cdc.o
udi_cdc_getc                                      src/asf/common/services/usb/class/cdc/device/udi_cdc.o
                                                  src/asf/common/utils/stdio/stdio_usb/stdio_usb.o
udi_cdc_getsetting                                src/asf/common/services/usb/class/cdc/device/udi_cdc.o
udi_cdc_is_rx_ready                               src/asf/common/services/usb/class/cdc/device/udi_cdc.o
udi_cdc_is_tx_ready                               src/asf/common/services/usb/class/cdc/device/udi_cdc.o
udi_cdc_multi_ctrl_signal_dcd                     src/asf/common/services/usb/class/cdc/device/udi_cdc.o
udi_cdc_multi_ctrl_signal_dsr                     src/asf/common/services/usb/class/cdc/device/udi_cdc.o
udi_cdc_multi_getc                                src/asf/common/services/usb/class/cdc/device/udi_cdc.o
udi_cdc_multi_is_rx_ready                         src/asf/common/services/usb/class/cdc/device/udi_cdc.o
udi_cdc_multi_is_tx_ready                         src/asf/common/services/usb/class/cdc/device/udi_cdc.o
udi_cdc_multi_putc                                src/asf/common/services/usb/class/cdc/device/udi_cdc.o
udi_cdc_multi_read_buf                            src/asf/common/services/usb/class/cdc/device/udi_cdc.o
udi_cdc_multi_signal_framing_error                src/asf/common/services/usb/class/cdc/device/udi_cdc.o
udi_cdc_multi_signal_overrun                      src/asf/common/services/usb/class/cdc/device/udi_cdc.o
udi_cdc_multi_signal_parity_error                 src/asf/common/services/usb/class/cdc/device/udi_cdc.o
udi_cdc_multi_write_buf                           src/asf/common/services/usb/class/cdc/device/udi_cdc.o
udi_cdc_putc                                      src/asf/common/services/usb/class/cdc/device/udi_cdc.o
                                                  src/asf/common/utils/stdio/stdio_usb/stdio_usb.o
udi_cdc_read_buf                                  src/asf/common/services/usb/class/cdc/device/udi_cdc.o
udi_cdc_signal_framing_error                      src/asf/common/services/usb/class/cdc/device/udi_cdc.o
udi_cdc_signal_overrun                            src/asf/common/services/usb/class/cdc/device/udi_cdc.o
udi_cdc_signal_parity_error                       src/asf/common/services/usb/class/cdc/device/udi_cdc.o
udi_cdc_write_buf                                 src/asf/common/services/usb/class/cdc/device/udi_cdc.o
ul_ms_ticks                                       src/zeppelin_fc.o
vfiprintf                                         c:/program files (x86)/atmel/atmel studio 6.0/extensions/atmel/armgcc/3.3.1.128/armgcctoolchain/bin/../lib/gcc/arm-none-eabi/4.7.0/../../../../arm-none-eabi/lib/thumb\libc.a(lib_a-vfiprintf.o)
vfprintf                                          c:/program files (x86)/atmel/atmel studio 6.0/extensions/atmel/armgcc/3.3.1.128/armgcctoolchain/bin/../lib/gcc/arm-none-eabi/4.7.0/../../../../arm-none-eabi/lib/thumb\libc.a(lib_a-vfprintf.o)
wcrtomb                                           c:/program files (x86)/atmel/atmel studio 6.0/extensions/atmel/armgcc/3.3.1.128/armgcctoolchain/bin/../lib/gcc/arm-none-eabi/4.7.0/../../../../arm-none-eabi/lib/thumb\libc.a(lib_a-wcrtomb.o)
